
Project.elf:     file format elf32-littlearm

Sections:
Idx Name          Size      VMA       LMA       File off  Algn
  0 .isr_vector   000001c4  08000000  08000000  00010000  2**0
                  CONTENTS, ALLOC, LOAD, READONLY, DATA
  1 .text         00005778  080001d0  080001d0  000101d0  2**4
                  CONTENTS, ALLOC, LOAD, READONLY, CODE
  2 .rodata       000009d4  08005948  08005948  00015948  2**3
                  CONTENTS, ALLOC, LOAD, READONLY, DATA
  3 .ARM.extab    00000000  0800631c  0800631c  000201e0  2**0
                  CONTENTS
  4 .ARM          00000008  0800631c  0800631c  0001631c  2**2
                  CONTENTS, ALLOC, LOAD, READONLY, DATA
  5 .preinit_array 00000000  08006324  08006324  000201e0  2**0
                  CONTENTS, ALLOC, LOAD, DATA
  6 .init_array   00000004  08006324  08006324  00016324  2**2
                  CONTENTS, ALLOC, LOAD, DATA
  7 .fini_array   00000004  08006328  08006328  00016328  2**2
                  CONTENTS, ALLOC, LOAD, DATA
  8 .data         000001e0  20000000  0800632c  00020000  2**2
                  CONTENTS, ALLOC, LOAD, DATA
  9 .bss          0000005c  200001e0  0800650c  000201e0  2**2
                  ALLOC
 10 ._user_heap_stack 00000604  2000023c  0800650c  0002023c  2**0
                  ALLOC
 11 .ARM.attributes 00000030  00000000  00000000  000201e0  2**0
                  CONTENTS, READONLY
 12 .debug_info   0000e535  00000000  00000000  00020210  2**0
                  CONTENTS, READONLY, DEBUGGING, OCTETS
 13 .debug_abbrev 0000240f  00000000  00000000  0002e745  2**0
                  CONTENTS, READONLY, DEBUGGING, OCTETS
 14 .debug_loc    00008dbd  00000000  00000000  00030b54  2**0
                  CONTENTS, READONLY, DEBUGGING, OCTETS
 15 .debug_aranges 00000718  00000000  00000000  00039918  2**3
                  CONTENTS, READONLY, DEBUGGING, OCTETS
 16 .debug_ranges 00001758  00000000  00000000  0003a030  2**3
                  CONTENTS, READONLY, DEBUGGING, OCTETS
 17 .debug_macro  00022a01  00000000  00000000  0003b788  2**0
                  CONTENTS, READONLY, DEBUGGING, OCTETS
 18 .debug_line   0000e389  00000000  00000000  0005e189  2**0
                  CONTENTS, READONLY, DEBUGGING, OCTETS
 19 .debug_str    000cdef3  00000000  00000000  0006c512  2**0
                  CONTENTS, READONLY, DEBUGGING, OCTETS
 20 .comment      00000053  00000000  00000000  0013a405  2**0
                  CONTENTS, READONLY
 21 .debug_frame  0000275c  00000000  00000000  0013a458  2**2
                  CONTENTS, READONLY, DEBUGGING, OCTETS

Disassembly of section .text:

080001d0 <__do_global_dtors_aux>:
 80001d0:	b510      	push	{r4, lr}
 80001d2:	4c05      	ldr	r4, [pc, #20]	; (80001e8 <__do_global_dtors_aux+0x18>)
 80001d4:	7823      	ldrb	r3, [r4, #0]
 80001d6:	b933      	cbnz	r3, 80001e6 <__do_global_dtors_aux+0x16>
 80001d8:	4b04      	ldr	r3, [pc, #16]	; (80001ec <__do_global_dtors_aux+0x1c>)
 80001da:	b113      	cbz	r3, 80001e2 <__do_global_dtors_aux+0x12>
 80001dc:	4804      	ldr	r0, [pc, #16]	; (80001f0 <__do_global_dtors_aux+0x20>)
 80001de:	f3af 8000 	nop.w
 80001e2:	2301      	movs	r3, #1
 80001e4:	7023      	strb	r3, [r4, #0]
 80001e6:	bd10      	pop	{r4, pc}
 80001e8:	200001e0 	.word	0x200001e0
 80001ec:	00000000 	.word	0x00000000
 80001f0:	08005930 	.word	0x08005930

080001f4 <frame_dummy>:
 80001f4:	b508      	push	{r3, lr}
 80001f6:	4b03      	ldr	r3, [pc, #12]	; (8000204 <frame_dummy+0x10>)
 80001f8:	b11b      	cbz	r3, 8000202 <frame_dummy+0xe>
 80001fa:	4903      	ldr	r1, [pc, #12]	; (8000208 <frame_dummy+0x14>)
 80001fc:	4803      	ldr	r0, [pc, #12]	; (800020c <frame_dummy+0x18>)
 80001fe:	f3af 8000 	nop.w
 8000202:	bd08      	pop	{r3, pc}
 8000204:	00000000 	.word	0x00000000
 8000208:	200001e4 	.word	0x200001e4
 800020c:	08005930 	.word	0x08005930

08000210 <strlen>:
 8000210:	4603      	mov	r3, r0
 8000212:	f813 2b01 	ldrb.w	r2, [r3], #1
 8000216:	2a00      	cmp	r2, #0
 8000218:	d1fb      	bne.n	8000212 <strlen+0x2>
 800021a:	1a18      	subs	r0, r3, r0
 800021c:	3801      	subs	r0, #1
 800021e:	4770      	bx	lr

08000220 <memchr>:
 8000220:	f001 01ff 	and.w	r1, r1, #255	; 0xff
 8000224:	2a10      	cmp	r2, #16
 8000226:	db2b      	blt.n	8000280 <memchr+0x60>
 8000228:	f010 0f07 	tst.w	r0, #7
 800022c:	d008      	beq.n	8000240 <memchr+0x20>
 800022e:	f810 3b01 	ldrb.w	r3, [r0], #1
 8000232:	3a01      	subs	r2, #1
 8000234:	428b      	cmp	r3, r1
 8000236:	d02d      	beq.n	8000294 <memchr+0x74>
 8000238:	f010 0f07 	tst.w	r0, #7
 800023c:	b342      	cbz	r2, 8000290 <memchr+0x70>
 800023e:	d1f6      	bne.n	800022e <memchr+0xe>
 8000240:	b4f0      	push	{r4, r5, r6, r7}
 8000242:	ea41 2101 	orr.w	r1, r1, r1, lsl #8
 8000246:	ea41 4101 	orr.w	r1, r1, r1, lsl #16
 800024a:	f022 0407 	bic.w	r4, r2, #7
 800024e:	f07f 0700 	mvns.w	r7, #0
 8000252:	2300      	movs	r3, #0
 8000254:	e8f0 5602 	ldrd	r5, r6, [r0], #8
 8000258:	3c08      	subs	r4, #8
 800025a:	ea85 0501 	eor.w	r5, r5, r1
 800025e:	ea86 0601 	eor.w	r6, r6, r1
 8000262:	fa85 f547 	uadd8	r5, r5, r7
 8000266:	faa3 f587 	sel	r5, r3, r7
 800026a:	fa86 f647 	uadd8	r6, r6, r7
 800026e:	faa5 f687 	sel	r6, r5, r7
 8000272:	b98e      	cbnz	r6, 8000298 <memchr+0x78>
 8000274:	d1ee      	bne.n	8000254 <memchr+0x34>
 8000276:	bcf0      	pop	{r4, r5, r6, r7}
 8000278:	f001 01ff 	and.w	r1, r1, #255	; 0xff
 800027c:	f002 0207 	and.w	r2, r2, #7
 8000280:	b132      	cbz	r2, 8000290 <memchr+0x70>
 8000282:	f810 3b01 	ldrb.w	r3, [r0], #1
 8000286:	3a01      	subs	r2, #1
 8000288:	ea83 0301 	eor.w	r3, r3, r1
 800028c:	b113      	cbz	r3, 8000294 <memchr+0x74>
 800028e:	d1f8      	bne.n	8000282 <memchr+0x62>
 8000290:	2000      	movs	r0, #0
 8000292:	4770      	bx	lr
 8000294:	3801      	subs	r0, #1
 8000296:	4770      	bx	lr
 8000298:	2d00      	cmp	r5, #0
 800029a:	bf06      	itte	eq
 800029c:	4635      	moveq	r5, r6
 800029e:	3803      	subeq	r0, #3
 80002a0:	3807      	subne	r0, #7
 80002a2:	f015 0f01 	tst.w	r5, #1
 80002a6:	d107      	bne.n	80002b8 <memchr+0x98>
 80002a8:	3001      	adds	r0, #1
 80002aa:	f415 7f80 	tst.w	r5, #256	; 0x100
 80002ae:	bf02      	ittt	eq
 80002b0:	3001      	addeq	r0, #1
 80002b2:	f415 3fc0 	tsteq.w	r5, #98304	; 0x18000
 80002b6:	3001      	addeq	r0, #1
 80002b8:	bcf0      	pop	{r4, r5, r6, r7}
 80002ba:	3801      	subs	r0, #1
 80002bc:	4770      	bx	lr
 80002be:	bf00      	nop

080002c0 <__aeabi_drsub>:
 80002c0:	f081 4100 	eor.w	r1, r1, #2147483648	; 0x80000000
 80002c4:	e002      	b.n	80002cc <__adddf3>
 80002c6:	bf00      	nop

080002c8 <__aeabi_dsub>:
 80002c8:	f083 4300 	eor.w	r3, r3, #2147483648	; 0x80000000

080002cc <__adddf3>:
 80002cc:	b530      	push	{r4, r5, lr}
 80002ce:	ea4f 0441 	mov.w	r4, r1, lsl #1
 80002d2:	ea4f 0543 	mov.w	r5, r3, lsl #1
 80002d6:	ea94 0f05 	teq	r4, r5
 80002da:	bf08      	it	eq
 80002dc:	ea90 0f02 	teqeq	r0, r2
 80002e0:	bf1f      	itttt	ne
 80002e2:	ea54 0c00 	orrsne.w	ip, r4, r0
 80002e6:	ea55 0c02 	orrsne.w	ip, r5, r2
 80002ea:	ea7f 5c64 	mvnsne.w	ip, r4, asr #21
 80002ee:	ea7f 5c65 	mvnsne.w	ip, r5, asr #21
 80002f2:	f000 80e2 	beq.w	80004ba <__adddf3+0x1ee>
 80002f6:	ea4f 5454 	mov.w	r4, r4, lsr #21
 80002fa:	ebd4 5555 	rsbs	r5, r4, r5, lsr #21
 80002fe:	bfb8      	it	lt
 8000300:	426d      	neglt	r5, r5
 8000302:	dd0c      	ble.n	800031e <__adddf3+0x52>
 8000304:	442c      	add	r4, r5
 8000306:	ea80 0202 	eor.w	r2, r0, r2
 800030a:	ea81 0303 	eor.w	r3, r1, r3
 800030e:	ea82 0000 	eor.w	r0, r2, r0
 8000312:	ea83 0101 	eor.w	r1, r3, r1
 8000316:	ea80 0202 	eor.w	r2, r0, r2
 800031a:	ea81 0303 	eor.w	r3, r1, r3
 800031e:	2d36      	cmp	r5, #54	; 0x36
 8000320:	bf88      	it	hi
 8000322:	bd30      	pophi	{r4, r5, pc}
 8000324:	f011 4f00 	tst.w	r1, #2147483648	; 0x80000000
 8000328:	ea4f 3101 	mov.w	r1, r1, lsl #12
 800032c:	f44f 1c80 	mov.w	ip, #1048576	; 0x100000
 8000330:	ea4c 3111 	orr.w	r1, ip, r1, lsr #12
 8000334:	d002      	beq.n	800033c <__adddf3+0x70>
 8000336:	4240      	negs	r0, r0
 8000338:	eb61 0141 	sbc.w	r1, r1, r1, lsl #1
 800033c:	f013 4f00 	tst.w	r3, #2147483648	; 0x80000000
 8000340:	ea4f 3303 	mov.w	r3, r3, lsl #12
 8000344:	ea4c 3313 	orr.w	r3, ip, r3, lsr #12
 8000348:	d002      	beq.n	8000350 <__adddf3+0x84>
 800034a:	4252      	negs	r2, r2
 800034c:	eb63 0343 	sbc.w	r3, r3, r3, lsl #1
 8000350:	ea94 0f05 	teq	r4, r5
 8000354:	f000 80a7 	beq.w	80004a6 <__adddf3+0x1da>
 8000358:	f1a4 0401 	sub.w	r4, r4, #1
 800035c:	f1d5 0e20 	rsbs	lr, r5, #32
 8000360:	db0d      	blt.n	800037e <__adddf3+0xb2>
 8000362:	fa02 fc0e 	lsl.w	ip, r2, lr
 8000366:	fa22 f205 	lsr.w	r2, r2, r5
 800036a:	1880      	adds	r0, r0, r2
 800036c:	f141 0100 	adc.w	r1, r1, #0
 8000370:	fa03 f20e 	lsl.w	r2, r3, lr
 8000374:	1880      	adds	r0, r0, r2
 8000376:	fa43 f305 	asr.w	r3, r3, r5
 800037a:	4159      	adcs	r1, r3
 800037c:	e00e      	b.n	800039c <__adddf3+0xd0>
 800037e:	f1a5 0520 	sub.w	r5, r5, #32
 8000382:	f10e 0e20 	add.w	lr, lr, #32
 8000386:	2a01      	cmp	r2, #1
 8000388:	fa03 fc0e 	lsl.w	ip, r3, lr
 800038c:	bf28      	it	cs
 800038e:	f04c 0c02 	orrcs.w	ip, ip, #2
 8000392:	fa43 f305 	asr.w	r3, r3, r5
 8000396:	18c0      	adds	r0, r0, r3
 8000398:	eb51 71e3 	adcs.w	r1, r1, r3, asr #31
 800039c:	f001 4500 	and.w	r5, r1, #2147483648	; 0x80000000
 80003a0:	d507      	bpl.n	80003b2 <__adddf3+0xe6>
 80003a2:	f04f 0e00 	mov.w	lr, #0
 80003a6:	f1dc 0c00 	rsbs	ip, ip, #0
 80003aa:	eb7e 0000 	sbcs.w	r0, lr, r0
 80003ae:	eb6e 0101 	sbc.w	r1, lr, r1
 80003b2:	f5b1 1f80 	cmp.w	r1, #1048576	; 0x100000
 80003b6:	d31b      	bcc.n	80003f0 <__adddf3+0x124>
 80003b8:	f5b1 1f00 	cmp.w	r1, #2097152	; 0x200000
 80003bc:	d30c      	bcc.n	80003d8 <__adddf3+0x10c>
 80003be:	0849      	lsrs	r1, r1, #1
 80003c0:	ea5f 0030 	movs.w	r0, r0, rrx
 80003c4:	ea4f 0c3c 	mov.w	ip, ip, rrx
 80003c8:	f104 0401 	add.w	r4, r4, #1
 80003cc:	ea4f 5244 	mov.w	r2, r4, lsl #21
 80003d0:	f512 0f80 	cmn.w	r2, #4194304	; 0x400000
 80003d4:	f080 809a 	bcs.w	800050c <__adddf3+0x240>
 80003d8:	f1bc 4f00 	cmp.w	ip, #2147483648	; 0x80000000
 80003dc:	bf08      	it	eq
 80003de:	ea5f 0c50 	movseq.w	ip, r0, lsr #1
 80003e2:	f150 0000 	adcs.w	r0, r0, #0
 80003e6:	eb41 5104 	adc.w	r1, r1, r4, lsl #20
 80003ea:	ea41 0105 	orr.w	r1, r1, r5
 80003ee:	bd30      	pop	{r4, r5, pc}
 80003f0:	ea5f 0c4c 	movs.w	ip, ip, lsl #1
 80003f4:	4140      	adcs	r0, r0
 80003f6:	eb41 0101 	adc.w	r1, r1, r1
 80003fa:	3c01      	subs	r4, #1
 80003fc:	bf28      	it	cs
 80003fe:	f5b1 1f80 	cmpcs.w	r1, #1048576	; 0x100000
 8000402:	d2e9      	bcs.n	80003d8 <__adddf3+0x10c>
 8000404:	f091 0f00 	teq	r1, #0
 8000408:	bf04      	itt	eq
 800040a:	4601      	moveq	r1, r0
 800040c:	2000      	moveq	r0, #0
 800040e:	fab1 f381 	clz	r3, r1
 8000412:	bf08      	it	eq
 8000414:	3320      	addeq	r3, #32
 8000416:	f1a3 030b 	sub.w	r3, r3, #11
 800041a:	f1b3 0220 	subs.w	r2, r3, #32
 800041e:	da0c      	bge.n	800043a <__adddf3+0x16e>
 8000420:	320c      	adds	r2, #12
 8000422:	dd08      	ble.n	8000436 <__adddf3+0x16a>
 8000424:	f102 0c14 	add.w	ip, r2, #20
 8000428:	f1c2 020c 	rsb	r2, r2, #12
 800042c:	fa01 f00c 	lsl.w	r0, r1, ip
 8000430:	fa21 f102 	lsr.w	r1, r1, r2
 8000434:	e00c      	b.n	8000450 <__adddf3+0x184>
 8000436:	f102 0214 	add.w	r2, r2, #20
 800043a:	bfd8      	it	le
 800043c:	f1c2 0c20 	rsble	ip, r2, #32
 8000440:	fa01 f102 	lsl.w	r1, r1, r2
 8000444:	fa20 fc0c 	lsr.w	ip, r0, ip
 8000448:	bfdc      	itt	le
 800044a:	ea41 010c 	orrle.w	r1, r1, ip
 800044e:	4090      	lslle	r0, r2
 8000450:	1ae4      	subs	r4, r4, r3
 8000452:	bfa2      	ittt	ge
 8000454:	eb01 5104 	addge.w	r1, r1, r4, lsl #20
 8000458:	4329      	orrge	r1, r5
 800045a:	bd30      	popge	{r4, r5, pc}
 800045c:	ea6f 0404 	mvn.w	r4, r4
 8000460:	3c1f      	subs	r4, #31
 8000462:	da1c      	bge.n	800049e <__adddf3+0x1d2>
 8000464:	340c      	adds	r4, #12
 8000466:	dc0e      	bgt.n	8000486 <__adddf3+0x1ba>
 8000468:	f104 0414 	add.w	r4, r4, #20
 800046c:	f1c4 0220 	rsb	r2, r4, #32
 8000470:	fa20 f004 	lsr.w	r0, r0, r4
 8000474:	fa01 f302 	lsl.w	r3, r1, r2
 8000478:	ea40 0003 	orr.w	r0, r0, r3
 800047c:	fa21 f304 	lsr.w	r3, r1, r4
 8000480:	ea45 0103 	orr.w	r1, r5, r3
 8000484:	bd30      	pop	{r4, r5, pc}
 8000486:	f1c4 040c 	rsb	r4, r4, #12
 800048a:	f1c4 0220 	rsb	r2, r4, #32
 800048e:	fa20 f002 	lsr.w	r0, r0, r2
 8000492:	fa01 f304 	lsl.w	r3, r1, r4
 8000496:	ea40 0003 	orr.w	r0, r0, r3
 800049a:	4629      	mov	r1, r5
 800049c:	bd30      	pop	{r4, r5, pc}
 800049e:	fa21 f004 	lsr.w	r0, r1, r4
 80004a2:	4629      	mov	r1, r5
 80004a4:	bd30      	pop	{r4, r5, pc}
 80004a6:	f094 0f00 	teq	r4, #0
 80004aa:	f483 1380 	eor.w	r3, r3, #1048576	; 0x100000
 80004ae:	bf06      	itte	eq
 80004b0:	f481 1180 	eoreq.w	r1, r1, #1048576	; 0x100000
 80004b4:	3401      	addeq	r4, #1
 80004b6:	3d01      	subne	r5, #1
 80004b8:	e74e      	b.n	8000358 <__adddf3+0x8c>
 80004ba:	ea7f 5c64 	mvns.w	ip, r4, asr #21
 80004be:	bf18      	it	ne
 80004c0:	ea7f 5c65 	mvnsne.w	ip, r5, asr #21
 80004c4:	d029      	beq.n	800051a <__adddf3+0x24e>
 80004c6:	ea94 0f05 	teq	r4, r5
 80004ca:	bf08      	it	eq
 80004cc:	ea90 0f02 	teqeq	r0, r2
 80004d0:	d005      	beq.n	80004de <__adddf3+0x212>
 80004d2:	ea54 0c00 	orrs.w	ip, r4, r0
 80004d6:	bf04      	itt	eq
 80004d8:	4619      	moveq	r1, r3
 80004da:	4610      	moveq	r0, r2
 80004dc:	bd30      	pop	{r4, r5, pc}
 80004de:	ea91 0f03 	teq	r1, r3
 80004e2:	bf1e      	ittt	ne
 80004e4:	2100      	movne	r1, #0
 80004e6:	2000      	movne	r0, #0
 80004e8:	bd30      	popne	{r4, r5, pc}
 80004ea:	ea5f 5c54 	movs.w	ip, r4, lsr #21
 80004ee:	d105      	bne.n	80004fc <__adddf3+0x230>
 80004f0:	0040      	lsls	r0, r0, #1
 80004f2:	4149      	adcs	r1, r1
 80004f4:	bf28      	it	cs
 80004f6:	f041 4100 	orrcs.w	r1, r1, #2147483648	; 0x80000000
 80004fa:	bd30      	pop	{r4, r5, pc}
 80004fc:	f514 0480 	adds.w	r4, r4, #4194304	; 0x400000
 8000500:	bf3c      	itt	cc
 8000502:	f501 1180 	addcc.w	r1, r1, #1048576	; 0x100000
 8000506:	bd30      	popcc	{r4, r5, pc}
 8000508:	f001 4500 	and.w	r5, r1, #2147483648	; 0x80000000
 800050c:	f045 41fe 	orr.w	r1, r5, #2130706432	; 0x7f000000
 8000510:	f441 0170 	orr.w	r1, r1, #15728640	; 0xf00000
 8000514:	f04f 0000 	mov.w	r0, #0
 8000518:	bd30      	pop	{r4, r5, pc}
 800051a:	ea7f 5c64 	mvns.w	ip, r4, asr #21
 800051e:	bf1a      	itte	ne
 8000520:	4619      	movne	r1, r3
 8000522:	4610      	movne	r0, r2
 8000524:	ea7f 5c65 	mvnseq.w	ip, r5, asr #21
 8000528:	bf1c      	itt	ne
 800052a:	460b      	movne	r3, r1
 800052c:	4602      	movne	r2, r0
 800052e:	ea50 3401 	orrs.w	r4, r0, r1, lsl #12
 8000532:	bf06      	itte	eq
 8000534:	ea52 3503 	orrseq.w	r5, r2, r3, lsl #12
 8000538:	ea91 0f03 	teqeq	r1, r3
 800053c:	f441 2100 	orrne.w	r1, r1, #524288	; 0x80000
 8000540:	bd30      	pop	{r4, r5, pc}
 8000542:	bf00      	nop

08000544 <__aeabi_ui2d>:
 8000544:	f090 0f00 	teq	r0, #0
 8000548:	bf04      	itt	eq
 800054a:	2100      	moveq	r1, #0
 800054c:	4770      	bxeq	lr
 800054e:	b530      	push	{r4, r5, lr}
 8000550:	f44f 6480 	mov.w	r4, #1024	; 0x400
 8000554:	f104 0432 	add.w	r4, r4, #50	; 0x32
 8000558:	f04f 0500 	mov.w	r5, #0
 800055c:	f04f 0100 	mov.w	r1, #0
 8000560:	e750      	b.n	8000404 <__adddf3+0x138>
 8000562:	bf00      	nop

08000564 <__aeabi_i2d>:
 8000564:	f090 0f00 	teq	r0, #0
 8000568:	bf04      	itt	eq
 800056a:	2100      	moveq	r1, #0
 800056c:	4770      	bxeq	lr
 800056e:	b530      	push	{r4, r5, lr}
 8000570:	f44f 6480 	mov.w	r4, #1024	; 0x400
 8000574:	f104 0432 	add.w	r4, r4, #50	; 0x32
 8000578:	f010 4500 	ands.w	r5, r0, #2147483648	; 0x80000000
 800057c:	bf48      	it	mi
 800057e:	4240      	negmi	r0, r0
 8000580:	f04f 0100 	mov.w	r1, #0
 8000584:	e73e      	b.n	8000404 <__adddf3+0x138>
 8000586:	bf00      	nop

08000588 <__aeabi_f2d>:
 8000588:	0042      	lsls	r2, r0, #1
 800058a:	ea4f 01e2 	mov.w	r1, r2, asr #3
 800058e:	ea4f 0131 	mov.w	r1, r1, rrx
 8000592:	ea4f 7002 	mov.w	r0, r2, lsl #28
 8000596:	bf1f      	itttt	ne
 8000598:	f012 437f 	andsne.w	r3, r2, #4278190080	; 0xff000000
 800059c:	f093 4f7f 	teqne	r3, #4278190080	; 0xff000000
 80005a0:	f081 5160 	eorne.w	r1, r1, #939524096	; 0x38000000
 80005a4:	4770      	bxne	lr
 80005a6:	f032 427f 	bics.w	r2, r2, #4278190080	; 0xff000000
 80005aa:	bf08      	it	eq
 80005ac:	4770      	bxeq	lr
 80005ae:	f093 4f7f 	teq	r3, #4278190080	; 0xff000000
 80005b2:	bf04      	itt	eq
 80005b4:	f441 2100 	orreq.w	r1, r1, #524288	; 0x80000
 80005b8:	4770      	bxeq	lr
 80005ba:	b530      	push	{r4, r5, lr}
 80005bc:	f44f 7460 	mov.w	r4, #896	; 0x380
 80005c0:	f001 4500 	and.w	r5, r1, #2147483648	; 0x80000000
 80005c4:	f021 4100 	bic.w	r1, r1, #2147483648	; 0x80000000
 80005c8:	e71c      	b.n	8000404 <__adddf3+0x138>
 80005ca:	bf00      	nop

080005cc <__aeabi_ul2d>:
 80005cc:	ea50 0201 	orrs.w	r2, r0, r1
 80005d0:	bf08      	it	eq
 80005d2:	4770      	bxeq	lr
 80005d4:	b530      	push	{r4, r5, lr}
 80005d6:	f04f 0500 	mov.w	r5, #0
 80005da:	e00a      	b.n	80005f2 <__aeabi_l2d+0x16>

080005dc <__aeabi_l2d>:
 80005dc:	ea50 0201 	orrs.w	r2, r0, r1
 80005e0:	bf08      	it	eq
 80005e2:	4770      	bxeq	lr
 80005e4:	b530      	push	{r4, r5, lr}
 80005e6:	f011 4500 	ands.w	r5, r1, #2147483648	; 0x80000000
 80005ea:	d502      	bpl.n	80005f2 <__aeabi_l2d+0x16>
 80005ec:	4240      	negs	r0, r0
 80005ee:	eb61 0141 	sbc.w	r1, r1, r1, lsl #1
 80005f2:	f44f 6480 	mov.w	r4, #1024	; 0x400
 80005f6:	f104 0432 	add.w	r4, r4, #50	; 0x32
 80005fa:	ea5f 5c91 	movs.w	ip, r1, lsr #22
 80005fe:	f43f aed8 	beq.w	80003b2 <__adddf3+0xe6>
 8000602:	f04f 0203 	mov.w	r2, #3
 8000606:	ea5f 0cdc 	movs.w	ip, ip, lsr #3
 800060a:	bf18      	it	ne
 800060c:	3203      	addne	r2, #3
 800060e:	ea5f 0cdc 	movs.w	ip, ip, lsr #3
 8000612:	bf18      	it	ne
 8000614:	3203      	addne	r2, #3
 8000616:	eb02 02dc 	add.w	r2, r2, ip, lsr #3
 800061a:	f1c2 0320 	rsb	r3, r2, #32
 800061e:	fa00 fc03 	lsl.w	ip, r0, r3
 8000622:	fa20 f002 	lsr.w	r0, r0, r2
 8000626:	fa01 fe03 	lsl.w	lr, r1, r3
 800062a:	ea40 000e 	orr.w	r0, r0, lr
 800062e:	fa21 f102 	lsr.w	r1, r1, r2
 8000632:	4414      	add	r4, r2
 8000634:	e6bd      	b.n	80003b2 <__adddf3+0xe6>
 8000636:	bf00      	nop

08000638 <__aeabi_dmul>:
 8000638:	b570      	push	{r4, r5, r6, lr}
 800063a:	f04f 0cff 	mov.w	ip, #255	; 0xff
 800063e:	f44c 6ce0 	orr.w	ip, ip, #1792	; 0x700
 8000642:	ea1c 5411 	ands.w	r4, ip, r1, lsr #20
 8000646:	bf1d      	ittte	ne
 8000648:	ea1c 5513 	andsne.w	r5, ip, r3, lsr #20
 800064c:	ea94 0f0c 	teqne	r4, ip
 8000650:	ea95 0f0c 	teqne	r5, ip
 8000654:	f000 f8de 	bleq	8000814 <__aeabi_dmul+0x1dc>
 8000658:	442c      	add	r4, r5
 800065a:	ea81 0603 	eor.w	r6, r1, r3
 800065e:	ea21 514c 	bic.w	r1, r1, ip, lsl #21
 8000662:	ea23 534c 	bic.w	r3, r3, ip, lsl #21
 8000666:	ea50 3501 	orrs.w	r5, r0, r1, lsl #12
 800066a:	bf18      	it	ne
 800066c:	ea52 3503 	orrsne.w	r5, r2, r3, lsl #12
 8000670:	f441 1180 	orr.w	r1, r1, #1048576	; 0x100000
 8000674:	f443 1380 	orr.w	r3, r3, #1048576	; 0x100000
 8000678:	d038      	beq.n	80006ec <__aeabi_dmul+0xb4>
 800067a:	fba0 ce02 	umull	ip, lr, r0, r2
 800067e:	f04f 0500 	mov.w	r5, #0
 8000682:	fbe1 e502 	umlal	lr, r5, r1, r2
 8000686:	f006 4200 	and.w	r2, r6, #2147483648	; 0x80000000
 800068a:	fbe0 e503 	umlal	lr, r5, r0, r3
 800068e:	f04f 0600 	mov.w	r6, #0
 8000692:	fbe1 5603 	umlal	r5, r6, r1, r3
 8000696:	f09c 0f00 	teq	ip, #0
 800069a:	bf18      	it	ne
 800069c:	f04e 0e01 	orrne.w	lr, lr, #1
 80006a0:	f1a4 04ff 	sub.w	r4, r4, #255	; 0xff
 80006a4:	f5b6 7f00 	cmp.w	r6, #512	; 0x200
 80006a8:	f564 7440 	sbc.w	r4, r4, #768	; 0x300
 80006ac:	d204      	bcs.n	80006b8 <__aeabi_dmul+0x80>
 80006ae:	ea5f 0e4e 	movs.w	lr, lr, lsl #1
 80006b2:	416d      	adcs	r5, r5
 80006b4:	eb46 0606 	adc.w	r6, r6, r6
 80006b8:	ea42 21c6 	orr.w	r1, r2, r6, lsl #11
 80006bc:	ea41 5155 	orr.w	r1, r1, r5, lsr #21
 80006c0:	ea4f 20c5 	mov.w	r0, r5, lsl #11
 80006c4:	ea40 505e 	orr.w	r0, r0, lr, lsr #21
 80006c8:	ea4f 2ece 	mov.w	lr, lr, lsl #11
 80006cc:	f1b4 0cfd 	subs.w	ip, r4, #253	; 0xfd
 80006d0:	bf88      	it	hi
 80006d2:	f5bc 6fe0 	cmphi.w	ip, #1792	; 0x700
 80006d6:	d81e      	bhi.n	8000716 <__aeabi_dmul+0xde>
 80006d8:	f1be 4f00 	cmp.w	lr, #2147483648	; 0x80000000
 80006dc:	bf08      	it	eq
 80006de:	ea5f 0e50 	movseq.w	lr, r0, lsr #1
 80006e2:	f150 0000 	adcs.w	r0, r0, #0
 80006e6:	eb41 5104 	adc.w	r1, r1, r4, lsl #20
 80006ea:	bd70      	pop	{r4, r5, r6, pc}
 80006ec:	f006 4600 	and.w	r6, r6, #2147483648	; 0x80000000
 80006f0:	ea46 0101 	orr.w	r1, r6, r1
 80006f4:	ea40 0002 	orr.w	r0, r0, r2
 80006f8:	ea81 0103 	eor.w	r1, r1, r3
 80006fc:	ebb4 045c 	subs.w	r4, r4, ip, lsr #1
 8000700:	bfc2      	ittt	gt
 8000702:	ebd4 050c 	rsbsgt	r5, r4, ip
 8000706:	ea41 5104 	orrgt.w	r1, r1, r4, lsl #20
 800070a:	bd70      	popgt	{r4, r5, r6, pc}
 800070c:	f441 1180 	orr.w	r1, r1, #1048576	; 0x100000
 8000710:	f04f 0e00 	mov.w	lr, #0
 8000714:	3c01      	subs	r4, #1
 8000716:	f300 80ab 	bgt.w	8000870 <__aeabi_dmul+0x238>
 800071a:	f114 0f36 	cmn.w	r4, #54	; 0x36
 800071e:	bfde      	ittt	le
 8000720:	2000      	movle	r0, #0
 8000722:	f001 4100 	andle.w	r1, r1, #2147483648	; 0x80000000
 8000726:	bd70      	pople	{r4, r5, r6, pc}
 8000728:	f1c4 0400 	rsb	r4, r4, #0
 800072c:	3c20      	subs	r4, #32
 800072e:	da35      	bge.n	800079c <__aeabi_dmul+0x164>
 8000730:	340c      	adds	r4, #12
 8000732:	dc1b      	bgt.n	800076c <__aeabi_dmul+0x134>
 8000734:	f104 0414 	add.w	r4, r4, #20
 8000738:	f1c4 0520 	rsb	r5, r4, #32
 800073c:	fa00 f305 	lsl.w	r3, r0, r5
 8000740:	fa20 f004 	lsr.w	r0, r0, r4
 8000744:	fa01 f205 	lsl.w	r2, r1, r5
 8000748:	ea40 0002 	orr.w	r0, r0, r2
 800074c:	f001 4200 	and.w	r2, r1, #2147483648	; 0x80000000
 8000750:	f021 4100 	bic.w	r1, r1, #2147483648	; 0x80000000
 8000754:	eb10 70d3 	adds.w	r0, r0, r3, lsr #31
 8000758:	fa21 f604 	lsr.w	r6, r1, r4
 800075c:	eb42 0106 	adc.w	r1, r2, r6
 8000760:	ea5e 0e43 	orrs.w	lr, lr, r3, lsl #1
 8000764:	bf08      	it	eq
 8000766:	ea20 70d3 	biceq.w	r0, r0, r3, lsr #31
 800076a:	bd70      	pop	{r4, r5, r6, pc}
 800076c:	f1c4 040c 	rsb	r4, r4, #12
 8000770:	f1c4 0520 	rsb	r5, r4, #32
 8000774:	fa00 f304 	lsl.w	r3, r0, r4
 8000778:	fa20 f005 	lsr.w	r0, r0, r5
 800077c:	fa01 f204 	lsl.w	r2, r1, r4
 8000780:	ea40 0002 	orr.w	r0, r0, r2
 8000784:	f001 4100 	and.w	r1, r1, #2147483648	; 0x80000000
 8000788:	eb10 70d3 	adds.w	r0, r0, r3, lsr #31
 800078c:	f141 0100 	adc.w	r1, r1, #0
 8000790:	ea5e 0e43 	orrs.w	lr, lr, r3, lsl #1
 8000794:	bf08      	it	eq
 8000796:	ea20 70d3 	biceq.w	r0, r0, r3, lsr #31
 800079a:	bd70      	pop	{r4, r5, r6, pc}
 800079c:	f1c4 0520 	rsb	r5, r4, #32
 80007a0:	fa00 f205 	lsl.w	r2, r0, r5
 80007a4:	ea4e 0e02 	orr.w	lr, lr, r2
 80007a8:	fa20 f304 	lsr.w	r3, r0, r4
 80007ac:	fa01 f205 	lsl.w	r2, r1, r5
 80007b0:	ea43 0302 	orr.w	r3, r3, r2
 80007b4:	fa21 f004 	lsr.w	r0, r1, r4
 80007b8:	f001 4100 	and.w	r1, r1, #2147483648	; 0x80000000
 80007bc:	fa21 f204 	lsr.w	r2, r1, r4
 80007c0:	ea20 0002 	bic.w	r0, r0, r2
 80007c4:	eb00 70d3 	add.w	r0, r0, r3, lsr #31
 80007c8:	ea5e 0e43 	orrs.w	lr, lr, r3, lsl #1
 80007cc:	bf08      	it	eq
 80007ce:	ea20 70d3 	biceq.w	r0, r0, r3, lsr #31
 80007d2:	bd70      	pop	{r4, r5, r6, pc}
 80007d4:	f094 0f00 	teq	r4, #0
 80007d8:	d10f      	bne.n	80007fa <__aeabi_dmul+0x1c2>
 80007da:	f001 4600 	and.w	r6, r1, #2147483648	; 0x80000000
 80007de:	0040      	lsls	r0, r0, #1
 80007e0:	eb41 0101 	adc.w	r1, r1, r1
 80007e4:	f411 1f80 	tst.w	r1, #1048576	; 0x100000
 80007e8:	bf08      	it	eq
 80007ea:	3c01      	subeq	r4, #1
 80007ec:	d0f7      	beq.n	80007de <__aeabi_dmul+0x1a6>
 80007ee:	ea41 0106 	orr.w	r1, r1, r6
 80007f2:	f095 0f00 	teq	r5, #0
 80007f6:	bf18      	it	ne
 80007f8:	4770      	bxne	lr
 80007fa:	f003 4600 	and.w	r6, r3, #2147483648	; 0x80000000
 80007fe:	0052      	lsls	r2, r2, #1
 8000800:	eb43 0303 	adc.w	r3, r3, r3
 8000804:	f413 1f80 	tst.w	r3, #1048576	; 0x100000
 8000808:	bf08      	it	eq
 800080a:	3d01      	subeq	r5, #1
 800080c:	d0f7      	beq.n	80007fe <__aeabi_dmul+0x1c6>
 800080e:	ea43 0306 	orr.w	r3, r3, r6
 8000812:	4770      	bx	lr
 8000814:	ea94 0f0c 	teq	r4, ip
 8000818:	ea0c 5513 	and.w	r5, ip, r3, lsr #20
 800081c:	bf18      	it	ne
 800081e:	ea95 0f0c 	teqne	r5, ip
 8000822:	d00c      	beq.n	800083e <__aeabi_dmul+0x206>
 8000824:	ea50 0641 	orrs.w	r6, r0, r1, lsl #1
 8000828:	bf18      	it	ne
 800082a:	ea52 0643 	orrsne.w	r6, r2, r3, lsl #1
 800082e:	d1d1      	bne.n	80007d4 <__aeabi_dmul+0x19c>
 8000830:	ea81 0103 	eor.w	r1, r1, r3
 8000834:	f001 4100 	and.w	r1, r1, #2147483648	; 0x80000000
 8000838:	f04f 0000 	mov.w	r0, #0
 800083c:	bd70      	pop	{r4, r5, r6, pc}
 800083e:	ea50 0641 	orrs.w	r6, r0, r1, lsl #1
 8000842:	bf06      	itte	eq
 8000844:	4610      	moveq	r0, r2
 8000846:	4619      	moveq	r1, r3
 8000848:	ea52 0643 	orrsne.w	r6, r2, r3, lsl #1
 800084c:	d019      	beq.n	8000882 <__aeabi_dmul+0x24a>
 800084e:	ea94 0f0c 	teq	r4, ip
 8000852:	d102      	bne.n	800085a <__aeabi_dmul+0x222>
 8000854:	ea50 3601 	orrs.w	r6, r0, r1, lsl #12
 8000858:	d113      	bne.n	8000882 <__aeabi_dmul+0x24a>
 800085a:	ea95 0f0c 	teq	r5, ip
 800085e:	d105      	bne.n	800086c <__aeabi_dmul+0x234>
 8000860:	ea52 3603 	orrs.w	r6, r2, r3, lsl #12
 8000864:	bf1c      	itt	ne
 8000866:	4610      	movne	r0, r2
 8000868:	4619      	movne	r1, r3
 800086a:	d10a      	bne.n	8000882 <__aeabi_dmul+0x24a>
 800086c:	ea81 0103 	eor.w	r1, r1, r3
 8000870:	f001 4100 	and.w	r1, r1, #2147483648	; 0x80000000
 8000874:	f041 41fe 	orr.w	r1, r1, #2130706432	; 0x7f000000
 8000878:	f441 0170 	orr.w	r1, r1, #15728640	; 0xf00000
 800087c:	f04f 0000 	mov.w	r0, #0
 8000880:	bd70      	pop	{r4, r5, r6, pc}
 8000882:	f041 41fe 	orr.w	r1, r1, #2130706432	; 0x7f000000
 8000886:	f441 0178 	orr.w	r1, r1, #16252928	; 0xf80000
 800088a:	bd70      	pop	{r4, r5, r6, pc}

0800088c <__aeabi_ddiv>:
 800088c:	b570      	push	{r4, r5, r6, lr}
 800088e:	f04f 0cff 	mov.w	ip, #255	; 0xff
 8000892:	f44c 6ce0 	orr.w	ip, ip, #1792	; 0x700
 8000896:	ea1c 5411 	ands.w	r4, ip, r1, lsr #20
 800089a:	bf1d      	ittte	ne
 800089c:	ea1c 5513 	andsne.w	r5, ip, r3, lsr #20
 80008a0:	ea94 0f0c 	teqne	r4, ip
 80008a4:	ea95 0f0c 	teqne	r5, ip
 80008a8:	f000 f8a7 	bleq	80009fa <__aeabi_ddiv+0x16e>
 80008ac:	eba4 0405 	sub.w	r4, r4, r5
 80008b0:	ea81 0e03 	eor.w	lr, r1, r3
 80008b4:	ea52 3503 	orrs.w	r5, r2, r3, lsl #12
 80008b8:	ea4f 3101 	mov.w	r1, r1, lsl #12
 80008bc:	f000 8088 	beq.w	80009d0 <__aeabi_ddiv+0x144>
 80008c0:	ea4f 3303 	mov.w	r3, r3, lsl #12
 80008c4:	f04f 5580 	mov.w	r5, #268435456	; 0x10000000
 80008c8:	ea45 1313 	orr.w	r3, r5, r3, lsr #4
 80008cc:	ea43 6312 	orr.w	r3, r3, r2, lsr #24
 80008d0:	ea4f 2202 	mov.w	r2, r2, lsl #8
 80008d4:	ea45 1511 	orr.w	r5, r5, r1, lsr #4
 80008d8:	ea45 6510 	orr.w	r5, r5, r0, lsr #24
 80008dc:	ea4f 2600 	mov.w	r6, r0, lsl #8
 80008e0:	f00e 4100 	and.w	r1, lr, #2147483648	; 0x80000000
 80008e4:	429d      	cmp	r5, r3
 80008e6:	bf08      	it	eq
 80008e8:	4296      	cmpeq	r6, r2
 80008ea:	f144 04fd 	adc.w	r4, r4, #253	; 0xfd
 80008ee:	f504 7440 	add.w	r4, r4, #768	; 0x300
 80008f2:	d202      	bcs.n	80008fa <__aeabi_ddiv+0x6e>
 80008f4:	085b      	lsrs	r3, r3, #1
 80008f6:	ea4f 0232 	mov.w	r2, r2, rrx
 80008fa:	1ab6      	subs	r6, r6, r2
 80008fc:	eb65 0503 	sbc.w	r5, r5, r3
 8000900:	085b      	lsrs	r3, r3, #1
 8000902:	ea4f 0232 	mov.w	r2, r2, rrx
 8000906:	f44f 1080 	mov.w	r0, #1048576	; 0x100000
 800090a:	f44f 2c00 	mov.w	ip, #524288	; 0x80000
 800090e:	ebb6 0e02 	subs.w	lr, r6, r2
 8000912:	eb75 0e03 	sbcs.w	lr, r5, r3
 8000916:	bf22      	ittt	cs
 8000918:	1ab6      	subcs	r6, r6, r2
 800091a:	4675      	movcs	r5, lr
 800091c:	ea40 000c 	orrcs.w	r0, r0, ip
 8000920:	085b      	lsrs	r3, r3, #1
 8000922:	ea4f 0232 	mov.w	r2, r2, rrx
 8000926:	ebb6 0e02 	subs.w	lr, r6, r2
 800092a:	eb75 0e03 	sbcs.w	lr, r5, r3
 800092e:	bf22      	ittt	cs
 8000930:	1ab6      	subcs	r6, r6, r2
 8000932:	4675      	movcs	r5, lr
 8000934:	ea40 005c 	orrcs.w	r0, r0, ip, lsr #1
 8000938:	085b      	lsrs	r3, r3, #1
 800093a:	ea4f 0232 	mov.w	r2, r2, rrx
 800093e:	ebb6 0e02 	subs.w	lr, r6, r2
 8000942:	eb75 0e03 	sbcs.w	lr, r5, r3
 8000946:	bf22      	ittt	cs
 8000948:	1ab6      	subcs	r6, r6, r2
 800094a:	4675      	movcs	r5, lr
 800094c:	ea40 009c 	orrcs.w	r0, r0, ip, lsr #2
 8000950:	085b      	lsrs	r3, r3, #1
 8000952:	ea4f 0232 	mov.w	r2, r2, rrx
 8000956:	ebb6 0e02 	subs.w	lr, r6, r2
 800095a:	eb75 0e03 	sbcs.w	lr, r5, r3
 800095e:	bf22      	ittt	cs
 8000960:	1ab6      	subcs	r6, r6, r2
 8000962:	4675      	movcs	r5, lr
 8000964:	ea40 00dc 	orrcs.w	r0, r0, ip, lsr #3
 8000968:	ea55 0e06 	orrs.w	lr, r5, r6
 800096c:	d018      	beq.n	80009a0 <__aeabi_ddiv+0x114>
 800096e:	ea4f 1505 	mov.w	r5, r5, lsl #4
 8000972:	ea45 7516 	orr.w	r5, r5, r6, lsr #28
 8000976:	ea4f 1606 	mov.w	r6, r6, lsl #4
 800097a:	ea4f 03c3 	mov.w	r3, r3, lsl #3
 800097e:	ea43 7352 	orr.w	r3, r3, r2, lsr #29
 8000982:	ea4f 02c2 	mov.w	r2, r2, lsl #3
 8000986:	ea5f 1c1c 	movs.w	ip, ip, lsr #4
 800098a:	d1c0      	bne.n	800090e <__aeabi_ddiv+0x82>
 800098c:	f411 1f80 	tst.w	r1, #1048576	; 0x100000
 8000990:	d10b      	bne.n	80009aa <__aeabi_ddiv+0x11e>
 8000992:	ea41 0100 	orr.w	r1, r1, r0
 8000996:	f04f 0000 	mov.w	r0, #0
 800099a:	f04f 4c00 	mov.w	ip, #2147483648	; 0x80000000
 800099e:	e7b6      	b.n	800090e <__aeabi_ddiv+0x82>
 80009a0:	f411 1f80 	tst.w	r1, #1048576	; 0x100000
 80009a4:	bf04      	itt	eq
 80009a6:	4301      	orreq	r1, r0
 80009a8:	2000      	moveq	r0, #0
 80009aa:	f1b4 0cfd 	subs.w	ip, r4, #253	; 0xfd
 80009ae:	bf88      	it	hi
 80009b0:	f5bc 6fe0 	cmphi.w	ip, #1792	; 0x700
 80009b4:	f63f aeaf 	bhi.w	8000716 <__aeabi_dmul+0xde>
 80009b8:	ebb5 0c03 	subs.w	ip, r5, r3
 80009bc:	bf04      	itt	eq
 80009be:	ebb6 0c02 	subseq.w	ip, r6, r2
 80009c2:	ea5f 0c50 	movseq.w	ip, r0, lsr #1
 80009c6:	f150 0000 	adcs.w	r0, r0, #0
 80009ca:	eb41 5104 	adc.w	r1, r1, r4, lsl #20
 80009ce:	bd70      	pop	{r4, r5, r6, pc}
 80009d0:	f00e 4e00 	and.w	lr, lr, #2147483648	; 0x80000000
 80009d4:	ea4e 3111 	orr.w	r1, lr, r1, lsr #12
 80009d8:	eb14 045c 	adds.w	r4, r4, ip, lsr #1
 80009dc:	bfc2      	ittt	gt
 80009de:	ebd4 050c 	rsbsgt	r5, r4, ip
 80009e2:	ea41 5104 	orrgt.w	r1, r1, r4, lsl #20
 80009e6:	bd70      	popgt	{r4, r5, r6, pc}
 80009e8:	f441 1180 	orr.w	r1, r1, #1048576	; 0x100000
 80009ec:	f04f 0e00 	mov.w	lr, #0
 80009f0:	3c01      	subs	r4, #1
 80009f2:	e690      	b.n	8000716 <__aeabi_dmul+0xde>
 80009f4:	ea45 0e06 	orr.w	lr, r5, r6
 80009f8:	e68d      	b.n	8000716 <__aeabi_dmul+0xde>
 80009fa:	ea0c 5513 	and.w	r5, ip, r3, lsr #20
 80009fe:	ea94 0f0c 	teq	r4, ip
 8000a02:	bf08      	it	eq
 8000a04:	ea95 0f0c 	teqeq	r5, ip
 8000a08:	f43f af3b 	beq.w	8000882 <__aeabi_dmul+0x24a>
 8000a0c:	ea94 0f0c 	teq	r4, ip
 8000a10:	d10a      	bne.n	8000a28 <__aeabi_ddiv+0x19c>
 8000a12:	ea50 3401 	orrs.w	r4, r0, r1, lsl #12
 8000a16:	f47f af34 	bne.w	8000882 <__aeabi_dmul+0x24a>
 8000a1a:	ea95 0f0c 	teq	r5, ip
 8000a1e:	f47f af25 	bne.w	800086c <__aeabi_dmul+0x234>
 8000a22:	4610      	mov	r0, r2
 8000a24:	4619      	mov	r1, r3
 8000a26:	e72c      	b.n	8000882 <__aeabi_dmul+0x24a>
 8000a28:	ea95 0f0c 	teq	r5, ip
 8000a2c:	d106      	bne.n	8000a3c <__aeabi_ddiv+0x1b0>
 8000a2e:	ea52 3503 	orrs.w	r5, r2, r3, lsl #12
 8000a32:	f43f aefd 	beq.w	8000830 <__aeabi_dmul+0x1f8>
 8000a36:	4610      	mov	r0, r2
 8000a38:	4619      	mov	r1, r3
 8000a3a:	e722      	b.n	8000882 <__aeabi_dmul+0x24a>
 8000a3c:	ea50 0641 	orrs.w	r6, r0, r1, lsl #1
 8000a40:	bf18      	it	ne
 8000a42:	ea52 0643 	orrsne.w	r6, r2, r3, lsl #1
 8000a46:	f47f aec5 	bne.w	80007d4 <__aeabi_dmul+0x19c>
 8000a4a:	ea50 0441 	orrs.w	r4, r0, r1, lsl #1
 8000a4e:	f47f af0d 	bne.w	800086c <__aeabi_dmul+0x234>
 8000a52:	ea52 0543 	orrs.w	r5, r2, r3, lsl #1
 8000a56:	f47f aeeb 	bne.w	8000830 <__aeabi_dmul+0x1f8>
 8000a5a:	e712      	b.n	8000882 <__aeabi_dmul+0x24a>

08000a5c <__gedf2>:
 8000a5c:	f04f 3cff 	mov.w	ip, #4294967295	; 0xffffffff
 8000a60:	e006      	b.n	8000a70 <__cmpdf2+0x4>
 8000a62:	bf00      	nop

08000a64 <__ledf2>:
 8000a64:	f04f 0c01 	mov.w	ip, #1
 8000a68:	e002      	b.n	8000a70 <__cmpdf2+0x4>
 8000a6a:	bf00      	nop

08000a6c <__cmpdf2>:
 8000a6c:	f04f 0c01 	mov.w	ip, #1
 8000a70:	f84d cd04 	str.w	ip, [sp, #-4]!
 8000a74:	ea4f 0c41 	mov.w	ip, r1, lsl #1
 8000a78:	ea7f 5c6c 	mvns.w	ip, ip, asr #21
 8000a7c:	ea4f 0c43 	mov.w	ip, r3, lsl #1
 8000a80:	bf18      	it	ne
 8000a82:	ea7f 5c6c 	mvnsne.w	ip, ip, asr #21
 8000a86:	d01b      	beq.n	8000ac0 <__cmpdf2+0x54>
 8000a88:	b001      	add	sp, #4
 8000a8a:	ea50 0c41 	orrs.w	ip, r0, r1, lsl #1
 8000a8e:	bf0c      	ite	eq
 8000a90:	ea52 0c43 	orrseq.w	ip, r2, r3, lsl #1
 8000a94:	ea91 0f03 	teqne	r1, r3
 8000a98:	bf02      	ittt	eq
 8000a9a:	ea90 0f02 	teqeq	r0, r2
 8000a9e:	2000      	moveq	r0, #0
 8000aa0:	4770      	bxeq	lr
 8000aa2:	f110 0f00 	cmn.w	r0, #0
 8000aa6:	ea91 0f03 	teq	r1, r3
 8000aaa:	bf58      	it	pl
 8000aac:	4299      	cmppl	r1, r3
 8000aae:	bf08      	it	eq
 8000ab0:	4290      	cmpeq	r0, r2
 8000ab2:	bf2c      	ite	cs
 8000ab4:	17d8      	asrcs	r0, r3, #31
 8000ab6:	ea6f 70e3 	mvncc.w	r0, r3, asr #31
 8000aba:	f040 0001 	orr.w	r0, r0, #1
 8000abe:	4770      	bx	lr
 8000ac0:	ea4f 0c41 	mov.w	ip, r1, lsl #1
 8000ac4:	ea7f 5c6c 	mvns.w	ip, ip, asr #21
 8000ac8:	d102      	bne.n	8000ad0 <__cmpdf2+0x64>
 8000aca:	ea50 3c01 	orrs.w	ip, r0, r1, lsl #12
 8000ace:	d107      	bne.n	8000ae0 <__cmpdf2+0x74>
 8000ad0:	ea4f 0c43 	mov.w	ip, r3, lsl #1
 8000ad4:	ea7f 5c6c 	mvns.w	ip, ip, asr #21
 8000ad8:	d1d6      	bne.n	8000a88 <__cmpdf2+0x1c>
 8000ada:	ea52 3c03 	orrs.w	ip, r2, r3, lsl #12
 8000ade:	d0d3      	beq.n	8000a88 <__cmpdf2+0x1c>
 8000ae0:	f85d 0b04 	ldr.w	r0, [sp], #4
 8000ae4:	4770      	bx	lr
 8000ae6:	bf00      	nop

08000ae8 <__aeabi_cdrcmple>:
 8000ae8:	4684      	mov	ip, r0
 8000aea:	4610      	mov	r0, r2
 8000aec:	4662      	mov	r2, ip
 8000aee:	468c      	mov	ip, r1
 8000af0:	4619      	mov	r1, r3
 8000af2:	4663      	mov	r3, ip
 8000af4:	e000      	b.n	8000af8 <__aeabi_cdcmpeq>
 8000af6:	bf00      	nop

08000af8 <__aeabi_cdcmpeq>:
 8000af8:	b501      	push	{r0, lr}
 8000afa:	f7ff ffb7 	bl	8000a6c <__cmpdf2>
 8000afe:	2800      	cmp	r0, #0
 8000b00:	bf48      	it	mi
 8000b02:	f110 0f00 	cmnmi.w	r0, #0
 8000b06:	bd01      	pop	{r0, pc}

08000b08 <__aeabi_dcmpeq>:
 8000b08:	f84d ed08 	str.w	lr, [sp, #-8]!
 8000b0c:	f7ff fff4 	bl	8000af8 <__aeabi_cdcmpeq>
 8000b10:	bf0c      	ite	eq
 8000b12:	2001      	moveq	r0, #1
 8000b14:	2000      	movne	r0, #0
 8000b16:	f85d fb08 	ldr.w	pc, [sp], #8
 8000b1a:	bf00      	nop

08000b1c <__aeabi_dcmplt>:
 8000b1c:	f84d ed08 	str.w	lr, [sp, #-8]!
 8000b20:	f7ff ffea 	bl	8000af8 <__aeabi_cdcmpeq>
 8000b24:	bf34      	ite	cc
 8000b26:	2001      	movcc	r0, #1
 8000b28:	2000      	movcs	r0, #0
 8000b2a:	f85d fb08 	ldr.w	pc, [sp], #8
 8000b2e:	bf00      	nop

08000b30 <__aeabi_dcmple>:
 8000b30:	f84d ed08 	str.w	lr, [sp, #-8]!
 8000b34:	f7ff ffe0 	bl	8000af8 <__aeabi_cdcmpeq>
 8000b38:	bf94      	ite	ls
 8000b3a:	2001      	movls	r0, #1
 8000b3c:	2000      	movhi	r0, #0
 8000b3e:	f85d fb08 	ldr.w	pc, [sp], #8
 8000b42:	bf00      	nop

08000b44 <__aeabi_dcmpge>:
 8000b44:	f84d ed08 	str.w	lr, [sp, #-8]!
 8000b48:	f7ff ffce 	bl	8000ae8 <__aeabi_cdrcmple>
 8000b4c:	bf94      	ite	ls
 8000b4e:	2001      	movls	r0, #1
 8000b50:	2000      	movhi	r0, #0
 8000b52:	f85d fb08 	ldr.w	pc, [sp], #8
 8000b56:	bf00      	nop

08000b58 <__aeabi_dcmpgt>:
 8000b58:	f84d ed08 	str.w	lr, [sp, #-8]!
 8000b5c:	f7ff ffc4 	bl	8000ae8 <__aeabi_cdrcmple>
 8000b60:	bf34      	ite	cc
 8000b62:	2001      	movcc	r0, #1
 8000b64:	2000      	movcs	r0, #0
 8000b66:	f85d fb08 	ldr.w	pc, [sp], #8
 8000b6a:	bf00      	nop

08000b6c <__aeabi_dcmpun>:
 8000b6c:	ea4f 0c41 	mov.w	ip, r1, lsl #1
 8000b70:	ea7f 5c6c 	mvns.w	ip, ip, asr #21
 8000b74:	d102      	bne.n	8000b7c <__aeabi_dcmpun+0x10>
 8000b76:	ea50 3c01 	orrs.w	ip, r0, r1, lsl #12
 8000b7a:	d10a      	bne.n	8000b92 <__aeabi_dcmpun+0x26>
 8000b7c:	ea4f 0c43 	mov.w	ip, r3, lsl #1
 8000b80:	ea7f 5c6c 	mvns.w	ip, ip, asr #21
 8000b84:	d102      	bne.n	8000b8c <__aeabi_dcmpun+0x20>
 8000b86:	ea52 3c03 	orrs.w	ip, r2, r3, lsl #12
 8000b8a:	d102      	bne.n	8000b92 <__aeabi_dcmpun+0x26>
 8000b8c:	f04f 0000 	mov.w	r0, #0
 8000b90:	4770      	bx	lr
 8000b92:	f04f 0001 	mov.w	r0, #1
 8000b96:	4770      	bx	lr

08000b98 <__aeabi_d2iz>:
 8000b98:	ea4f 0241 	mov.w	r2, r1, lsl #1
 8000b9c:	f512 1200 	adds.w	r2, r2, #2097152	; 0x200000
 8000ba0:	d215      	bcs.n	8000bce <__aeabi_d2iz+0x36>
 8000ba2:	d511      	bpl.n	8000bc8 <__aeabi_d2iz+0x30>
 8000ba4:	f46f 7378 	mvn.w	r3, #992	; 0x3e0
 8000ba8:	ebb3 5262 	subs.w	r2, r3, r2, asr #21
 8000bac:	d912      	bls.n	8000bd4 <__aeabi_d2iz+0x3c>
 8000bae:	ea4f 23c1 	mov.w	r3, r1, lsl #11
 8000bb2:	f043 4300 	orr.w	r3, r3, #2147483648	; 0x80000000
 8000bb6:	ea43 5350 	orr.w	r3, r3, r0, lsr #21
 8000bba:	f011 4f00 	tst.w	r1, #2147483648	; 0x80000000
 8000bbe:	fa23 f002 	lsr.w	r0, r3, r2
 8000bc2:	bf18      	it	ne
 8000bc4:	4240      	negne	r0, r0
 8000bc6:	4770      	bx	lr
 8000bc8:	f04f 0000 	mov.w	r0, #0
 8000bcc:	4770      	bx	lr
 8000bce:	ea50 3001 	orrs.w	r0, r0, r1, lsl #12
 8000bd2:	d105      	bne.n	8000be0 <__aeabi_d2iz+0x48>
 8000bd4:	f011 4000 	ands.w	r0, r1, #2147483648	; 0x80000000
 8000bd8:	bf08      	it	eq
 8000bda:	f06f 4000 	mvneq.w	r0, #2147483648	; 0x80000000
 8000bde:	4770      	bx	lr
 8000be0:	f04f 0000 	mov.w	r0, #0
 8000be4:	4770      	bx	lr
 8000be6:	bf00      	nop

08000be8 <__aeabi_uldivmod>:
 8000be8:	b953      	cbnz	r3, 8000c00 <__aeabi_uldivmod+0x18>
 8000bea:	b94a      	cbnz	r2, 8000c00 <__aeabi_uldivmod+0x18>
 8000bec:	2900      	cmp	r1, #0
 8000bee:	bf08      	it	eq
 8000bf0:	2800      	cmpeq	r0, #0
 8000bf2:	bf1c      	itt	ne
 8000bf4:	f04f 31ff 	movne.w	r1, #4294967295	; 0xffffffff
 8000bf8:	f04f 30ff 	movne.w	r0, #4294967295	; 0xffffffff
 8000bfc:	f000 b96e 	b.w	8000edc <__aeabi_idiv0>
 8000c00:	f1ad 0c08 	sub.w	ip, sp, #8
 8000c04:	e96d ce04 	strd	ip, lr, [sp, #-16]!
 8000c08:	f000 f806 	bl	8000c18 <__udivmoddi4>
 8000c0c:	f8dd e004 	ldr.w	lr, [sp, #4]
 8000c10:	e9dd 2302 	ldrd	r2, r3, [sp, #8]
 8000c14:	b004      	add	sp, #16
 8000c16:	4770      	bx	lr

08000c18 <__udivmoddi4>:
 8000c18:	e92d 47f0 	stmdb	sp!, {r4, r5, r6, r7, r8, r9, sl, lr}
 8000c1c:	9d08      	ldr	r5, [sp, #32]
 8000c1e:	4604      	mov	r4, r0
 8000c20:	468c      	mov	ip, r1
 8000c22:	2b00      	cmp	r3, #0
 8000c24:	f040 8083 	bne.w	8000d2e <__udivmoddi4+0x116>
 8000c28:	428a      	cmp	r2, r1
 8000c2a:	4617      	mov	r7, r2
 8000c2c:	d947      	bls.n	8000cbe <__udivmoddi4+0xa6>
 8000c2e:	fab2 f282 	clz	r2, r2
 8000c32:	b142      	cbz	r2, 8000c46 <__udivmoddi4+0x2e>
 8000c34:	f1c2 0020 	rsb	r0, r2, #32
 8000c38:	fa24 f000 	lsr.w	r0, r4, r0
 8000c3c:	4091      	lsls	r1, r2
 8000c3e:	4097      	lsls	r7, r2
 8000c40:	ea40 0c01 	orr.w	ip, r0, r1
 8000c44:	4094      	lsls	r4, r2
 8000c46:	ea4f 4817 	mov.w	r8, r7, lsr #16
 8000c4a:	0c23      	lsrs	r3, r4, #16
 8000c4c:	fbbc f6f8 	udiv	r6, ip, r8
 8000c50:	fa1f fe87 	uxth.w	lr, r7
 8000c54:	fb08 c116 	mls	r1, r8, r6, ip
 8000c58:	ea43 4301 	orr.w	r3, r3, r1, lsl #16
 8000c5c:	fb06 f10e 	mul.w	r1, r6, lr
 8000c60:	4299      	cmp	r1, r3
 8000c62:	d909      	bls.n	8000c78 <__udivmoddi4+0x60>
 8000c64:	18fb      	adds	r3, r7, r3
 8000c66:	f106 30ff 	add.w	r0, r6, #4294967295	; 0xffffffff
 8000c6a:	f080 8119 	bcs.w	8000ea0 <__udivmoddi4+0x288>
 8000c6e:	4299      	cmp	r1, r3
 8000c70:	f240 8116 	bls.w	8000ea0 <__udivmoddi4+0x288>
 8000c74:	3e02      	subs	r6, #2
 8000c76:	443b      	add	r3, r7
 8000c78:	1a5b      	subs	r3, r3, r1
 8000c7a:	b2a4      	uxth	r4, r4
 8000c7c:	fbb3 f0f8 	udiv	r0, r3, r8
 8000c80:	fb08 3310 	mls	r3, r8, r0, r3
 8000c84:	ea44 4403 	orr.w	r4, r4, r3, lsl #16
 8000c88:	fb00 fe0e 	mul.w	lr, r0, lr
 8000c8c:	45a6      	cmp	lr, r4
 8000c8e:	d909      	bls.n	8000ca4 <__udivmoddi4+0x8c>
 8000c90:	193c      	adds	r4, r7, r4
 8000c92:	f100 33ff 	add.w	r3, r0, #4294967295	; 0xffffffff
 8000c96:	f080 8105 	bcs.w	8000ea4 <__udivmoddi4+0x28c>
 8000c9a:	45a6      	cmp	lr, r4
 8000c9c:	f240 8102 	bls.w	8000ea4 <__udivmoddi4+0x28c>
 8000ca0:	3802      	subs	r0, #2
 8000ca2:	443c      	add	r4, r7
 8000ca4:	ea40 4006 	orr.w	r0, r0, r6, lsl #16
 8000ca8:	eba4 040e 	sub.w	r4, r4, lr
 8000cac:	2600      	movs	r6, #0
 8000cae:	b11d      	cbz	r5, 8000cb8 <__udivmoddi4+0xa0>
 8000cb0:	40d4      	lsrs	r4, r2
 8000cb2:	2300      	movs	r3, #0
 8000cb4:	e9c5 4300 	strd	r4, r3, [r5]
 8000cb8:	4631      	mov	r1, r6
 8000cba:	e8bd 87f0 	ldmia.w	sp!, {r4, r5, r6, r7, r8, r9, sl, pc}
 8000cbe:	b902      	cbnz	r2, 8000cc2 <__udivmoddi4+0xaa>
 8000cc0:	deff      	udf	#255	; 0xff
 8000cc2:	fab2 f282 	clz	r2, r2
 8000cc6:	2a00      	cmp	r2, #0
 8000cc8:	d150      	bne.n	8000d6c <__udivmoddi4+0x154>
 8000cca:	1bcb      	subs	r3, r1, r7
 8000ccc:	ea4f 4e17 	mov.w	lr, r7, lsr #16
 8000cd0:	fa1f f887 	uxth.w	r8, r7
 8000cd4:	2601      	movs	r6, #1
 8000cd6:	fbb3 fcfe 	udiv	ip, r3, lr
 8000cda:	0c21      	lsrs	r1, r4, #16
 8000cdc:	fb0e 331c 	mls	r3, lr, ip, r3
 8000ce0:	ea41 4103 	orr.w	r1, r1, r3, lsl #16
 8000ce4:	fb08 f30c 	mul.w	r3, r8, ip
 8000ce8:	428b      	cmp	r3, r1
 8000cea:	d907      	bls.n	8000cfc <__udivmoddi4+0xe4>
 8000cec:	1879      	adds	r1, r7, r1
 8000cee:	f10c 30ff 	add.w	r0, ip, #4294967295	; 0xffffffff
 8000cf2:	d202      	bcs.n	8000cfa <__udivmoddi4+0xe2>
 8000cf4:	428b      	cmp	r3, r1
 8000cf6:	f200 80e9 	bhi.w	8000ecc <__udivmoddi4+0x2b4>
 8000cfa:	4684      	mov	ip, r0
 8000cfc:	1ac9      	subs	r1, r1, r3
 8000cfe:	b2a3      	uxth	r3, r4
 8000d00:	fbb1 f0fe 	udiv	r0, r1, lr
 8000d04:	fb0e 1110 	mls	r1, lr, r0, r1
 8000d08:	ea43 4401 	orr.w	r4, r3, r1, lsl #16
 8000d0c:	fb08 f800 	mul.w	r8, r8, r0
 8000d10:	45a0      	cmp	r8, r4
 8000d12:	d907      	bls.n	8000d24 <__udivmoddi4+0x10c>
 8000d14:	193c      	adds	r4, r7, r4
 8000d16:	f100 33ff 	add.w	r3, r0, #4294967295	; 0xffffffff
 8000d1a:	d202      	bcs.n	8000d22 <__udivmoddi4+0x10a>
 8000d1c:	45a0      	cmp	r8, r4
 8000d1e:	f200 80d9 	bhi.w	8000ed4 <__udivmoddi4+0x2bc>
 8000d22:	4618      	mov	r0, r3
 8000d24:	eba4 0408 	sub.w	r4, r4, r8
 8000d28:	ea40 400c 	orr.w	r0, r0, ip, lsl #16
 8000d2c:	e7bf      	b.n	8000cae <__udivmoddi4+0x96>
 8000d2e:	428b      	cmp	r3, r1
 8000d30:	d909      	bls.n	8000d46 <__udivmoddi4+0x12e>
 8000d32:	2d00      	cmp	r5, #0
 8000d34:	f000 80b1 	beq.w	8000e9a <__udivmoddi4+0x282>
 8000d38:	2600      	movs	r6, #0
 8000d3a:	e9c5 0100 	strd	r0, r1, [r5]
 8000d3e:	4630      	mov	r0, r6
 8000d40:	4631      	mov	r1, r6
 8000d42:	e8bd 87f0 	ldmia.w	sp!, {r4, r5, r6, r7, r8, r9, sl, pc}
 8000d46:	fab3 f683 	clz	r6, r3
 8000d4a:	2e00      	cmp	r6, #0
 8000d4c:	d14a      	bne.n	8000de4 <__udivmoddi4+0x1cc>
 8000d4e:	428b      	cmp	r3, r1
 8000d50:	d302      	bcc.n	8000d58 <__udivmoddi4+0x140>
 8000d52:	4282      	cmp	r2, r0
 8000d54:	f200 80b8 	bhi.w	8000ec8 <__udivmoddi4+0x2b0>
 8000d58:	1a84      	subs	r4, r0, r2
 8000d5a:	eb61 0103 	sbc.w	r1, r1, r3
 8000d5e:	2001      	movs	r0, #1
 8000d60:	468c      	mov	ip, r1
 8000d62:	2d00      	cmp	r5, #0
 8000d64:	d0a8      	beq.n	8000cb8 <__udivmoddi4+0xa0>
 8000d66:	e9c5 4c00 	strd	r4, ip, [r5]
 8000d6a:	e7a5      	b.n	8000cb8 <__udivmoddi4+0xa0>
 8000d6c:	f1c2 0320 	rsb	r3, r2, #32
 8000d70:	fa20 f603 	lsr.w	r6, r0, r3
 8000d74:	4097      	lsls	r7, r2
 8000d76:	fa01 f002 	lsl.w	r0, r1, r2
 8000d7a:	ea4f 4e17 	mov.w	lr, r7, lsr #16
 8000d7e:	40d9      	lsrs	r1, r3
 8000d80:	4330      	orrs	r0, r6
 8000d82:	0c03      	lsrs	r3, r0, #16
 8000d84:	fbb1 f6fe 	udiv	r6, r1, lr
 8000d88:	fa1f f887 	uxth.w	r8, r7
 8000d8c:	fb0e 1116 	mls	r1, lr, r6, r1
 8000d90:	ea43 4301 	orr.w	r3, r3, r1, lsl #16
 8000d94:	fb06 f108 	mul.w	r1, r6, r8
 8000d98:	4299      	cmp	r1, r3
 8000d9a:	fa04 f402 	lsl.w	r4, r4, r2
 8000d9e:	d909      	bls.n	8000db4 <__udivmoddi4+0x19c>
 8000da0:	18fb      	adds	r3, r7, r3
 8000da2:	f106 3cff 	add.w	ip, r6, #4294967295	; 0xffffffff
 8000da6:	f080 808d 	bcs.w	8000ec4 <__udivmoddi4+0x2ac>
 8000daa:	4299      	cmp	r1, r3
 8000dac:	f240 808a 	bls.w	8000ec4 <__udivmoddi4+0x2ac>
 8000db0:	3e02      	subs	r6, #2
 8000db2:	443b      	add	r3, r7
 8000db4:	1a5b      	subs	r3, r3, r1
 8000db6:	b281      	uxth	r1, r0
 8000db8:	fbb3 f0fe 	udiv	r0, r3, lr
 8000dbc:	fb0e 3310 	mls	r3, lr, r0, r3
 8000dc0:	ea41 4103 	orr.w	r1, r1, r3, lsl #16
 8000dc4:	fb00 f308 	mul.w	r3, r0, r8
 8000dc8:	428b      	cmp	r3, r1
 8000dca:	d907      	bls.n	8000ddc <__udivmoddi4+0x1c4>
 8000dcc:	1879      	adds	r1, r7, r1
 8000dce:	f100 3cff 	add.w	ip, r0, #4294967295	; 0xffffffff
 8000dd2:	d273      	bcs.n	8000ebc <__udivmoddi4+0x2a4>
 8000dd4:	428b      	cmp	r3, r1
 8000dd6:	d971      	bls.n	8000ebc <__udivmoddi4+0x2a4>
 8000dd8:	3802      	subs	r0, #2
 8000dda:	4439      	add	r1, r7
 8000ddc:	1acb      	subs	r3, r1, r3
 8000dde:	ea40 4606 	orr.w	r6, r0, r6, lsl #16
 8000de2:	e778      	b.n	8000cd6 <__udivmoddi4+0xbe>
 8000de4:	f1c6 0c20 	rsb	ip, r6, #32
 8000de8:	fa03 f406 	lsl.w	r4, r3, r6
 8000dec:	fa22 f30c 	lsr.w	r3, r2, ip
 8000df0:	431c      	orrs	r4, r3
 8000df2:	fa20 f70c 	lsr.w	r7, r0, ip
 8000df6:	fa01 f306 	lsl.w	r3, r1, r6
 8000dfa:	ea4f 4e14 	mov.w	lr, r4, lsr #16
 8000dfe:	fa21 f10c 	lsr.w	r1, r1, ip
 8000e02:	431f      	orrs	r7, r3
 8000e04:	0c3b      	lsrs	r3, r7, #16
 8000e06:	fbb1 f9fe 	udiv	r9, r1, lr
 8000e0a:	fa1f f884 	uxth.w	r8, r4
 8000e0e:	fb0e 1119 	mls	r1, lr, r9, r1
 8000e12:	ea43 4101 	orr.w	r1, r3, r1, lsl #16
 8000e16:	fb09 fa08 	mul.w	sl, r9, r8
 8000e1a:	458a      	cmp	sl, r1
 8000e1c:	fa02 f206 	lsl.w	r2, r2, r6
 8000e20:	fa00 f306 	lsl.w	r3, r0, r6
 8000e24:	d908      	bls.n	8000e38 <__udivmoddi4+0x220>
 8000e26:	1861      	adds	r1, r4, r1
 8000e28:	f109 30ff 	add.w	r0, r9, #4294967295	; 0xffffffff
 8000e2c:	d248      	bcs.n	8000ec0 <__udivmoddi4+0x2a8>
 8000e2e:	458a      	cmp	sl, r1
 8000e30:	d946      	bls.n	8000ec0 <__udivmoddi4+0x2a8>
 8000e32:	f1a9 0902 	sub.w	r9, r9, #2
 8000e36:	4421      	add	r1, r4
 8000e38:	eba1 010a 	sub.w	r1, r1, sl
 8000e3c:	b2bf      	uxth	r7, r7
 8000e3e:	fbb1 f0fe 	udiv	r0, r1, lr
 8000e42:	fb0e 1110 	mls	r1, lr, r0, r1
 8000e46:	ea47 4701 	orr.w	r7, r7, r1, lsl #16
 8000e4a:	fb00 f808 	mul.w	r8, r0, r8
 8000e4e:	45b8      	cmp	r8, r7
 8000e50:	d907      	bls.n	8000e62 <__udivmoddi4+0x24a>
 8000e52:	19e7      	adds	r7, r4, r7
 8000e54:	f100 31ff 	add.w	r1, r0, #4294967295	; 0xffffffff
 8000e58:	d22e      	bcs.n	8000eb8 <__udivmoddi4+0x2a0>
 8000e5a:	45b8      	cmp	r8, r7
 8000e5c:	d92c      	bls.n	8000eb8 <__udivmoddi4+0x2a0>
 8000e5e:	3802      	subs	r0, #2
 8000e60:	4427      	add	r7, r4
 8000e62:	ea40 4009 	orr.w	r0, r0, r9, lsl #16
 8000e66:	eba7 0708 	sub.w	r7, r7, r8
 8000e6a:	fba0 8902 	umull	r8, r9, r0, r2
 8000e6e:	454f      	cmp	r7, r9
 8000e70:	46c6      	mov	lr, r8
 8000e72:	4649      	mov	r1, r9
 8000e74:	d31a      	bcc.n	8000eac <__udivmoddi4+0x294>
 8000e76:	d017      	beq.n	8000ea8 <__udivmoddi4+0x290>
 8000e78:	b15d      	cbz	r5, 8000e92 <__udivmoddi4+0x27a>
 8000e7a:	ebb3 020e 	subs.w	r2, r3, lr
 8000e7e:	eb67 0701 	sbc.w	r7, r7, r1
 8000e82:	fa07 fc0c 	lsl.w	ip, r7, ip
 8000e86:	40f2      	lsrs	r2, r6
 8000e88:	ea4c 0202 	orr.w	r2, ip, r2
 8000e8c:	40f7      	lsrs	r7, r6
 8000e8e:	e9c5 2700 	strd	r2, r7, [r5]
 8000e92:	2600      	movs	r6, #0
 8000e94:	4631      	mov	r1, r6
 8000e96:	e8bd 87f0 	ldmia.w	sp!, {r4, r5, r6, r7, r8, r9, sl, pc}
 8000e9a:	462e      	mov	r6, r5
 8000e9c:	4628      	mov	r0, r5
 8000e9e:	e70b      	b.n	8000cb8 <__udivmoddi4+0xa0>
 8000ea0:	4606      	mov	r6, r0
 8000ea2:	e6e9      	b.n	8000c78 <__udivmoddi4+0x60>
 8000ea4:	4618      	mov	r0, r3
 8000ea6:	e6fd      	b.n	8000ca4 <__udivmoddi4+0x8c>
 8000ea8:	4543      	cmp	r3, r8
 8000eaa:	d2e5      	bcs.n	8000e78 <__udivmoddi4+0x260>
 8000eac:	ebb8 0e02 	subs.w	lr, r8, r2
 8000eb0:	eb69 0104 	sbc.w	r1, r9, r4
 8000eb4:	3801      	subs	r0, #1
 8000eb6:	e7df      	b.n	8000e78 <__udivmoddi4+0x260>
 8000eb8:	4608      	mov	r0, r1
 8000eba:	e7d2      	b.n	8000e62 <__udivmoddi4+0x24a>
 8000ebc:	4660      	mov	r0, ip
 8000ebe:	e78d      	b.n	8000ddc <__udivmoddi4+0x1c4>
 8000ec0:	4681      	mov	r9, r0
 8000ec2:	e7b9      	b.n	8000e38 <__udivmoddi4+0x220>
 8000ec4:	4666      	mov	r6, ip
 8000ec6:	e775      	b.n	8000db4 <__udivmoddi4+0x19c>
 8000ec8:	4630      	mov	r0, r6
 8000eca:	e74a      	b.n	8000d62 <__udivmoddi4+0x14a>
 8000ecc:	f1ac 0c02 	sub.w	ip, ip, #2
 8000ed0:	4439      	add	r1, r7
 8000ed2:	e713      	b.n	8000cfc <__udivmoddi4+0xe4>
 8000ed4:	3802      	subs	r0, #2
 8000ed6:	443c      	add	r4, r7
 8000ed8:	e724      	b.n	8000d24 <__udivmoddi4+0x10c>
 8000eda:	bf00      	nop

08000edc <__aeabi_idiv0>:
 8000edc:	4770      	bx	lr
 8000ede:	bf00      	nop

08000ee0 <getLogisticRegression>:
*
* @author Miranda Meza Cesar
* CREATION DATE: NOVEMBER 19, 2021
* LAST UPDATE: DECEMBER 04, 2021
*/
void getLogisticRegression(double *X, double *Y, int n, int m, int p, char isVariableOptimizer, double *b) {
 8000ee0:	e92d 4ff0 	stmdb	sp!, {r4, r5, r6, r7, r8, r9, sl, fp, lr}
 8000ee4:	b095      	sub	sp, #84	; 0x54
 8000ee6:	460c      	mov	r4, r1
	// If the machine learning features are less than the value of one, then emit an error message and terminate the program. Otherwise, continue with the program.
	if (m < 1) {
 8000ee8:	f1b3 0a00 	subs.w	sl, r3, #0
void getLogisticRegression(double *X, double *Y, int n, int m, int p, char isVariableOptimizer, double *b) {
 8000eec:	9920      	ldr	r1, [sp, #128]	; 0x80
 8000eee:	9204      	str	r2, [sp, #16]
 8000ef0:	9005      	str	r0, [sp, #20]
 8000ef2:	9a1e      	ldr	r2, [sp, #120]	; 0x78
 8000ef4:	9113      	str	r1, [sp, #76]	; 0x4c
	if (m < 1) {
 8000ef6:	f340 8217 	ble.w	8001328 <getLogisticRegression+0x448>
		printf("\nERROR: The machine learning features (independent variables) must be equal or greater than 1 for this particular algorithm.\n");
		exit(1);
	}
	// If the samples are less than the number of machine learning features, then emit an error message and terminate the program. Otherwise, continue with the program.
	if (n < m) {
 8000efa:	9b04      	ldr	r3, [sp, #16]
 8000efc:	459a      	cmp	sl, r3
 8000efe:	f300 822f 	bgt.w	8001360 <getLogisticRegression+0x480>
		printf("\nERROR: The number of samples provided must be equal or higher than the number of machine learning features (independent variables) for this particular algorithm.\n");
		exit(1);
	}
	// If the output of the system under study is different than the value of one, then emit an error message and terminate the program. Otherwise, continue with the program.
	if (p != 1) {
 8000f02:	2a01      	cmp	r2, #1
 8000f04:	f040 8226 	bne.w	8001354 <getLogisticRegression+0x474>
 8000f08:	461a      	mov	r2, r3
	// Store the data that must be contained in the input matrix "X_tilde". In addition, we obtain the transpose of "X_tilde".
	int currentRowTimesMplusOne; // This variable is used to store a repetitive multiplication in some for-loops, for performance purposes.
	int currentRowTimesM; // This variable is used to store a repetitive multiplication in some for-loops, for performance purposes.
	int currentRowAndColumn; // This variable is used to store a repetitive mathematical operations in some for-loops, for performance purposes.
	int mPlusOne = m+1; //This variable is used to store a repetitive matheamtical operation, for performance purposes.
	double *Y_tilde = (double *) malloc(n*p*sizeof(double)); // This variable will contain the output data of the system under study ("Y") as required by the training of this algorithm.
 8000f0a:	ea4f 0bc2 	mov.w	fp, r2, lsl #3
	int mPlusOne = m+1; //This variable is used to store a repetitive matheamtical operation, for performance purposes.
 8000f0e:	f10a 0301 	add.w	r3, sl, #1
 8000f12:	9302      	str	r3, [sp, #8]
	double *Y_tilde = (double *) malloc(n*p*sizeof(double)); // This variable will contain the output data of the system under study ("Y") as required by the training of this algorithm.
 8000f14:	4658      	mov	r0, fp
	double *X_tilde = (double *) malloc(n*mPlusOne*sizeof(double)); // This variable will contain the input data of the system under study ("X") and an additional first row with values of "1".
 8000f16:	fb03 f302 	mul.w	r3, r3, r2
 8000f1a:	00dd      	lsls	r5, r3, #3
 8000f1c:	9311      	str	r3, [sp, #68]	; 0x44
	double *Y_tilde = (double *) malloc(n*p*sizeof(double)); // This variable will contain the output data of the system under study ("Y") as required by the training of this algorithm.
 8000f1e:	f001 fd8b 	bl	8002a38 <malloc>
 8000f22:	4603      	mov	r3, r0
	double *X_tilde = (double *) malloc(n*mPlusOne*sizeof(double)); // This variable will contain the input data of the system under study ("X") and an additional first row with values of "1".
 8000f24:	4628      	mov	r0, r5
	double *Y_tilde = (double *) malloc(n*p*sizeof(double)); // This variable will contain the output data of the system under study ("Y") as required by the training of this algorithm.
 8000f26:	461e      	mov	r6, r3
 8000f28:	9310      	str	r3, [sp, #64]	; 0x40
	double *X_tilde = (double *) malloc(n*mPlusOne*sizeof(double)); // This variable will contain the input data of the system under study ("X") and an additional first row with values of "1".
 8000f2a:	f001 fd85 	bl	8002a38 <malloc>
 8000f2e:	4603      	mov	r3, r0
	double *TransposeOf_X_tilde = (double *) malloc(mPlusOne*n*sizeof(double)); // We allocate the memory required for the local pointer variable that will contain the input data from which the desired machine learning method will be calcualted.
 8000f30:	4628      	mov	r0, r5
	double *X_tilde = (double *) malloc(n*mPlusOne*sizeof(double)); // This variable will contain the input data of the system under study ("X") and an additional first row with values of "1".
 8000f32:	9308      	str	r3, [sp, #32]
 8000f34:	461d      	mov	r5, r3
	double *TransposeOf_X_tilde = (double *) malloc(mPlusOne*n*sizeof(double)); // We allocate the memory required for the local pointer variable that will contain the input data from which the desired machine learning method will be calcualted.
 8000f36:	f001 fd7f 	bl	8002a38 <malloc>
 8000f3a:	ea4f 02ca 	mov.w	r2, sl, lsl #3
 8000f3e:	f102 0308 	add.w	r3, r2, #8
 8000f42:	4601      	mov	r1, r0
 8000f44:	930d      	str	r3, [sp, #52]	; 0x34
 8000f46:	9b05      	ldr	r3, [sp, #20]
		currentRowTimesM = currentRow*m;
		X_tilde[currentRowTimesMplusOne] = 1;
		TransposeOf_X_tilde[currentColumn2] = X_tilde[currentRowTimesMplusOne];
		for (int currentColumn=1; currentColumn<mPlusOne; currentColumn++) {
			currentRowAndColumn = currentColumn + currentRowTimesMplusOne;
			X_tilde[currentRowAndColumn] = X[currentColumn-1 + currentRowTimesM];
 8000f48:	9600      	str	r6, [sp, #0]
 8000f4a:	f04f 0900 	mov.w	r9, #0
 8000f4e:	4459      	add	r1, fp
 8000f50:	eb03 06ca 	add.w	r6, r3, sl, lsl #3
 8000f54:	f8cd a01c 	str.w	sl, [sp, #28]
	double *TransposeOf_X_tilde = (double *) malloc(mPlusOne*n*sizeof(double)); // We allocate the memory required for the local pointer variable that will contain the input data from which the desired machine learning method will be calcualted.
 8000f58:	9003      	str	r0, [sp, #12]
	for (int currentRow=0; currentRow<n; currentRow++) {
 8000f5a:	9206      	str	r2, [sp, #24]
 8000f5c:	9401      	str	r4, [sp, #4]
 8000f5e:	f105 0808 	add.w	r8, r5, #8
	int currentColumn2 = 0; // This variable is used in the for-loop for the matrix transpose that will be made.
 8000f62:	464f      	mov	r7, r9
 8000f64:	468a      	mov	sl, r1
		if (Y[currentRow] <= 0) {
 8000f66:	9b01      	ldr	r3, [sp, #4]
 8000f68:	e8f3 4502 	ldrd	r4, r5, [r3], #8
 8000f6c:	2200      	movs	r2, #0
 8000f6e:	9301      	str	r3, [sp, #4]
 8000f70:	4620      	mov	r0, r4
 8000f72:	2300      	movs	r3, #0
 8000f74:	4629      	mov	r1, r5
 8000f76:	f7ff fddb 	bl	8000b30 <__aeabi_dcmple>
 8000f7a:	2800      	cmp	r0, #0
 8000f7c:	f040 81e2 	bne.w	8001344 <getLogisticRegression+0x464>
		if (Y[currentRow] >= 1) {
 8000f80:	4ba7      	ldr	r3, [pc, #668]	; (8001220 <getLogisticRegression+0x340>)
 8000f82:	2200      	movs	r2, #0
 8000f84:	4620      	mov	r0, r4
 8000f86:	4629      	mov	r1, r5
 8000f88:	f7ff fddc 	bl	8000b44 <__aeabi_dcmpge>
 8000f8c:	2800      	cmp	r0, #0
 8000f8e:	f040 81d1 	bne.w	8001334 <getLogisticRegression+0x454>
		Y_tilde[currentRow] = log(Y[currentRow]/(1-Y[currentRow]));
 8000f92:	4622      	mov	r2, r4
 8000f94:	462b      	mov	r3, r5
 8000f96:	49a2      	ldr	r1, [pc, #648]	; (8001220 <getLogisticRegression+0x340>)
 8000f98:	2000      	movs	r0, #0
 8000f9a:	f7ff f995 	bl	80002c8 <__aeabi_dsub>
 8000f9e:	4602      	mov	r2, r0
 8000fa0:	460b      	mov	r3, r1
 8000fa2:	4620      	mov	r0, r4
 8000fa4:	4629      	mov	r1, r5
 8000fa6:	f7ff fc71 	bl	800088c <__aeabi_ddiv>
 8000faa:	ec41 0b10 	vmov	d0, r0, r1
 8000fae:	f004 fab3 	bl	8005518 <log>
 8000fb2:	9b05      	ldr	r3, [sp, #20]
 8000fb4:	9a06      	ldr	r2, [sp, #24]
 8000fb6:	eb03 04c9 	add.w	r4, r3, r9, lsl #3
 8000fba:	9b00      	ldr	r3, [sp, #0]
 8000fbc:	eca3 0b02 	vstmia	r3!, {d0}
		X_tilde[currentRowTimesMplusOne] = 1;
 8000fc0:	ed9f 7b95 	vldr	d7, [pc, #596]	; 8001218 <getLogisticRegression+0x338>
		Y_tilde[currentRow] = log(Y[currentRow]/(1-Y[currentRow]));
 8000fc4:	9300      	str	r3, [sp, #0]
		TransposeOf_X_tilde[currentColumn2] = X_tilde[currentRowTimesMplusOne];
 8000fc6:	9b03      	ldr	r3, [sp, #12]
 8000fc8:	eb03 03c7 	add.w	r3, r3, r7, lsl #3
 8000fcc:	ed83 7b00 	vstr	d7, [r3]
		X_tilde[currentRowTimesMplusOne] = 1;
 8000fd0:	ed08 7b02 	vstr	d7, [r8, #-8]
 8000fd4:	4621      	mov	r1, r4
 8000fd6:	4640      	mov	r0, r8
 8000fd8:	f001 fd3e 	bl	8002a58 <memcpy>
		TransposeOf_X_tilde[currentColumn2] = X_tilde[currentRowTimesMplusOne];
 8000fdc:	4653      	mov	r3, sl
			X_tilde[currentRowAndColumn] = X[currentColumn-1 + currentRowTimesM];
 8000fde:	e8f4 0102 	ldrd	r0, r1, [r4], #8
		for (int currentColumn=1; currentColumn<mPlusOne; currentColumn++) {
 8000fe2:	42a6      	cmp	r6, r4
			currentRow2++;
			TransposeOf_X_tilde[currentColumn2 + currentRow2*n] = X_tilde[currentRowAndColumn];
 8000fe4:	e9c3 0100 	strd	r0, r1, [r3]
		for (int currentColumn=1; currentColumn<mPlusOne; currentColumn++) {
 8000fe8:	445b      	add	r3, fp
 8000fea:	d1f8      	bne.n	8000fde <getLogisticRegression+0xfe>
		}
		currentColumn2++;
 8000fec:	9b07      	ldr	r3, [sp, #28]
 8000fee:	4499      	add	r9, r3
 8000ff0:	9b06      	ldr	r3, [sp, #24]
 8000ff2:	441e      	add	r6, r3
 8000ff4:	9b0d      	ldr	r3, [sp, #52]	; 0x34
 8000ff6:	4498      	add	r8, r3
	for (int currentRow=0; currentRow<n; currentRow++) {
 8000ff8:	9b04      	ldr	r3, [sp, #16]
		currentColumn2++;
 8000ffa:	3701      	adds	r7, #1
	for (int currentRow=0; currentRow<n; currentRow++) {
 8000ffc:	42bb      	cmp	r3, r7
 8000ffe:	f10a 0a08 	add.w	sl, sl, #8
 8001002:	dcb0      	bgt.n	8000f66 <getLogisticRegression+0x86>
	// -------------------- SOLUTION OF THE MODEL -------------------- //
	// In order to start obtaining the coefficients, we multiply the matrix "TransposeOf_X_tilde" with the matrix "X_tilde" and store the result in the matrix "matMul1".
	int currentColumnTimesMplusOne; // This variable is used to store a repetitive multiplication in some for-loops, for performance purposes.
	int currentRowTimesN; // This variable is used to store a repetitive multiplication in some for-loops, for performance purposes.
	int currentColumnTimesN; // This variable is used to store a repetitive multiplication in some for-loops, for performance purposes.
	double *matMul1 = (double *) calloc(mPlusOne*mPlusOne, sizeof(double)); // We allocate, and initialize with zeros, the memory required for the local pointer variable that will contain the result of making a matrix multiplication between "X_tilde" and its transpose.
 8001004:	9b02      	ldr	r3, [sp, #8]
 8001006:	f8dd a01c 	ldr.w	sl, [sp, #28]
 800100a:	2108      	movs	r1, #8
 800100c:	fb03 f003 	mul.w	r0, r3, r3
 8001010:	f001 fccc 	bl	80029ac <calloc>
 8001014:	990d      	ldr	r1, [sp, #52]	; 0x34
 8001016:	f8dd 9010 	ldr.w	r9, [sp, #16]
 800101a:	900e      	str	r0, [sp, #56]	; 0x38
 800101c:	2300      	movs	r3, #0
 800101e:	4602      	mov	r2, r0
 8001020:	9307      	str	r3, [sp, #28]
 8001022:	440a      	add	r2, r1
	for (int currentRow=0; currentRow<mPlusOne; currentRow++) {
 8001024:	9309      	str	r3, [sp, #36]	; 0x24
 8001026:	9b03      	ldr	r3, [sp, #12]
 8001028:	9012      	str	r0, [sp, #72]	; 0x48
 800102a:	9201      	str	r2, [sp, #4]
 800102c:	9305      	str	r3, [sp, #20]
	double *matMul1 = (double *) calloc(mPlusOne*mPlusOne, sizeof(double)); // We allocate, and initialize with zeros, the memory required for the local pointer variable that will contain the result of making a matrix multiplication between "X_tilde" and its transpose.
 800102e:	9300      	str	r3, [sp, #0]
 8001030:	f8cd b028 	str.w	fp, [sp, #40]	; 0x28
 8001034:	f8cd a02c 	str.w	sl, [sp, #44]	; 0x2c
		currentRowTimesMplusOne = currentRow*mPlusOne;
		currentRowTimesN = currentRow*n;
		for (int currentColumn=0; currentColumn<mPlusOne; currentColumn++) {
 8001038:	9b0e      	ldr	r3, [sp, #56]	; 0x38
 800103a:	9a07      	ldr	r2, [sp, #28]
	for (int currentRow=0; currentRow<mPlusOne; currentRow++) {
 800103c:	f04f 0b00 	mov.w	fp, #0
 8001040:	eb03 0ac2 	add.w	sl, r3, r2, lsl #3
			currentColumnTimesN = currentColumn*n;
			currentRowAndColumn = currentColumn + currentRowTimesMplusOne;
			for (int currentMultipliedElements=0; currentMultipliedElements<n; currentMultipliedElements++) {
 8001044:	9b03      	ldr	r3, [sp, #12]
	for (int currentRow=0; currentRow<mPlusOne; currentRow++) {
 8001046:	9f00      	ldr	r7, [sp, #0]
 8001048:	e8fa 4502 	ldrd	r4, r5, [sl], #8
 800104c:	eb03 08cb 	add.w	r8, r3, fp, lsl #3
			for (int currentMultipliedElements=0; currentMultipliedElements<n; currentMultipliedElements++) {
 8001050:	2600      	movs	r6, #0
				// Here we want to multiply "TransposeOf_X_tilde" with the matrix "X_tilde", but we will use "TransposeOf_X_tilde" for such multiplication since they contain the same data, for performance purposes.
				matMul1[currentRowAndColumn] = matMul1[currentRowAndColumn] + TransposeOf_X_tilde[currentMultipliedElements + currentRowTimesN] * TransposeOf_X_tilde[currentMultipliedElements + currentColumnTimesN];
 8001052:	e8f8 2302 	ldrd	r2, r3, [r8], #8
 8001056:	e8f7 0102 	ldrd	r0, r1, [r7], #8
 800105a:	f7ff faed 	bl	8000638 <__aeabi_dmul>
 800105e:	4602      	mov	r2, r0
 8001060:	460b      	mov	r3, r1
 8001062:	4620      	mov	r0, r4
 8001064:	4629      	mov	r1, r5
 8001066:	f7ff f931 	bl	80002cc <__adddf3>
			for (int currentMultipliedElements=0; currentMultipliedElements<n; currentMultipliedElements++) {
 800106a:	3601      	adds	r6, #1
 800106c:	45b1      	cmp	r9, r6
				matMul1[currentRowAndColumn] = matMul1[currentRowAndColumn] + TransposeOf_X_tilde[currentMultipliedElements + currentRowTimesN] * TransposeOf_X_tilde[currentMultipliedElements + currentColumnTimesN];
 800106e:	4604      	mov	r4, r0
 8001070:	460d      	mov	r5, r1
			for (int currentMultipliedElements=0; currentMultipliedElements<n; currentMultipliedElements++) {
 8001072:	dcee      	bgt.n	8001052 <getLogisticRegression+0x172>
		for (int currentColumn=0; currentColumn<mPlusOne; currentColumn++) {
 8001074:	9b01      	ldr	r3, [sp, #4]
 8001076:	4553      	cmp	r3, sl
 8001078:	e94a 4502 	strd	r4, r5, [sl, #-8]
 800107c:	44cb      	add	fp, r9
 800107e:	d1e1      	bne.n	8001044 <getLogisticRegression+0x164>
 8001080:	990d      	ldr	r1, [sp, #52]	; 0x34
 8001082:	461a      	mov	r2, r3
	for (int currentRow=0; currentRow<mPlusOne; currentRow++) {
 8001084:	440a      	add	r2, r1
 8001086:	9201      	str	r2, [sp, #4]
 8001088:	990a      	ldr	r1, [sp, #40]	; 0x28
 800108a:	9a00      	ldr	r2, [sp, #0]
 800108c:	9b09      	ldr	r3, [sp, #36]	; 0x24
 800108e:	440a      	add	r2, r1
 8001090:	9907      	ldr	r1, [sp, #28]
 8001092:	9200      	str	r2, [sp, #0]
 8001094:	9a02      	ldr	r2, [sp, #8]
 8001096:	3301      	adds	r3, #1
 8001098:	4608      	mov	r0, r1
 800109a:	4410      	add	r0, r2
 800109c:	4293      	cmp	r3, r2
 800109e:	9309      	str	r3, [sp, #36]	; 0x24
 80010a0:	9007      	str	r0, [sp, #28]
 80010a2:	d1c9      	bne.n	8001038 <getLogisticRegression+0x158>
 80010a4:	f8dd a02c 	ldr.w	sl, [sp, #44]	; 0x2c
	//		 resources and further increase performance by not having to
	//		 allocate more memory in the computer system.
	for (int currentRow=0; currentRow<mPlusOne; currentRow++) { // We set all values to zero.
		currentRowTimesMplusOne = currentRow*mPlusOne;
		for (int currentColumn=0; currentColumn<mPlusOne; currentColumn++) {
			TransposeOf_X_tilde[currentColumn + currentRowTimesMplusOne] = 0;
 80010a8:	9b03      	ldr	r3, [sp, #12]
	for (int currentRow=0; currentRow<mPlusOne; currentRow++) { // We set all values to zero.
 80010aa:	9e0d      	ldr	r6, [sp, #52]	; 0x34
			TransposeOf_X_tilde[currentColumn + currentRowTimesMplusOne] = 0;
 80010ac:	ea2a 75ea 	bic.w	r5, sl, sl, asr #31
 80010b0:	3501      	adds	r5, #1
 80010b2:	00ed      	lsls	r5, r5, #3
	for (int currentRow=0; currentRow<mPlusOne; currentRow++) { // We set all values to zero.
 80010b4:	2400      	movs	r4, #0
		for (int currentColumn=0; currentColumn<mPlusOne; currentColumn++) {
 80010b6:	4618      	mov	r0, r3
 80010b8:	462a      	mov	r2, r5
 80010ba:	2100      	movs	r1, #0
 80010bc:	f001 fcda 	bl	8002a74 <memset>
	for (int currentRow=0; currentRow<mPlusOne; currentRow++) { // We set all values to zero.
 80010c0:	45a2      	cmp	sl, r4
 80010c2:	4603      	mov	r3, r0
 80010c4:	4433      	add	r3, r6
 80010c6:	f104 0401 	add.w	r4, r4, #1
 80010ca:	dcf4      	bgt.n	80010b6 <getLogisticRegression+0x1d6>
 80010cc:	9806      	ldr	r0, [sp, #24]
	    }
	}
	for (int currentUnitaryValue=0; currentUnitaryValue<mPlusOne; currentUnitaryValue++) { // We set the corresponding 1's values to make the corresponding unitary matrix.
		TransposeOf_X_tilde[currentUnitaryValue + currentUnitaryValue*mPlusOne] = 1;
 80010ce:	4d54      	ldr	r5, [pc, #336]	; (8001220 <getLogisticRegression+0x340>)
	for (int currentRow=0; currentRow<mPlusOne; currentRow++) { // We set all values to zero.
 80010d0:	9903      	ldr	r1, [sp, #12]
 80010d2:	3010      	adds	r0, #16
		TransposeOf_X_tilde[currentUnitaryValue + currentUnitaryValue*mPlusOne] = 1;
 80010d4:	2400      	movs	r4, #0
 80010d6:	900f      	str	r0, [sp, #60]	; 0x3c
	for (int currentUnitaryValue=0; currentUnitaryValue<mPlusOne; currentUnitaryValue++) { // We set the corresponding 1's values to make the corresponding unitary matrix.
 80010d8:	2200      	movs	r2, #0
 80010da:	4592      	cmp	sl, r2
		TransposeOf_X_tilde[currentUnitaryValue + currentUnitaryValue*mPlusOne] = 1;
 80010dc:	e9c1 4500 	strd	r4, r5, [r1]
	for (int currentUnitaryValue=0; currentUnitaryValue<mPlusOne; currentUnitaryValue++) { // We set the corresponding 1's values to make the corresponding unitary matrix.
 80010e0:	f102 0201 	add.w	r2, r2, #1
 80010e4:	4401      	add	r1, r0
 80010e6:	dcf8      	bgt.n	80010da <getLogisticRegression+0x1fa>
 80010e8:	9b0e      	ldr	r3, [sp, #56]	; 0x38
 80010ea:	930b      	str	r3, [sp, #44]	; 0x2c
 80010ec:	e9cd 3309 	strd	r3, r3, [sp, #36]	; 0x24
 80010f0:	9b03      	ldr	r3, [sp, #12]
 80010f2:	930c      	str	r3, [sp, #48]	; 0x30
	}
	
	// In order to continue obtaining the coefficients, we calculate the matrix inverse of "matMul1" with the Gauss-Jordan approach and store its result in "TransposeOf_X_tilde".
	int currentRowAndColumn2; // This variable is used to store a repetitive mathematical operations in some for-loops, for performance purposes.
	double ratioModifier; // This variable is used to store the ratio modifier for the current row whose values will be updated due to the inverse matrix method.
	for (int currentColumn=0; currentColumn<mPlusOne; currentColumn++) { // We apply the differentiations applied to each row according to the approach used.
 80010f4:	2300      	movs	r3, #0
 80010f6:	9306      	str	r3, [sp, #24]
 80010f8:	46d3      	mov	fp, sl
 80010fa:	2300      	movs	r3, #0
		currentColumnTimesMplusOne = currentColumn*mPlusOne;
		currentRowAndColumn2 = currentColumn + currentColumnTimesMplusOne;
		for (int currentRow=0; currentRow<mPlusOne; currentRow++) {
 80010fc:	e9cd 3300 	strd	r3, r3, [sp]
 8001100:	461a      	mov	r2, r3
			if (currentRow != currentColumn) {
 8001102:	9b06      	ldr	r3, [sp, #24]
 8001104:	4293      	cmp	r3, r2
 8001106:	d043      	beq.n	8001190 <getLogisticRegression+0x2b0>
				currentRowTimesMplusOne = currentRow*mPlusOne;
				ratioModifier = matMul1[currentColumn + currentRowTimesMplusOne]/matMul1[currentRowAndColumn2];
 8001108:	9c01      	ldr	r4, [sp, #4]
 800110a:	9b0a      	ldr	r3, [sp, #40]	; 0x28
 800110c:	eb03 03c4 	add.w	r3, r3, r4, lsl #3
 8001110:	e9d3 0100 	ldrd	r0, r1, [r3]
 8001114:	9b09      	ldr	r3, [sp, #36]	; 0x24
 8001116:	e9d3 2300 	ldrd	r2, r3, [r3]
 800111a:	f7ff fbb7 	bl	800088c <__aeabi_ddiv>
 800111e:	9a0e      	ldr	r2, [sp, #56]	; 0x38
 8001120:	f8dd a02c 	ldr.w	sl, [sp, #44]	; 0x2c
 8001124:	00e3      	lsls	r3, r4, #3
 8001126:	9307      	str	r3, [sp, #28]
 8001128:	4606      	mov	r6, r0
 800112a:	460f      	mov	r7, r1
				for (int currentModifiedElements=0; currentModifiedElements<mPlusOne; currentModifiedElements++) { // We apply the current process to the principal matrix.
 800112c:	18d5      	adds	r5, r2, r3
 800112e:	2400      	movs	r4, #0
					currentRowAndColumn = currentModifiedElements + currentRowTimesMplusOne;
					matMul1[currentRowAndColumn] = matMul1[currentRowAndColumn] - ratioModifier * matMul1[currentModifiedElements + currentColumnTimesMplusOne];
 8001130:	e8fa 0102 	ldrd	r0, r1, [sl], #8
 8001134:	4632      	mov	r2, r6
 8001136:	463b      	mov	r3, r7
 8001138:	f7ff fa7e 	bl	8000638 <__aeabi_dmul>
 800113c:	e9d5 8900 	ldrd	r8, r9, [r5]
 8001140:	4602      	mov	r2, r0
 8001142:	460b      	mov	r3, r1
 8001144:	4640      	mov	r0, r8
 8001146:	4649      	mov	r1, r9
 8001148:	f7ff f8be 	bl	80002c8 <__aeabi_dsub>
				for (int currentModifiedElements=0; currentModifiedElements<mPlusOne; currentModifiedElements++) { // We apply the current process to the principal matrix.
 800114c:	45a3      	cmp	fp, r4
					matMul1[currentRowAndColumn] = matMul1[currentRowAndColumn] - ratioModifier * matMul1[currentModifiedElements + currentColumnTimesMplusOne];
 800114e:	e8e5 0102 	strd	r0, r1, [r5], #8
				for (int currentModifiedElements=0; currentModifiedElements<mPlusOne; currentModifiedElements++) { // We apply the current process to the principal matrix.
 8001152:	f104 0401 	add.w	r4, r4, #1
 8001156:	dceb      	bgt.n	8001130 <getLogisticRegression+0x250>
 8001158:	9b07      	ldr	r3, [sp, #28]
 800115a:	9a03      	ldr	r2, [sp, #12]
 800115c:	f8dd a030 	ldr.w	sl, [sp, #48]	; 0x30
 8001160:	4413      	add	r3, r2
 8001162:	4698      	mov	r8, r3
				}
				for (int currentModifiedElements=0; currentModifiedElements<mPlusOne; currentModifiedElements++) { // We apply the current process to the result matrix.
 8001164:	f04f 0900 	mov.w	r9, #0
					currentRowAndColumn = currentModifiedElements + currentRowTimesMplusOne;
					TransposeOf_X_tilde[currentRowAndColumn] = TransposeOf_X_tilde[currentRowAndColumn] - ratioModifier * TransposeOf_X_tilde[currentModifiedElements + currentColumnTimesMplusOne];
 8001168:	e8fa 0102 	ldrd	r0, r1, [sl], #8
 800116c:	4632      	mov	r2, r6
 800116e:	463b      	mov	r3, r7
 8001170:	f7ff fa62 	bl	8000638 <__aeabi_dmul>
 8001174:	e9d8 4500 	ldrd	r4, r5, [r8]
 8001178:	4602      	mov	r2, r0
 800117a:	460b      	mov	r3, r1
 800117c:	4620      	mov	r0, r4
 800117e:	4629      	mov	r1, r5
 8001180:	f7ff f8a2 	bl	80002c8 <__aeabi_dsub>
				for (int currentModifiedElements=0; currentModifiedElements<mPlusOne; currentModifiedElements++) { // We apply the current process to the result matrix.
 8001184:	45cb      	cmp	fp, r9
					TransposeOf_X_tilde[currentRowAndColumn] = TransposeOf_X_tilde[currentRowAndColumn] - ratioModifier * TransposeOf_X_tilde[currentModifiedElements + currentColumnTimesMplusOne];
 8001186:	e8e8 0102 	strd	r0, r1, [r8], #8
				for (int currentModifiedElements=0; currentModifiedElements<mPlusOne; currentModifiedElements++) { // We apply the current process to the result matrix.
 800118a:	f109 0901 	add.w	r9, r9, #1
 800118e:	dceb      	bgt.n	8001168 <getLogisticRegression+0x288>
		for (int currentRow=0; currentRow<mPlusOne; currentRow++) {
 8001190:	e9dd 3201 	ldrd	r3, r2, [sp, #4]
 8001194:	4413      	add	r3, r2
 8001196:	9a00      	ldr	r2, [sp, #0]
 8001198:	9301      	str	r3, [sp, #4]
 800119a:	4593      	cmp	fp, r2
 800119c:	f102 0301 	add.w	r3, r2, #1
 80011a0:	dd02      	ble.n	80011a8 <getLogisticRegression+0x2c8>
 80011a2:	9300      	str	r3, [sp, #0]
 80011a4:	461a      	mov	r2, r3
 80011a6:	e7ac      	b.n	8001102 <getLogisticRegression+0x222>
	for (int currentColumn=0; currentColumn<mPlusOne; currentColumn++) { // We apply the differentiations applied to each row according to the approach used.
 80011a8:	9a0c      	ldr	r2, [sp, #48]	; 0x30
 80011aa:	9b0d      	ldr	r3, [sp, #52]	; 0x34
 80011ac:	4611      	mov	r1, r2
 80011ae:	9a0b      	ldr	r2, [sp, #44]	; 0x2c
 80011b0:	4419      	add	r1, r3
 80011b2:	441a      	add	r2, r3
 80011b4:	9b0a      	ldr	r3, [sp, #40]	; 0x28
 80011b6:	920b      	str	r2, [sp, #44]	; 0x2c
 80011b8:	3308      	adds	r3, #8
 80011ba:	9a0f      	ldr	r2, [sp, #60]	; 0x3c
 80011bc:	930a      	str	r3, [sp, #40]	; 0x28
 80011be:	9b09      	ldr	r3, [sp, #36]	; 0x24
 80011c0:	910c      	str	r1, [sp, #48]	; 0x30
 80011c2:	4413      	add	r3, r2
 80011c4:	9a06      	ldr	r2, [sp, #24]
 80011c6:	9309      	str	r3, [sp, #36]	; 0x24
 80011c8:	4593      	cmp	fp, r2
 80011ca:	f102 0301 	add.w	r3, r2, #1
 80011ce:	dd01      	ble.n	80011d4 <getLogisticRegression+0x2f4>
 80011d0:	9306      	str	r3, [sp, #24]
 80011d2:	e792      	b.n	80010fa <getLogisticRegression+0x21a>
 80011d4:	46da      	mov	sl, fp
 80011d6:	f04f 0800 	mov.w	r8, #0
 80011da:	f8dd b048 	ldr.w	fp, [sp, #72]	; 0x48
				}
			}
		}
    }
	for (int currentRow=0; currentRow<mPlusOne; currentRow++) { // We apply the last step of the approach used in order to obtain the diagonal of 1's in the principal matrix.
 80011de:	46c1      	mov	r9, r8
		currentRowTimesMplusOne = currentRow*mPlusOne;
		currentRowAndColumn2 = currentRow + currentRowTimesMplusOne;
		for (int currentColumn=0; currentColumn<mPlusOne; currentColumn++) {
 80011e0:	9b03      	ldr	r3, [sp, #12]
			currentRowAndColumn = currentColumn + currentRowTimesMplusOne;
			TransposeOf_X_tilde[currentRowAndColumn] = TransposeOf_X_tilde[currentRowAndColumn] / matMul1[currentRowAndColumn2];
 80011e2:	e9db 6700 	ldrd	r6, r7, [fp]
 80011e6:	eb03 05c8 	add.w	r5, r3, r8, lsl #3
		for (int currentColumn=0; currentColumn<mPlusOne; currentColumn++) {
 80011ea:	2400      	movs	r4, #0
			TransposeOf_X_tilde[currentRowAndColumn] = TransposeOf_X_tilde[currentRowAndColumn] / matMul1[currentRowAndColumn2];
 80011ec:	e9d5 0100 	ldrd	r0, r1, [r5]
 80011f0:	4632      	mov	r2, r6
 80011f2:	463b      	mov	r3, r7
 80011f4:	f7ff fb4a 	bl	800088c <__aeabi_ddiv>
		for (int currentColumn=0; currentColumn<mPlusOne; currentColumn++) {
 80011f8:	45a2      	cmp	sl, r4
			TransposeOf_X_tilde[currentRowAndColumn] = TransposeOf_X_tilde[currentRowAndColumn] / matMul1[currentRowAndColumn2];
 80011fa:	e8e5 0102 	strd	r0, r1, [r5], #8
		for (int currentColumn=0; currentColumn<mPlusOne; currentColumn++) {
 80011fe:	f104 0401 	add.w	r4, r4, #1
 8001202:	dcf3      	bgt.n	80011ec <getLogisticRegression+0x30c>
	for (int currentRow=0; currentRow<mPlusOne; currentRow++) { // We apply the last step of the approach used in order to obtain the diagonal of 1's in the principal matrix.
 8001204:	9b0f      	ldr	r3, [sp, #60]	; 0x3c
 8001206:	449b      	add	fp, r3
 8001208:	9b02      	ldr	r3, [sp, #8]
 800120a:	45ca      	cmp	sl, r9
 800120c:	4498      	add	r8, r3
 800120e:	f109 0301 	add.w	r3, r9, #1
 8001212:	dd07      	ble.n	8001224 <getLogisticRegression+0x344>
 8001214:	4699      	mov	r9, r3
 8001216:	e7e3      	b.n	80011e0 <getLogisticRegression+0x300>
 8001218:	00000000 	.word	0x00000000
 800121c:	3ff00000 	.word	0x3ff00000
 8001220:	3ff00000 	.word	0x3ff00000
	// NOTE: Remember that we will get the data of the transpose of
	//		 "X_tilde" directly from that same variable
	//		 ("X_tilde") due to performance reasons and; that the
	//		 inverse matrix that was obtained is stored in
	//		 "TransposeOf_X_tilde".
	double *matMul2 = (double *) calloc(mPlusOne*n, sizeof(double)); // We allocate the memory required for the local pointer variable that will contain the result of making a matrix multiplication between the resulting inverse matrix of this process and the transpose of the matrix "X_tilde".
 8001224:	9811      	ldr	r0, [sp, #68]	; 0x44
 8001226:	2108      	movs	r1, #8
 8001228:	f001 fbc0 	bl	80029ac <calloc>
 800122c:	2300      	movs	r3, #0
	for (int currentRow=0; currentRow<mPlusOne; currentRow++) {
 800122e:	e9cd 0306 	strd	r0, r3, [sp, #24]
	double *matMul2 = (double *) calloc(mPlusOne*n, sizeof(double)); // We allocate the memory required for the local pointer variable that will contain the result of making a matrix multiplication between the resulting inverse matrix of this process and the transpose of the matrix "X_tilde".
 8001232:	9301      	str	r3, [sp, #4]
		currentRowTimesN = currentRow*n;
		currentRowTimesMplusOne = currentRow*mPlusOne;
		for (int currentColumn=0; currentColumn<n; currentColumn++) {
 8001234:	9b06      	ldr	r3, [sp, #24]
 8001236:	9a01      	ldr	r2, [sp, #4]
	for (int currentRow=0; currentRow<mPlusOne; currentRow++) {
 8001238:	f04f 0900 	mov.w	r9, #0
		for (int currentColumn=0; currentColumn<n; currentColumn++) {
 800123c:	f8cd 9000 	str.w	r9, [sp]
 8001240:	eb03 0bc2 	add.w	fp, r3, r2, lsl #3
			currentRowAndColumn = currentColumn + currentRowTimesN;
			currentColumnTimesMplusOne = currentColumn*mPlusOne;
			for (int currentMultipliedElements=0; currentMultipliedElements<mPlusOne; currentMultipliedElements++) {
 8001244:	9b08      	ldr	r3, [sp, #32]
		for (int currentColumn=0; currentColumn<n; currentColumn++) {
 8001246:	9f05      	ldr	r7, [sp, #20]
 8001248:	e8fb 4502 	ldrd	r4, r5, [fp], #8
 800124c:	eb03 08c9 	add.w	r8, r3, r9, lsl #3
			for (int currentMultipliedElements=0; currentMultipliedElements<mPlusOne; currentMultipliedElements++) {
 8001250:	2600      	movs	r6, #0
				matMul2[currentRowAndColumn] = matMul2[currentRowAndColumn] + TransposeOf_X_tilde[currentMultipliedElements + currentRowTimesMplusOne] * X_tilde[currentMultipliedElements + currentColumnTimesMplusOne];
 8001252:	e8f8 2302 	ldrd	r2, r3, [r8], #8
 8001256:	e8f7 0102 	ldrd	r0, r1, [r7], #8
 800125a:	f7ff f9ed 	bl	8000638 <__aeabi_dmul>
 800125e:	4602      	mov	r2, r0
 8001260:	460b      	mov	r3, r1
 8001262:	4620      	mov	r0, r4
 8001264:	4629      	mov	r1, r5
 8001266:	f7ff f831 	bl	80002cc <__adddf3>
			for (int currentMultipliedElements=0; currentMultipliedElements<mPlusOne; currentMultipliedElements++) {
 800126a:	45b2      	cmp	sl, r6
				matMul2[currentRowAndColumn] = matMul2[currentRowAndColumn] + TransposeOf_X_tilde[currentMultipliedElements + currentRowTimesMplusOne] * X_tilde[currentMultipliedElements + currentColumnTimesMplusOne];
 800126c:	4604      	mov	r4, r0
 800126e:	460d      	mov	r5, r1
			for (int currentMultipliedElements=0; currentMultipliedElements<mPlusOne; currentMultipliedElements++) {
 8001270:	f106 0601 	add.w	r6, r6, #1
 8001274:	dced      	bgt.n	8001252 <getLogisticRegression+0x372>
 8001276:	9a02      	ldr	r2, [sp, #8]
		for (int currentColumn=0; currentColumn<n; currentColumn++) {
 8001278:	9b00      	ldr	r3, [sp, #0]
 800127a:	4491      	add	r9, r2
 800127c:	9a04      	ldr	r2, [sp, #16]
 800127e:	3301      	adds	r3, #1
 8001280:	429a      	cmp	r2, r3
 8001282:	e94b 4502 	strd	r4, r5, [fp, #-8]
 8001286:	9300      	str	r3, [sp, #0]
 8001288:	dcdc      	bgt.n	8001244 <getLogisticRegression+0x364>
	for (int currentRow=0; currentRow<mPlusOne; currentRow++) {
 800128a:	9b05      	ldr	r3, [sp, #20]
 800128c:	9a0d      	ldr	r2, [sp, #52]	; 0x34
 800128e:	4413      	add	r3, r2
 8001290:	9305      	str	r3, [sp, #20]
 8001292:	9a04      	ldr	r2, [sp, #16]
 8001294:	9b01      	ldr	r3, [sp, #4]
 8001296:	4413      	add	r3, r2
 8001298:	9a07      	ldr	r2, [sp, #28]
 800129a:	9301      	str	r3, [sp, #4]
 800129c:	4592      	cmp	sl, r2
 800129e:	f102 0301 	add.w	r3, r2, #1
 80012a2:	dd01      	ble.n	80012a8 <getLogisticRegression+0x3c8>
 80012a4:	9307      	str	r3, [sp, #28]
 80012a6:	e7c5      	b.n	8001234 <getLogisticRegression+0x354>
 80012a8:	9b13      	ldr	r3, [sp, #76]	; 0x4c
 80012aa:	f8cd a004 	str.w	sl, [sp, #4]
 80012ae:	f04f 0900 	mov.w	r9, #0
 80012b2:	f8dd a010 	ldr.w	sl, [sp, #16]
 80012b6:	9300      	str	r3, [sp, #0]
			}
	    }
	}
	
	// In order to conclude obtaining the coefficients ("b"), we multiply the previously resulting matrix ("matMul2") by the output matrix "Y_tilde".
	for (int currentRow=0; currentRow<mPlusOne; currentRow++) {
 80012b8:	46cb      	mov	fp, r9
		currentRowTimesN = currentRow*n;
		for (int currentMultipliedElements=0; currentMultipliedElements<n; currentMultipliedElements++) {
 80012ba:	9b00      	ldr	r3, [sp, #0]
	for (int currentRow=0; currentRow<mPlusOne; currentRow++) {
 80012bc:	9f10      	ldr	r7, [sp, #64]	; 0x40
 80012be:	e8f3 4502 	ldrd	r4, r5, [r3], #8
 80012c2:	9300      	str	r3, [sp, #0]
 80012c4:	9b06      	ldr	r3, [sp, #24]
		for (int currentMultipliedElements=0; currentMultipliedElements<n; currentMultipliedElements++) {
 80012c6:	2600      	movs	r6, #0
 80012c8:	eb03 08c9 	add.w	r8, r3, r9, lsl #3
			b[currentRow] = b[currentRow] + matMul2[currentMultipliedElements + currentRowTimesN] * Y_tilde[currentMultipliedElements];
 80012cc:	e8f7 2302 	ldrd	r2, r3, [r7], #8
 80012d0:	e8f8 0102 	ldrd	r0, r1, [r8], #8
 80012d4:	f7ff f9b0 	bl	8000638 <__aeabi_dmul>
 80012d8:	4602      	mov	r2, r0
 80012da:	460b      	mov	r3, r1
 80012dc:	4620      	mov	r0, r4
 80012de:	4629      	mov	r1, r5
 80012e0:	f7fe fff4 	bl	80002cc <__adddf3>
		for (int currentMultipliedElements=0; currentMultipliedElements<n; currentMultipliedElements++) {
 80012e4:	3601      	adds	r6, #1
 80012e6:	45b2      	cmp	sl, r6
			b[currentRow] = b[currentRow] + matMul2[currentMultipliedElements + currentRowTimesN] * Y_tilde[currentMultipliedElements];
 80012e8:	4604      	mov	r4, r0
 80012ea:	460d      	mov	r5, r1
		for (int currentMultipliedElements=0; currentMultipliedElements<n; currentMultipliedElements++) {
 80012ec:	dcee      	bgt.n	80012cc <getLogisticRegression+0x3ec>
	for (int currentRow=0; currentRow<mPlusOne; currentRow++) {
 80012ee:	9a01      	ldr	r2, [sp, #4]
 80012f0:	9b00      	ldr	r3, [sp, #0]
 80012f2:	455a      	cmp	r2, fp
 80012f4:	e943 4502 	strd	r4, r5, [r3, #-8]
 80012f8:	44d1      	add	r9, sl
 80012fa:	f10b 0301 	add.w	r3, fp, #1
 80012fe:	dd01      	ble.n	8001304 <getLogisticRegression+0x424>
 8001300:	469b      	mov	fp, r3
 8001302:	e7da      	b.n	80012ba <getLogisticRegression+0x3da>
		}
	}
	
	// Free the Heap memory used for the locally allocated variables since they will no longer be used.
	free(Y_tilde);
 8001304:	9810      	ldr	r0, [sp, #64]	; 0x40
 8001306:	f001 fb9f 	bl	8002a48 <free>
	free(X_tilde);
 800130a:	9808      	ldr	r0, [sp, #32]
 800130c:	f001 fb9c 	bl	8002a48 <free>
	free(TransposeOf_X_tilde);
 8001310:	9803      	ldr	r0, [sp, #12]
 8001312:	f001 fb99 	bl	8002a48 <free>
	free(matMul1);
 8001316:	980e      	ldr	r0, [sp, #56]	; 0x38
 8001318:	f001 fb96 	bl	8002a48 <free>
	free(matMul2);
 800131c:	9806      	ldr	r0, [sp, #24]
	return;
}
 800131e:	b015      	add	sp, #84	; 0x54
 8001320:	e8bd 4ff0 	ldmia.w	sp!, {r4, r5, r6, r7, r8, r9, sl, fp, lr}
	free(matMul2);
 8001324:	f001 bb90 	b.w	8002a48 <free>
		printf("\nERROR: The machine learning features (independent variables) must be equal or greater than 1 for this particular algorithm.\n");
 8001328:	4810      	ldr	r0, [pc, #64]	; (800136c <getLogisticRegression+0x48c>)
 800132a:	f002 f955 	bl	80035d8 <puts>
		exit(1);
 800132e:	2001      	movs	r0, #1
 8001330:	f001 fb4a 	bl	80029c8 <exit>
			printf("\nERROR: The output data from the row %d and column %d, had a value that is equal or greater than one. Please assign the proper output values for this algorithm, considering the restriction: 0 < y_{i,k} < 1.\n", currentRow, p);
 8001334:	480e      	ldr	r0, [pc, #56]	; (8001370 <getLogisticRegression+0x490>)
 8001336:	2201      	movs	r2, #1
 8001338:	4639      	mov	r1, r7
 800133a:	f002 f8c7 	bl	80034cc <iprintf>
			exit(1);
 800133e:	2001      	movs	r0, #1
 8001340:	f001 fb42 	bl	80029c8 <exit>
			printf("\nERROR: The output data from the row %d and column %d, had a value that is equal or less than zero. Please assign the proper output values for this algorithm, considering the restriction: 0 < y_{i,k} < 1.\n", currentRow, p);
 8001344:	480b      	ldr	r0, [pc, #44]	; (8001374 <getLogisticRegression+0x494>)
 8001346:	2201      	movs	r2, #1
 8001348:	4639      	mov	r1, r7
 800134a:	f002 f8bf 	bl	80034cc <iprintf>
			exit(1);
 800134e:	2001      	movs	r0, #1
 8001350:	f001 fb3a 	bl	80029c8 <exit>
		printf("\nERROR: With respect to the system under study, there must only be only one output for this particular algorithm.\n");
 8001354:	4808      	ldr	r0, [pc, #32]	; (8001378 <getLogisticRegression+0x498>)
 8001356:	f002 f93f 	bl	80035d8 <puts>
		exit(1);
 800135a:	2001      	movs	r0, #1
 800135c:	f001 fb34 	bl	80029c8 <exit>
		printf("\nERROR: The number of samples provided must be equal or higher than the number of machine learning features (independent variables) for this particular algorithm.\n");
 8001360:	4806      	ldr	r0, [pc, #24]	; (800137c <getLogisticRegression+0x49c>)
 8001362:	f002 f939 	bl	80035d8 <puts>
		exit(1);
 8001366:	2001      	movs	r0, #1
 8001368:	f001 fb2e 	bl	80029c8 <exit>
 800136c:	08005948 	.word	0x08005948
 8001370:	08005bb0 	.word	0x08005bb0
 8001374:	08005ae0 	.word	0x08005ae0
 8001378:	08005a6c 	.word	0x08005a6c
 800137c:	080059c8 	.word	0x080059c8

08001380 <_write>:
 * @author Controllers Tech
 * CREATION DATE: JANUARY 07, 2022.
 * LAST UPDATE: N/A/
 */
int _write(int file, char *ptr, int len) {
	for (int i=0; i<len; i++) {
 8001380:	1e10      	subs	r0, r2, #0
 8001382:	dd1a      	ble.n	80013ba <_write+0x3a>
int _write(int file, char *ptr, int len) {
 8001384:	b430      	push	{r4, r5}
  \param [in]     ch  Character to transmit.
  \returns            Character to transmit.
 */
__STATIC_INLINE uint32_t ITM_SendChar (uint32_t ch)
{
  if (((ITM->TCR & ITM_TCR_ITMENA_Msk) != 0UL) &&      /* ITM enabled */
 8001386:	f04f 4360 	mov.w	r3, #3758096384	; 0xe0000000
 800138a:	180d      	adds	r5, r1, r0
 800138c:	f8d3 4e80 	ldr.w	r4, [r3, #3712]	; 0xe80
 8001390:	07e4      	lsls	r4, r4, #31
		ITM_SendChar((*ptr++));
 8001392:	f101 0101 	add.w	r1, r1, #1
 8001396:	d50c      	bpl.n	80013b2 <_write+0x32>
      ((ITM->TER & 1UL               ) != 0UL)   )     /* ITM Port #0 enabled */
 8001398:	f8d3 4e00 	ldr.w	r4, [r3, #3584]	; 0xe00
  if (((ITM->TCR & ITM_TCR_ITMENA_Msk) != 0UL) &&      /* ITM enabled */
 800139c:	07e2      	lsls	r2, r4, #31
 800139e:	d508      	bpl.n	80013b2 <_write+0x32>
  {
    while (ITM->PORT[0U].u32 == 0UL)
 80013a0:	681c      	ldr	r4, [r3, #0]
 80013a2:	f811 2c01 	ldrb.w	r2, [r1, #-1]
 80013a6:	b91c      	cbnz	r4, 80013b0 <_write+0x30>
    {
      __NOP();
 80013a8:	bf00      	nop
    while (ITM->PORT[0U].u32 == 0UL)
 80013aa:	681c      	ldr	r4, [r3, #0]
 80013ac:	2c00      	cmp	r4, #0
 80013ae:	d0fb      	beq.n	80013a8 <_write+0x28>
    }
    ITM->PORT[0U].u8 = (uint8_t)ch;
 80013b0:	701a      	strb	r2, [r3, #0]
	for (int i=0; i<len; i++) {
 80013b2:	42a9      	cmp	r1, r5
 80013b4:	d1ea      	bne.n	800138c <_write+0xc>
	}
	return len;
}
 80013b6:	bc30      	pop	{r4, r5}
 80013b8:	4770      	bx	lr
 80013ba:	4770      	bx	lr

080013bc <SystemClock_Config>:
/**
  * @brief System Clock Configuration
  * @retval None
  */
void SystemClock_Config(void)
{
 80013bc:	b5f0      	push	{r4, r5, r6, r7, lr}
  RCC_OscInitTypeDef RCC_OscInitStruct = {0};
 80013be:	2300      	movs	r3, #0
{
 80013c0:	b097      	sub	sp, #92	; 0x5c
  RCC_OscInitTypeDef RCC_OscInitStruct = {0};
 80013c2:	e9cd 330b 	strd	r3, r3, [sp, #44]	; 0x2c
  RCC_ClkInitTypeDef RCC_ClkInitStruct = {0};
 80013c6:	e9cd 3303 	strd	r3, r3, [sp, #12]
 80013ca:	e9cd 3305 	strd	r3, r3, [sp, #20]

  /** Configure the main internal regulator output voltage
  */
  __HAL_RCC_PWR_CLK_ENABLE();
 80013ce:	4925      	ldr	r1, [pc, #148]	; (8001464 <SystemClock_Config+0xa8>)
 80013d0:	9300      	str	r3, [sp, #0]
  RCC_ClkInitTypeDef RCC_ClkInitStruct = {0};
 80013d2:	9302      	str	r3, [sp, #8]
  __HAL_RCC_PWR_CLK_ENABLE();
 80013d4:	6c08      	ldr	r0, [r1, #64]	; 0x40
  __HAL_PWR_VOLTAGESCALING_CONFIG(PWR_REGULATOR_VOLTAGE_SCALE1);
 80013d6:	4a24      	ldr	r2, [pc, #144]	; (8001468 <SystemClock_Config+0xac>)
  __HAL_RCC_PWR_CLK_ENABLE();
 80013d8:	f040 5080 	orr.w	r0, r0, #268435456	; 0x10000000
 80013dc:	6408      	str	r0, [r1, #64]	; 0x40
 80013de:	6c09      	ldr	r1, [r1, #64]	; 0x40
 80013e0:	f001 5180 	and.w	r1, r1, #268435456	; 0x10000000
 80013e4:	9100      	str	r1, [sp, #0]
 80013e6:	9900      	ldr	r1, [sp, #0]
  __HAL_PWR_VOLTAGESCALING_CONFIG(PWR_REGULATOR_VOLTAGE_SCALE1);
 80013e8:	9301      	str	r3, [sp, #4]
 80013ea:	6813      	ldr	r3, [r2, #0]
 80013ec:	f443 4340 	orr.w	r3, r3, #49152	; 0xc000
 80013f0:	6013      	str	r3, [r2, #0]
 80013f2:	6813      	ldr	r3, [r2, #0]
 80013f4:	f403 4340 	and.w	r3, r3, #49152	; 0xc000
 80013f8:	9301      	str	r3, [sp, #4]
  /** Initializes the RCC Oscillators according to the specified parameters
  * in the RCC_OscInitTypeDef structure.
  */
  RCC_OscInitStruct.OscillatorType = RCC_OSCILLATORTYPE_LSI|RCC_OSCILLATORTYPE_HSE;
 80013fa:	2009      	movs	r0, #9
 80013fc:	f44f 3180 	mov.w	r1, #65536	; 0x10000
  RCC_OscInitStruct.HSEState = RCC_HSE_ON;
  RCC_OscInitStruct.LSEState = RCC_LSE_ON;
  RCC_OscInitStruct.LSIState = RCC_LSI_ON;
  RCC_OscInitStruct.PLL.PLLState = RCC_PLL_ON;
 8001400:	2302      	movs	r3, #2
  RCC_OscInitStruct.OscillatorType = RCC_OSCILLATORTYPE_LSI|RCC_OSCILLATORTYPE_HSE;
 8001402:	e9cd 0108 	strd	r0, r1, [sp, #32]
  RCC_OscInitStruct.LSEState = RCC_LSE_ON;
 8001406:	2201      	movs	r2, #1
  __HAL_PWR_VOLTAGESCALING_CONFIG(PWR_REGULATOR_VOLTAGE_SCALE1);
 8001408:	9c01      	ldr	r4, [sp, #4]
  RCC_OscInitStruct.LSEState = RCC_LSE_ON;
 800140a:	920a      	str	r2, [sp, #40]	; 0x28
  RCC_OscInitStruct.PLL.PLLSource = RCC_PLLSOURCE_HSE;
 800140c:	f44f 0580 	mov.w	r5, #4194304	; 0x400000
  RCC_OscInitStruct.PLL.PLLM = 4;
 8001410:	2404      	movs	r4, #4
  RCC_OscInitStruct.PLL.PLLN = 180;
 8001412:	21b4      	movs	r1, #180	; 0xb4
  RCC_OscInitStruct.PLL.PLLP = RCC_PLLP_DIV2;
  RCC_OscInitStruct.PLL.PLLQ = 2;
  RCC_OscInitStruct.PLL.PLLR = 2;
  if (HAL_RCC_OscConfig(&RCC_OscInitStruct) != HAL_OK)
 8001414:	a808      	add	r0, sp, #32
  RCC_OscInitStruct.PLL.PLLQ = 2;
 8001416:	e9cd 3312 	strd	r3, r3, [sp, #72]	; 0x48
  RCC_OscInitStruct.PLL.PLLM = 4;
 800141a:	e9cd 540f 	strd	r5, r4, [sp, #60]	; 0x3c
  RCC_OscInitStruct.LSIState = RCC_LSI_ON;
 800141e:	920d      	str	r2, [sp, #52]	; 0x34
  RCC_OscInitStruct.PLL.PLLState = RCC_PLL_ON;
 8001420:	930e      	str	r3, [sp, #56]	; 0x38
  RCC_OscInitStruct.PLL.PLLR = 2;
 8001422:	9314      	str	r3, [sp, #80]	; 0x50
  RCC_OscInitStruct.PLL.PLLN = 180;
 8001424:	9111      	str	r1, [sp, #68]	; 0x44
  if (HAL_RCC_OscConfig(&RCC_OscInitStruct) != HAL_OK)
 8001426:	f000 febf 	bl	80021a8 <HAL_RCC_OscConfig>
 800142a:	b108      	cbz	r0, 8001430 <SystemClock_Config+0x74>
  \details Disables IRQ interrupts by setting the I-bit in the CPSR.
           Can only be executed in Privileged modes.
 */
__STATIC_FORCEINLINE void __disable_irq(void)
{
  __ASM volatile ("cpsid i" : : : "memory");
 800142c:	b672      	cpsid	i
void Error_Handler(void)
{
  /* USER CODE BEGIN Error_Handler_Debug */
  /* User can add his own implementation to report the HAL error return state */
  __disable_irq();
  while (1)
 800142e:	e7fe      	b.n	800142e <SystemClock_Config+0x72>
  if (HAL_PWREx_EnableOverDrive() != HAL_OK)
 8001430:	f000 fb72 	bl	8001b18 <HAL_PWREx_EnableOverDrive>
 8001434:	b108      	cbz	r0, 800143a <SystemClock_Config+0x7e>
 8001436:	b672      	cpsid	i
  while (1)
 8001438:	e7fe      	b.n	8001438 <SystemClock_Config+0x7c>
  RCC_ClkInitStruct.ClockType = RCC_CLOCKTYPE_HCLK|RCC_CLOCKTYPE_SYSCLK
 800143a:	260f      	movs	r6, #15
 800143c:	2702      	movs	r7, #2
 800143e:	2400      	movs	r4, #0
 8001440:	f44f 55a0 	mov.w	r5, #5120	; 0x1400
  RCC_ClkInitStruct.APB2CLKDivider = RCC_HCLK_DIV2;
 8001444:	f44f 5380 	mov.w	r3, #4096	; 0x1000
  if (HAL_RCC_ClockConfig(&RCC_ClkInitStruct, FLASH_LATENCY_5) != HAL_OK)
 8001448:	a802      	add	r0, sp, #8
 800144a:	2105      	movs	r1, #5
  RCC_ClkInitStruct.ClockType = RCC_CLOCKTYPE_HCLK|RCC_CLOCKTYPE_SYSCLK
 800144c:	e9cd 6702 	strd	r6, r7, [sp, #8]
 8001450:	e9cd 4504 	strd	r4, r5, [sp, #16]
  RCC_ClkInitStruct.APB2CLKDivider = RCC_HCLK_DIV2;
 8001454:	9306      	str	r3, [sp, #24]
  if (HAL_RCC_ClockConfig(&RCC_ClkInitStruct, FLASH_LATENCY_5) != HAL_OK)
 8001456:	f000 fb9d 	bl	8001b94 <HAL_RCC_ClockConfig>
 800145a:	b108      	cbz	r0, 8001460 <SystemClock_Config+0xa4>
 800145c:	b672      	cpsid	i
  while (1)
 800145e:	e7fe      	b.n	800145e <SystemClock_Config+0xa2>
}
 8001460:	b017      	add	sp, #92	; 0x5c
 8001462:	bdf0      	pop	{r4, r5, r6, r7, pc}
 8001464:	40023800 	.word	0x40023800
 8001468:	40007000 	.word	0x40007000
 800146c:	00000000 	.word	0x00000000

08001470 <main>:
{
 8001470:	e92d 4ff0 	stmdb	sp!, {r4, r5, r6, r7, r8, r9, sl, fp, lr}
 8001474:	ed2d 8b0a 	vpush	{d8-d12}
 8001478:	b08d      	sub	sp, #52	; 0x34
  HAL_Init();
 800147a:	f000 faa9 	bl	80019d0 <HAL_Init>
  SystemClock_Config();
 800147e:	f7ff ff9d 	bl	80013bc <SystemClock_Config>
  __HAL_RCC_GPIOC_CLK_ENABLE();
 8001482:	2300      	movs	r3, #0
 8001484:	4ac4      	ldr	r2, [pc, #784]	; (8001798 <main+0x328>)
 8001486:	9305      	str	r3, [sp, #20]
 8001488:	6b11      	ldr	r1, [r2, #48]	; 0x30
  hrtc.Instance = RTC;
 800148a:	4ec4      	ldr	r6, [pc, #784]	; (800179c <main+0x32c>)
 800148c:	4fc4      	ldr	r7, [pc, #784]	; (80017a0 <main+0x330>)
  hrtc.Init.HourFormat = RTC_HOURFORMAT_24;
 800148e:	6073      	str	r3, [r6, #4]
  __HAL_RCC_GPIOC_CLK_ENABLE();
 8001490:	f041 0104 	orr.w	r1, r1, #4
 8001494:	6311      	str	r1, [r2, #48]	; 0x30
 8001496:	6b11      	ldr	r1, [r2, #48]	; 0x30
  hrtc.Init.OutPut = RTC_OUTPUT_DISABLE;
 8001498:	6133      	str	r3, [r6, #16]
  __HAL_RCC_GPIOC_CLK_ENABLE();
 800149a:	f001 0104 	and.w	r1, r1, #4
 800149e:	9105      	str	r1, [sp, #20]
 80014a0:	9905      	ldr	r1, [sp, #20]
  __HAL_RCC_GPIOH_CLK_ENABLE();
 80014a2:	9306      	str	r3, [sp, #24]
 80014a4:	6b11      	ldr	r1, [r2, #48]	; 0x30
  hrtc.Init.OutPutPolarity = RTC_OUTPUT_POLARITY_HIGH;
 80014a6:	6173      	str	r3, [r6, #20]
  __HAL_RCC_GPIOH_CLK_ENABLE();
 80014a8:	f041 0180 	orr.w	r1, r1, #128	; 0x80
 80014ac:	6311      	str	r1, [r2, #48]	; 0x30
 80014ae:	6b12      	ldr	r2, [r2, #48]	; 0x30
  hrtc.Init.OutPutType = RTC_OUTPUT_TYPE_OPENDRAIN;
 80014b0:	61b3      	str	r3, [r6, #24]
  __HAL_RCC_GPIOH_CLK_ENABLE();
 80014b2:	f002 0280 	and.w	r2, r2, #128	; 0x80
 80014b6:	9206      	str	r2, [sp, #24]
 80014b8:	9806      	ldr	r0, [sp, #24]
  RTC_TimeTypeDef sTime = {0};
 80014ba:	9307      	str	r3, [sp, #28]
  hrtc.Init.AsynchPrediv = 127;
 80014bc:	217f      	movs	r1, #127	; 0x7f
  hrtc.Init.SynchPrediv = 255;
 80014be:	22ff      	movs	r2, #255	; 0xff
  if (HAL_RTC_Init(&hrtc) != HAL_OK)
 80014c0:	4630      	mov	r0, r6
  RTC_TimeTypeDef sTime = {0};
 80014c2:	e9cd 3308 	strd	r3, r3, [sp, #32]
 80014c6:	e9cd 330a 	strd	r3, r3, [sp, #40]	; 0x28
  hrtc.Init.SynchPrediv = 255;
 80014ca:	e9c6 1202 	strd	r1, r2, [r6, #8]
  RTC_DateTypeDef sDate = {0};
 80014ce:	9304      	str	r3, [sp, #16]
  hrtc.Instance = RTC;
 80014d0:	6037      	str	r7, [r6, #0]
  if (HAL_RTC_Init(&hrtc) != HAL_OK)
 80014d2:	f001 f873 	bl	80025bc <HAL_RTC_Init>
 80014d6:	b108      	cbz	r0, 80014dc <main+0x6c>
 80014d8:	b672      	cpsid	i
  while (1)
 80014da:	e7fe      	b.n	80014da <main+0x6a>
  sTime.Seconds = 0x0;
 80014dc:	4603      	mov	r3, r0
  if (HAL_RTC_SetTime(&hrtc, &sTime, RTC_FORMAT_BCD) != HAL_OK)
 80014de:	a907      	add	r1, sp, #28
 80014e0:	2201      	movs	r2, #1
 80014e2:	4630      	mov	r0, r6
  sTime.StoreOperation = RTC_STOREOPERATION_RESET;
 80014e4:	e9cd 330a 	strd	r3, r3, [sp, #40]	; 0x28
  sTime.Hours = 0x0;
 80014e8:	f8ad 301c 	strh.w	r3, [sp, #28]
  sTime.Seconds = 0x0;
 80014ec:	f88d 301e 	strb.w	r3, [sp, #30]
  if (HAL_RTC_SetTime(&hrtc, &sTime, RTC_FORMAT_BCD) != HAL_OK)
 80014f0:	f001 f8d2 	bl	8002698 <HAL_RTC_SetTime>
 80014f4:	b108      	cbz	r0, 80014fa <main+0x8a>
 80014f6:	b672      	cpsid	i
  while (1)
 80014f8:	e7fe      	b.n	80014f8 <main+0x88>
  sDate.WeekDay = RTC_WEEKDAY_MONDAY;
 80014fa:	4baa      	ldr	r3, [pc, #680]	; (80017a4 <main+0x334>)
 80014fc:	9304      	str	r3, [sp, #16]
  if (HAL_RTC_SetDate(&hrtc, &sDate, RTC_FORMAT_BCD) != HAL_OK)
 80014fe:	2201      	movs	r2, #1
 8001500:	a904      	add	r1, sp, #16
 8001502:	4630      	mov	r0, r6
 8001504:	f001 f980 	bl	8002808 <HAL_RTC_SetDate>
 8001508:	4602      	mov	r2, r0
 800150a:	b108      	cbz	r0, 8001510 <main+0xa0>
 800150c:	b672      	cpsid	i
  while (1)
 800150e:	e7fe      	b.n	800150e <main+0x9e>
  if (HAL_RTCEx_SetTimeStamp(&hrtc, RTC_TIMESTAMPEDGE_RISING, RTC_TIMESTAMPPIN_DEFAULT) != HAL_OK)
 8001510:	4630      	mov	r0, r6
 8001512:	4611      	mov	r1, r2
 8001514:	f001 fa20 	bl	8002958 <HAL_RTCEx_SetTimeStamp>
 8001518:	b108      	cbz	r0, 800151e <main+0xae>
 800151a:	b672      	cpsid	i
  while (1)
 800151c:	e7fe      	b.n	800151c <main+0xac>
			Y_tilde[currentRowAndColumn] = databaseY[currentRow];
 800151e:	ed9f cb76 	vldr	d12, [pc, #472]	; 80016f8 <main+0x288>
			X[currentRowAndColumn] = databaseX[currentRow];
 8001522:	ed9f bb77 	vldr	d11, [pc, #476]	; 8001700 <main+0x290>
			Y_tilde[currentRowAndColumn] = databaseY[currentRow];
 8001526:	ed9f ab78 	vldr	d10, [pc, #480]	; 8001708 <main+0x298>
			X[currentRowAndColumn] = databaseX[currentRow];
 800152a:	ed9f 9b79 	vldr	d9, [pc, #484]	; 8001710 <main+0x2a0>
			Y_tilde[currentRowAndColumn] = databaseY[currentRow];
 800152e:	ed9f 8b7a 	vldr	d8, [pc, #488]	; 8001718 <main+0x2a8>
	printf("----------------------------------------------------------------------\n");
 8001532:	f8df 92a4 	ldr.w	r9, [pc, #676]	; 80017d8 <main+0x368>
 8001536:	4648      	mov	r0, r9
 8001538:	f002 f84e 	bl	80035d8 <puts>
	printf("----------------------------------------------------------------------\n");
 800153c:	4648      	mov	r0, r9
 800153e:	f002 f84b 	bl	80035d8 <puts>
	printf("Initializing the output and input data with %d samples and %d independent variables...\n", n, m);
 8001542:	2201      	movs	r2, #1
 8001544:	f641 7136 	movw	r1, #7990	; 0x1f36
 8001548:	4897      	ldr	r0, [pc, #604]	; (80017a8 <main+0x338>)
 800154a:	f001 ffbf 	bl	80034cc <iprintf>
	startingTime = HAL_GetTick(); // We obtain the reference time to count the elapsed time to initialize the input data to be used.
 800154e:	f000 fa65 	bl	8001a1c <HAL_GetTick>
 8001552:	4606      	mov	r6, r0
	double *X = (double *) malloc(n*sizeof(double));
 8001554:	f64f 10b0 	movw	r0, #63920	; 0xf9b0
 8001558:	f001 fa6e 	bl	8002a38 <malloc>
 800155c:	4680      	mov	r8, r0
	double *Y_tilde = (double *) malloc(n*sizeof(double));
 800155e:	f64f 10b0 	movw	r0, #63920	; 0xf9b0
 8001562:	f001 fa69 	bl	8002a38 <malloc>
			Y_tilde[currentRowAndColumn] = databaseY[currentRow];
 8001566:	f20f 1bb8 	addw	fp, pc, #440	; 0x1b8
 800156a:	e9db ab00 	ldrd	sl, fp, [fp]
 800156e:	f500 4179 	add.w	r1, r0, #63744	; 0xf900
			X[currentRowAndColumn] = databaseX[currentRow];
 8001572:	ed9f 5b6d 	vldr	d5, [pc, #436]	; 8001728 <main+0x2b8>
			Y_tilde[currentRowAndColumn] = databaseY[currentRow];
 8001576:	ed9f 6b6e 	vldr	d6, [pc, #440]	; 8001730 <main+0x2c0>
			X[currentRowAndColumn] = databaseX[currentRow];
 800157a:	ed9f 7b6f 	vldr	d7, [pc, #444]	; 8001738 <main+0x2c8>
 800157e:	31b0      	adds	r1, #176	; 0xb0
	double *Y_tilde = (double *) malloc(n*sizeof(double));
 8001580:	4607      	mov	r7, r0
	for (int currentIteration=0; currentIteration<(n/n_database); currentIteration++) {
 8001582:	4603      	mov	r3, r0
 8001584:	4642      	mov	r2, r8
 8001586:	468c      	mov	ip, r1
			Y_tilde[currentRowAndColumn] = databaseY[currentRow];
 8001588:	a16d      	add	r1, pc, #436	; (adr r1, 8001740 <main+0x2d0>)
 800158a:	e9d1 0100 	ldrd	r0, r1, [r1]
 800158e:	ed9f 4b6e 	vldr	d4, [pc, #440]	; 8001748 <main+0x2d8>
 8001592:	e9c3 010a 	strd	r0, r1, [r3, #40]	; 0x28
 8001596:	ed83 4b0c 	vstr	d4, [r3, #48]	; 0x30
 800159a:	a16d      	add	r1, pc, #436	; (adr r1, 8001750 <main+0x2e0>)
 800159c:	e9d1 0100 	ldrd	r0, r1, [r1]
 80015a0:	ed9f 4b6d 	vldr	d4, [pc, #436]	; 8001758 <main+0x2e8>
 80015a4:	e9c3 010e 	strd	r0, r1, [r3, #56]	; 0x38
 80015a8:	ed83 4b10 	vstr	d4, [r3, #64]	; 0x40
 80015ac:	a16c      	add	r1, pc, #432	; (adr r1, 8001760 <main+0x2f0>)
 80015ae:	e9d1 0100 	ldrd	r0, r1, [r1]
			X[currentRowAndColumn] = databaseX[currentRow];
 80015b2:	ed9f 4b6d 	vldr	d4, [pc, #436]	; 8001768 <main+0x2f8>
			Y_tilde[currentRowAndColumn] = databaseY[currentRow];
 80015b6:	e9c3 0112 	strd	r0, r1, [r3, #72]	; 0x48
			X[currentRowAndColumn] = databaseX[currentRow];
 80015ba:	ed82 4b08 	vstr	d4, [r2, #32]
 80015be:	497b      	ldr	r1, [pc, #492]	; (80017ac <main+0x33c>)
 80015c0:	ed9f 4b6b 	vldr	d4, [pc, #428]	; 8001770 <main+0x300>
 80015c4:	2000      	movs	r0, #0
 80015c6:	e9c2 010a 	strd	r0, r1, [r2, #40]	; 0x28
 80015ca:	4979      	ldr	r1, [pc, #484]	; (80017b0 <main+0x340>)
 80015cc:	ed82 4b0c 	vstr	d4, [r2, #48]	; 0x30
 80015d0:	2000      	movs	r0, #0
 80015d2:	ed9f 4b69 	vldr	d4, [pc, #420]	; 8001778 <main+0x308>
 80015d6:	e9c2 010e 	strd	r0, r1, [r2, #56]	; 0x38
			Y_tilde[currentRowAndColumn] = databaseY[currentRow];
 80015da:	ed83 cb00 	vstr	d12, [r3]
 80015de:	ed83 ab02 	vstr	d10, [r3, #8]
 80015e2:	ed83 8b04 	vstr	d8, [r3, #16]
 80015e6:	ed83 6b06 	vstr	d6, [r3, #24]
 80015ea:	e9c3 ab08 	strd	sl, fp, [r3, #32]
			X[currentRowAndColumn] = databaseX[currentRow];
 80015ee:	4971      	ldr	r1, [pc, #452]	; (80017b4 <main+0x344>)
 80015f0:	3350      	adds	r3, #80	; 0x50
 80015f2:	2000      	movs	r0, #0
	for (int currentIteration=0; currentIteration<(n/n_database); currentIteration++) {
 80015f4:	4563      	cmp	r3, ip
			X[currentRowAndColumn] = databaseX[currentRow];
 80015f6:	ed82 bb00 	vstr	d11, [r2]
 80015fa:	ed82 9b02 	vstr	d9, [r2, #8]
 80015fe:	ed82 5b04 	vstr	d5, [r2, #16]
 8001602:	ed82 7b06 	vstr	d7, [r2, #24]
 8001606:	ed82 4b10 	vstr	d4, [r2, #64]	; 0x40
 800160a:	e9c2 0112 	strd	r0, r1, [r2, #72]	; 0x48
	for (int currentIteration=0; currentIteration<(n/n_database); currentIteration++) {
 800160e:	f102 0250 	add.w	r2, r2, #80	; 0x50
 8001612:	d1b9      	bne.n	8001588 <main+0x118>
	elapsedTime = HAL_GetTick() - startingTime; // We obtain the elapsed time to initialize the input data to be used.
 8001614:	f000 fa02 	bl	8001a1c <HAL_GetTick>
	printf("Output and input data initialization elapsed %ld milliseconds.\n\n", elapsedTime);
 8001618:	1b81      	subs	r1, r0, r6
 800161a:	4867      	ldr	r0, [pc, #412]	; (80017b8 <main+0x348>)
 800161c:	f001 ff56 	bl	80034cc <iprintf>
	printf("Initializing CenyML logistic regression algorithm ...\n");
 8001620:	4866      	ldr	r0, [pc, #408]	; (80017bc <main+0x34c>)
 8001622:	f001 ffd9 	bl	80035d8 <puts>
	startingTime = HAL_GetTick(); // We obtain the reference time to count the elapsed time to apply the logistic regression with the input data (X).
 8001626:	f000 f9f9 	bl	8001a1c <HAL_GetTick>
	double *b = (double *) calloc(m+1, sizeof(double));
 800162a:	2108      	movs	r1, #8
	startingTime = HAL_GetTick(); // We obtain the reference time to count the elapsed time to apply the logistic regression with the input data (X).
 800162c:	4682      	mov	sl, r0
	double *b = (double *) calloc(m+1, sizeof(double));
 800162e:	2002      	movs	r0, #2
 8001630:	f001 f9bc 	bl	80029ac <calloc>
	getLogisticRegression(X, Y_tilde, n, m, p, 0, b); // NOTE: Remember that this functions stores the resulting coefficients in the pointer variable "b".
 8001634:	2301      	movs	r3, #1
 8001636:	2200      	movs	r2, #0
 8001638:	9300      	str	r3, [sp, #0]
 800163a:	e9cd 2001 	strd	r2, r0, [sp, #4]
 800163e:	4639      	mov	r1, r7
 8001640:	f641 7236 	movw	r2, #7990	; 0x1f36
	double *b = (double *) calloc(m+1, sizeof(double));
 8001644:	4606      	mov	r6, r0
	getLogisticRegression(X, Y_tilde, n, m, p, 0, b); // NOTE: Remember that this functions stores the resulting coefficients in the pointer variable "b".
 8001646:	4640      	mov	r0, r8
 8001648:	f7ff fc4a 	bl	8000ee0 <getLogisticRegression>
	elapsedTime = HAL_GetTick() - startingTime; // We obtain the elapsed time to apply the logistic regression with the input data (X).
 800164c:	f000 f9e6 	bl	8001a1c <HAL_GetTick>
	printf("CenyML logistic regression algorithm elapsed %ld milliseconds.\n\n", elapsedTime);
 8001650:	eba0 010a 	sub.w	r1, r0, sl
 8001654:	485a      	ldr	r0, [pc, #360]	; (80017c0 <main+0x350>)
 8001656:	f001 ff39 	bl	80034cc <iprintf>
	printf("Initializing coefficients validation of the CenyML getLogisticRegression method ...\n");
 800165a:	485a      	ldr	r0, [pc, #360]	; (80017c4 <main+0x354>)
 800165c:	f001 ffbc 	bl	80035d8 <puts>
	startingTime = HAL_GetTick(); // We obtain the reference time to count the elapsed time to validate the getLogisticRegression method.
 8001660:	f000 f9dc 	bl	8001a1c <HAL_GetTick>
	differentiation = fabs(b[currentRow] - b_ideal[currentRow]);
 8001664:	a346      	add	r3, pc, #280	; (adr r3, 8001780 <main+0x310>)
 8001666:	e9d3 2300 	ldrd	r2, r3, [r3]
	startingTime = HAL_GetTick(); // We obtain the reference time to count the elapsed time to validate the getLogisticRegression method.
 800166a:	4682      	mov	sl, r0
	differentiation = fabs(b[currentRow] - b_ideal[currentRow]);
 800166c:	e9d6 0100 	ldrd	r0, r1, [r6]
 8001670:	f7fe fe2c 	bl	80002cc <__adddf3>
 8001674:	f021 4500 	bic.w	r5, r1, #2147483648	; 0x80000000
	if (differentiation > epsilon) { // if the error surpassed the value permitted, then terminate validation process and emit message to indicate a non match.
 8001678:	a343      	add	r3, pc, #268	; (adr r3, 8001788 <main+0x318>)
 800167a:	e9d3 2300 	ldrd	r2, r3, [r3]
 800167e:	4629      	mov	r1, r5
	differentiation = fabs(b[currentRow] - b_ideal[currentRow]);
 8001680:	4604      	mov	r4, r0
	if (differentiation > epsilon) { // if the error surpassed the value permitted, then terminate validation process and emit message to indicate a non match.
 8001682:	f7ff fa69 	bl	8000b58 <__aeabi_dcmpgt>
 8001686:	bb88      	cbnz	r0, 80016ec <main+0x27c>
	differentiation = fabs(b[currentRow] - b_ideal[currentRow]);
 8001688:	a341      	add	r3, pc, #260	; (adr r3, 8001790 <main+0x320>)
 800168a:	e9d3 2300 	ldrd	r2, r3, [r3]
 800168e:	e9d6 0102 	ldrd	r0, r1, [r6, #8]
 8001692:	f7fe fe19 	bl	80002c8 <__aeabi_dsub>
 8001696:	f021 4500 	bic.w	r5, r1, #2147483648	; 0x80000000
	if (differentiation > epsilon) { // if the error surpassed the value permitted, then terminate validation process and emit message to indicate a non match.
 800169a:	a33b      	add	r3, pc, #236	; (adr r3, 8001788 <main+0x318>)
 800169c:	e9d3 2300 	ldrd	r2, r3, [r3]
 80016a0:	4629      	mov	r1, r5
	differentiation = fabs(b[currentRow] - b_ideal[currentRow]);
 80016a2:	4604      	mov	r4, r0
	if (differentiation > epsilon) { // if the error surpassed the value permitted, then terminate validation process and emit message to indicate a non match.
 80016a4:	f7ff fa58 	bl	8000b58 <__aeabi_dcmpgt>
 80016a8:	bb00      	cbnz	r0, 80016ec <main+0x27c>
	printf("Validation process MATCHED!\n");
 80016aa:	4847      	ldr	r0, [pc, #284]	; (80017c8 <main+0x358>)
 80016ac:	f001 ff94 	bl	80035d8 <puts>
	elapsedTime = HAL_GetTick() - startingTime; // We obtain the elapsed time to validate the getLogisticRegression method.
 80016b0:	f000 f9b4 	bl	8001a1c <HAL_GetTick>
	printf("The coefficients validation of the CenyML getLogisticRegression method elapsed %ld milliseconds.\n\n", elapsedTime);
 80016b4:	eba0 010a 	sub.w	r1, r0, sl
 80016b8:	4844      	ldr	r0, [pc, #272]	; (80017cc <main+0x35c>)
 80016ba:	f001 ff07 	bl	80034cc <iprintf>
	printf("The program has been successfully completed!\n");
 80016be:	4844      	ldr	r0, [pc, #272]	; (80017d0 <main+0x360>)
 80016c0:	f001 ff8a 	bl	80035d8 <puts>
	free(X);
 80016c4:	4640      	mov	r0, r8
 80016c6:	f001 f9bf 	bl	8002a48 <free>
	free(Y_tilde);
 80016ca:	4638      	mov	r0, r7
 80016cc:	f001 f9bc 	bl	8002a48 <free>
	free(b);
 80016d0:	4630      	mov	r0, r6
 80016d2:	f001 f9b9 	bl	8002a48 <free>
	printf("----------------------------------------------------------------------\n");
 80016d6:	4648      	mov	r0, r9
 80016d8:	f001 ff7e 	bl	80035d8 <puts>
	printf("----------------------------------------------------------------------\n");
 80016dc:	4648      	mov	r0, r9
 80016de:	f001 ff7b 	bl	80035d8 <puts>
	HAL_Delay(1000); // 1000ms delay.
 80016e2:	f44f 707a 	mov.w	r0, #1000	; 0x3e8
 80016e6:	f000 f99f 	bl	8001a28 <HAL_Delay>
  {
 80016ea:	e724      	b.n	8001536 <main+0xc6>
	  printf("Validation process DID NOT MATCH! and a difference of %f was obtained.\n", differentiation);
 80016ec:	4622      	mov	r2, r4
 80016ee:	462b      	mov	r3, r5
 80016f0:	4838      	ldr	r0, [pc, #224]	; (80017d4 <main+0x364>)
 80016f2:	f001 feeb 	bl	80034cc <iprintf>
	if (isMatch == 1) { // If the flag "isMatch" indicates a true/high value, then emit message to indicate that the validation process matched.
 80016f6:	e7db      	b.n	80016b0 <main+0x240>
 80016f8:	4d4695f8 	.word	0x4d4695f8
 80016fc:	3f56096d 	.word	0x3f56096d
 8001700:	00000000 	.word	0x00000000
 8001704:	40240000 	.word	0x40240000
 8001708:	6805def8 	.word	0x6805def8
 800170c:	3f7c8660 	.word	0x3f7c8660
 8001710:	00000000 	.word	0x00000000
 8001714:	40340000 	.word	0x40340000
 8001718:	35e78fe9 	.word	0x35e78fe9
 800171c:	3fa209a1 	.word	0x3fa209a1
 8001720:	53fd1378 	.word	0x53fd1378
 8001724:	3fdfd70a 	.word	0x3fdfd70a
 8001728:	00000000 	.word	0x00000000
 800172c:	403e0000 	.word	0x403e0000
 8001730:	c4211b72 	.word	0xc4211b72
 8001734:	3fc47314 	.word	0x3fc47314
 8001738:	00000000 	.word	0x00000000
 800173c:	40440000 	.word	0x40440000
 8001740:	11758478 	.word	0x11758478
 8001744:	3feacd16 	.word	0x3feacd16
 8001748:	0300b2d0 	.word	0x0300b2d0
 800174c:	3feed9c7 	.word	0x3feed9c7
 8001750:	4e5fbd08 	.word	0x4e5fbd08
 8001754:	3fefc5ce 	.word	0x3fefc5ce
 8001758:	61e4cc73 	.word	0x61e4cc73
 800175c:	3feff4c2 	.word	0x3feff4c2
 8001760:	bd667d63 	.word	0xbd667d63
 8001764:	3feffdd6 	.word	0x3feffdd6
 8001768:	00000000 	.word	0x00000000
 800176c:	40490000 	.word	0x40490000
 8001770:	00000000 	.word	0x00000000
 8001774:	40518000 	.word	0x40518000
 8001778:	00000000 	.word	0x00000000
 800177c:	40568000 	.word	0x40568000
 8001780:	c0000000 	.word	0xc0000000
 8001784:	4020851e 	.word	0x4020851e
 8001788:	e2308c3a 	.word	0xe2308c3a
 800178c:	3e45798e 	.word	0x3e45798e
 8001790:	60000000 	.word	0x60000000
 8001794:	3fc51eb8 	.word	0x3fc51eb8
 8001798:	40023800 	.word	0x40023800
 800179c:	20000208 	.word	0x20000208
 80017a0:	40002800 	.word	0x40002800
 80017a4:	00010101 	.word	0x00010101
 80017a8:	08005cc8 	.word	0x08005cc8
 80017ac:	404e0000 	.word	0x404e0000
 80017b0:	40540000 	.word	0x40540000
 80017b4:	40590000 	.word	0x40590000
 80017b8:	08005d20 	.word	0x08005d20
 80017bc:	08005d64 	.word	0x08005d64
 80017c0:	08005d9c 	.word	0x08005d9c
 80017c4:	08005de0 	.word	0x08005de0
 80017c8:	08005e7c 	.word	0x08005e7c
 80017cc:	08005e98 	.word	0x08005e98
 80017d0:	08005efc 	.word	0x08005efc
 80017d4:	08005e34 	.word	0x08005e34
 80017d8:	08005c80 	.word	0x08005c80

080017dc <Error_Handler>:
 80017dc:	b672      	cpsid	i
  while (1)
 80017de:	e7fe      	b.n	80017de <Error_Handler+0x2>

080017e0 <HAL_MspInit>:
/* USER CODE END 0 */
/**
  * Initializes the Global MSP.
  */
void HAL_MspInit(void)
{
 80017e0:	b082      	sub	sp, #8
  /* USER CODE BEGIN MspInit 0 */

  /* USER CODE END MspInit 0 */

  __HAL_RCC_SYSCFG_CLK_ENABLE();
 80017e2:	4b0c      	ldr	r3, [pc, #48]	; (8001814 <HAL_MspInit+0x34>)
 80017e4:	2100      	movs	r1, #0
 80017e6:	9100      	str	r1, [sp, #0]
 80017e8:	6c5a      	ldr	r2, [r3, #68]	; 0x44
 80017ea:	f442 4280 	orr.w	r2, r2, #16384	; 0x4000
 80017ee:	645a      	str	r2, [r3, #68]	; 0x44
 80017f0:	6c5a      	ldr	r2, [r3, #68]	; 0x44
 80017f2:	f402 4280 	and.w	r2, r2, #16384	; 0x4000
 80017f6:	9200      	str	r2, [sp, #0]
 80017f8:	9a00      	ldr	r2, [sp, #0]
  __HAL_RCC_PWR_CLK_ENABLE();
 80017fa:	9101      	str	r1, [sp, #4]
 80017fc:	6c1a      	ldr	r2, [r3, #64]	; 0x40
 80017fe:	f042 5280 	orr.w	r2, r2, #268435456	; 0x10000000
 8001802:	641a      	str	r2, [r3, #64]	; 0x40
 8001804:	6c1b      	ldr	r3, [r3, #64]	; 0x40
 8001806:	f003 5380 	and.w	r3, r3, #268435456	; 0x10000000
 800180a:	9301      	str	r3, [sp, #4]
 800180c:	9b01      	ldr	r3, [sp, #4]
  /* System interrupt init*/

  /* USER CODE BEGIN MspInit 1 */

  /* USER CODE END MspInit 1 */
}
 800180e:	b002      	add	sp, #8
 8001810:	4770      	bx	lr
 8001812:	bf00      	nop
 8001814:	40023800 	.word	0x40023800

08001818 <HAL_RTC_MspInit>:
* This function configures the hardware resources used in this example
* @param hrtc: RTC handle pointer
* @retval None
*/
void HAL_RTC_MspInit(RTC_HandleTypeDef* hrtc)
{
 8001818:	b510      	push	{r4, lr}
 800181a:	4604      	mov	r4, r0
 800181c:	b098      	sub	sp, #96	; 0x60
  RCC_PeriphCLKInitTypeDef PeriphClkInitStruct = {0};
 800181e:	225c      	movs	r2, #92	; 0x5c
 8001820:	a801      	add	r0, sp, #4
 8001822:	2100      	movs	r1, #0
 8001824:	f001 f926 	bl	8002a74 <memset>
  if(hrtc->Instance==RTC)
 8001828:	6822      	ldr	r2, [r4, #0]
 800182a:	4b0b      	ldr	r3, [pc, #44]	; (8001858 <HAL_RTC_MspInit+0x40>)
 800182c:	429a      	cmp	r2, r3
 800182e:	d001      	beq.n	8001834 <HAL_RTC_MspInit+0x1c>
  /* USER CODE BEGIN RTC_MspInit 1 */

  /* USER CODE END RTC_MspInit 1 */
  }

}
 8001830:	b018      	add	sp, #96	; 0x60
 8001832:	bd10      	pop	{r4, pc}
    PeriphClkInitStruct.PeriphClockSelection = RCC_PERIPHCLK_RTC;
 8001834:	2220      	movs	r2, #32
    PeriphClkInitStruct.RTCClockSelection = RCC_RTCCLKSOURCE_LSI;
 8001836:	f44f 7300 	mov.w	r3, #512	; 0x200
    if (HAL_RCCEx_PeriphCLKConfig(&PeriphClkInitStruct) != HAL_OK)
 800183a:	a801      	add	r0, sp, #4
    PeriphClkInitStruct.PeriphClockSelection = RCC_PERIPHCLK_RTC;
 800183c:	9201      	str	r2, [sp, #4]
    PeriphClkInitStruct.RTCClockSelection = RCC_RTCCLKSOURCE_LSI;
 800183e:	9311      	str	r3, [sp, #68]	; 0x44
    if (HAL_RCCEx_PeriphCLKConfig(&PeriphClkInitStruct) != HAL_OK)
 8001840:	f000 fa46 	bl	8001cd0 <HAL_RCCEx_PeriphCLKConfig>
 8001844:	b920      	cbnz	r0, 8001850 <HAL_RTC_MspInit+0x38>
    __HAL_RCC_RTC_ENABLE();
 8001846:	4b05      	ldr	r3, [pc, #20]	; (800185c <HAL_RTC_MspInit+0x44>)
 8001848:	2201      	movs	r2, #1
 800184a:	601a      	str	r2, [r3, #0]
}
 800184c:	b018      	add	sp, #96	; 0x60
 800184e:	bd10      	pop	{r4, pc}
      Error_Handler();
 8001850:	f7ff ffc4 	bl	80017dc <Error_Handler>
 8001854:	e7f7      	b.n	8001846 <HAL_RTC_MspInit+0x2e>
 8001856:	bf00      	nop
 8001858:	40002800 	.word	0x40002800
 800185c:	42470e3c 	.word	0x42470e3c

08001860 <NMI_Handler>:
{
  /* USER CODE BEGIN NonMaskableInt_IRQn 0 */

  /* USER CODE END NonMaskableInt_IRQn 0 */
  /* USER CODE BEGIN NonMaskableInt_IRQn 1 */
  while (1)
 8001860:	e7fe      	b.n	8001860 <NMI_Handler>
 8001862:	bf00      	nop

08001864 <HardFault_Handler>:
void HardFault_Handler(void)
{
  /* USER CODE BEGIN HardFault_IRQn 0 */

  /* USER CODE END HardFault_IRQn 0 */
  while (1)
 8001864:	e7fe      	b.n	8001864 <HardFault_Handler>
 8001866:	bf00      	nop

08001868 <MemManage_Handler>:
void MemManage_Handler(void)
{
  /* USER CODE BEGIN MemoryManagement_IRQn 0 */

  /* USER CODE END MemoryManagement_IRQn 0 */
  while (1)
 8001868:	e7fe      	b.n	8001868 <MemManage_Handler>
 800186a:	bf00      	nop

0800186c <BusFault_Handler>:
void BusFault_Handler(void)
{
  /* USER CODE BEGIN BusFault_IRQn 0 */

  /* USER CODE END BusFault_IRQn 0 */
  while (1)
 800186c:	e7fe      	b.n	800186c <BusFault_Handler>
 800186e:	bf00      	nop

08001870 <UsageFault_Handler>:
void UsageFault_Handler(void)
{
  /* USER CODE BEGIN UsageFault_IRQn 0 */

  /* USER CODE END UsageFault_IRQn 0 */
  while (1)
 8001870:	e7fe      	b.n	8001870 <UsageFault_Handler>
 8001872:	bf00      	nop

08001874 <SVC_Handler>:

  /* USER CODE END SVCall_IRQn 0 */
  /* USER CODE BEGIN SVCall_IRQn 1 */

  /* USER CODE END SVCall_IRQn 1 */
}
 8001874:	4770      	bx	lr
 8001876:	bf00      	nop

08001878 <DebugMon_Handler>:
 8001878:	4770      	bx	lr
 800187a:	bf00      	nop

0800187c <PendSV_Handler>:
 800187c:	4770      	bx	lr
 800187e:	bf00      	nop

08001880 <SysTick_Handler>:
void SysTick_Handler(void)
{
  /* USER CODE BEGIN SysTick_IRQn 0 */

  /* USER CODE END SysTick_IRQn 0 */
  HAL_IncTick();
 8001880:	f000 b8c0 	b.w	8001a04 <HAL_IncTick>

08001884 <_getpid>:
}

int _getpid(void)
{
	return 1;
}
 8001884:	2001      	movs	r0, #1
 8001886:	4770      	bx	lr

08001888 <_kill>:

int _kill(int pid, int sig)
{
 8001888:	b508      	push	{r3, lr}
	errno = EINVAL;
 800188a:	f001 f897 	bl	80029bc <__errno>
 800188e:	2316      	movs	r3, #22
 8001890:	6003      	str	r3, [r0, #0]
	return -1;
}
 8001892:	f04f 30ff 	mov.w	r0, #4294967295	; 0xffffffff
 8001896:	bd08      	pop	{r3, pc}

08001898 <_exit>:

void _exit (int status)
{
 8001898:	b508      	push	{r3, lr}
	errno = EINVAL;
 800189a:	f001 f88f 	bl	80029bc <__errno>
 800189e:	2316      	movs	r3, #22
 80018a0:	6003      	str	r3, [r0, #0]
	_kill(status, -1);
	while (1) {}		/* Make sure we hang here */
 80018a2:	e7fe      	b.n	80018a2 <_exit+0xa>

080018a4 <_read>:
}

__attribute__((weak)) int _read(int file, char *ptr, int len)
{
 80018a4:	b570      	push	{r4, r5, r6, lr}
	int DataIdx;

	for (DataIdx = 0; DataIdx < len; DataIdx++)
 80018a6:	1e16      	subs	r6, r2, #0
 80018a8:	dd07      	ble.n	80018ba <_read+0x16>
 80018aa:	460c      	mov	r4, r1
 80018ac:	198d      	adds	r5, r1, r6
	{
		*ptr++ = __io_getchar();
 80018ae:	f3af 8000 	nop.w
 80018b2:	f804 0b01 	strb.w	r0, [r4], #1
	for (DataIdx = 0; DataIdx < len; DataIdx++)
 80018b6:	42a5      	cmp	r5, r4
 80018b8:	d1f9      	bne.n	80018ae <_read+0xa>
	}

return len;
}
 80018ba:	4630      	mov	r0, r6
 80018bc:	bd70      	pop	{r4, r5, r6, pc}
 80018be:	bf00      	nop

080018c0 <_close>:
}

int _close(int file)
{
	return -1;
}
 80018c0:	f04f 30ff 	mov.w	r0, #4294967295	; 0xffffffff
 80018c4:	4770      	bx	lr
 80018c6:	bf00      	nop

080018c8 <_fstat>:


int _fstat(int file, struct stat *st)
{
	st->st_mode = S_IFCHR;
 80018c8:	f44f 5300 	mov.w	r3, #8192	; 0x2000
 80018cc:	604b      	str	r3, [r1, #4]
	return 0;
}
 80018ce:	2000      	movs	r0, #0
 80018d0:	4770      	bx	lr
 80018d2:	bf00      	nop

080018d4 <_isatty>:

int _isatty(int file)
{
	return 1;
}
 80018d4:	2001      	movs	r0, #1
 80018d6:	4770      	bx	lr

080018d8 <_lseek>:

int _lseek(int file, int ptr, int dir)
{
	return 0;
}
 80018d8:	2000      	movs	r0, #0
 80018da:	4770      	bx	lr

080018dc <_sbrk>:
  const uint32_t stack_limit = (uint32_t)&_estack - (uint32_t)&_Min_Stack_Size;
  const uint8_t *max_heap = (uint8_t *)stack_limit;
  uint8_t *prev_heap_end;

  /* Initialize heap end at first call */
  if (NULL == __sbrk_heap_end)
 80018dc:	490c      	ldr	r1, [pc, #48]	; (8001910 <_sbrk+0x34>)
  const uint32_t stack_limit = (uint32_t)&_estack - (uint32_t)&_Min_Stack_Size;
 80018de:	4a0d      	ldr	r2, [pc, #52]	; (8001914 <_sbrk+0x38>)
  if (NULL == __sbrk_heap_end)
 80018e0:	680b      	ldr	r3, [r1, #0]
{
 80018e2:	b510      	push	{r4, lr}
  const uint32_t stack_limit = (uint32_t)&_estack - (uint32_t)&_Min_Stack_Size;
 80018e4:	4c0c      	ldr	r4, [pc, #48]	; (8001918 <_sbrk+0x3c>)
 80018e6:	1b12      	subs	r2, r2, r4
  if (NULL == __sbrk_heap_end)
 80018e8:	b12b      	cbz	r3, 80018f6 <_sbrk+0x1a>
  {
    __sbrk_heap_end = &_end;
  }

  /* Protect heap from growing into the reserved MSP stack */
  if (__sbrk_heap_end + incr > max_heap)
 80018ea:	4418      	add	r0, r3
 80018ec:	4290      	cmp	r0, r2
 80018ee:	d807      	bhi.n	8001900 <_sbrk+0x24>
    errno = ENOMEM;
    return (void *)-1;
  }

  prev_heap_end = __sbrk_heap_end;
  __sbrk_heap_end += incr;
 80018f0:	6008      	str	r0, [r1, #0]

  return (void *)prev_heap_end;
}
 80018f2:	4618      	mov	r0, r3
 80018f4:	bd10      	pop	{r4, pc}
    __sbrk_heap_end = &_end;
 80018f6:	4b09      	ldr	r3, [pc, #36]	; (800191c <_sbrk+0x40>)
 80018f8:	600b      	str	r3, [r1, #0]
  if (__sbrk_heap_end + incr > max_heap)
 80018fa:	4418      	add	r0, r3
 80018fc:	4290      	cmp	r0, r2
 80018fe:	d9f7      	bls.n	80018f0 <_sbrk+0x14>
    errno = ENOMEM;
 8001900:	f001 f85c 	bl	80029bc <__errno>
 8001904:	230c      	movs	r3, #12
 8001906:	6003      	str	r3, [r0, #0]
    return (void *)-1;
 8001908:	f04f 33ff 	mov.w	r3, #4294967295	; 0xffffffff
}
 800190c:	4618      	mov	r0, r3
 800190e:	bd10      	pop	{r4, pc}
 8001910:	200001fc 	.word	0x200001fc
 8001914:	20020000 	.word	0x20020000
 8001918:	00000400 	.word	0x00000400
 800191c:	20000240 	.word	0x20000240

08001920 <SystemInit>:
  */
void SystemInit(void)
{
  /* FPU settings ------------------------------------------------------------*/
  #if (__FPU_PRESENT == 1) && (__FPU_USED == 1)
    SCB->CPACR |= ((3UL << 10*2)|(3UL << 11*2));  /* set CP10 and CP11 Full Access */
 8001920:	4a03      	ldr	r2, [pc, #12]	; (8001930 <SystemInit+0x10>)
 8001922:	f8d2 3088 	ldr.w	r3, [r2, #136]	; 0x88
 8001926:	f443 0370 	orr.w	r3, r3, #15728640	; 0xf00000
 800192a:	f8c2 3088 	str.w	r3, [r2, #136]	; 0x88

  /* Configure the Vector Table location -------------------------------------*/
#if defined(USER_VECT_TAB_ADDRESS)
  SCB->VTOR = VECT_TAB_BASE_ADDRESS | VECT_TAB_OFFSET; /* Vector Table Relocation in Internal SRAM */
#endif /* USER_VECT_TAB_ADDRESS */
}
 800192e:	4770      	bx	lr
 8001930:	e000ed00 	.word	0xe000ed00

08001934 <Reset_Handler>:

    .section  .text.Reset_Handler
  .weak  Reset_Handler
  .type  Reset_Handler, %function
Reset_Handler:  
  ldr   sp, =_estack      /* set stack pointer */
 8001934:	f8df d034 	ldr.w	sp, [pc, #52]	; 800196c <LoopFillZerobss+0x12>

/* Copy the data segment initializers from flash to SRAM */  
  ldr r0, =_sdata
 8001938:	480d      	ldr	r0, [pc, #52]	; (8001970 <LoopFillZerobss+0x16>)
  ldr r1, =_edata
 800193a:	490e      	ldr	r1, [pc, #56]	; (8001974 <LoopFillZerobss+0x1a>)
  ldr r2, =_sidata
 800193c:	4a0e      	ldr	r2, [pc, #56]	; (8001978 <LoopFillZerobss+0x1e>)
  movs r3, #0
 800193e:	2300      	movs	r3, #0
  b LoopCopyDataInit
 8001940:	e002      	b.n	8001948 <LoopCopyDataInit>

08001942 <CopyDataInit>:

CopyDataInit:
  ldr r4, [r2, r3]
 8001942:	58d4      	ldr	r4, [r2, r3]
  str r4, [r0, r3]
 8001944:	50c4      	str	r4, [r0, r3]
  adds r3, r3, #4
 8001946:	3304      	adds	r3, #4

08001948 <LoopCopyDataInit>:

LoopCopyDataInit:
  adds r4, r0, r3
 8001948:	18c4      	adds	r4, r0, r3
  cmp r4, r1
 800194a:	428c      	cmp	r4, r1
  bcc CopyDataInit
 800194c:	d3f9      	bcc.n	8001942 <CopyDataInit>
  
/* Zero fill the bss segment. */
  ldr r2, =_sbss
 800194e:	4a0b      	ldr	r2, [pc, #44]	; (800197c <LoopFillZerobss+0x22>)
  ldr r4, =_ebss
 8001950:	4c0b      	ldr	r4, [pc, #44]	; (8001980 <LoopFillZerobss+0x26>)
  movs r3, #0
 8001952:	2300      	movs	r3, #0
  b LoopFillZerobss
 8001954:	e001      	b.n	800195a <LoopFillZerobss>

08001956 <FillZerobss>:

FillZerobss:
  str  r3, [r2]
 8001956:	6013      	str	r3, [r2, #0]
  adds r2, r2, #4
 8001958:	3204      	adds	r2, #4

0800195a <LoopFillZerobss>:

LoopFillZerobss:
  cmp r2, r4
 800195a:	42a2      	cmp	r2, r4
  bcc FillZerobss
 800195c:	d3fb      	bcc.n	8001956 <FillZerobss>

/* Call the clock system intitialization function.*/
  bl  SystemInit   
 800195e:	f7ff ffdf 	bl	8001920 <SystemInit>
/* Call static constructors */
    bl __libc_init_array
 8001962:	f001 f845 	bl	80029f0 <__libc_init_array>
/* Call the application's entry point.*/
  bl  main
 8001966:	f7ff fd83 	bl	8001470 <main>
  bx  lr    
 800196a:	4770      	bx	lr
  ldr   sp, =_estack      /* set stack pointer */
 800196c:	20020000 	.word	0x20020000
  ldr r0, =_sdata
 8001970:	20000000 	.word	0x20000000
  ldr r1, =_edata
 8001974:	200001e0 	.word	0x200001e0
  ldr r2, =_sidata
 8001978:	0800632c 	.word	0x0800632c
  ldr r2, =_sbss
 800197c:	200001e0 	.word	0x200001e0
  ldr r4, =_ebss
 8001980:	2000023c 	.word	0x2000023c

08001984 <ADC_IRQHandler>:
 * @retval None       
*/
    .section  .text.Default_Handler,"ax",%progbits
Default_Handler:
Infinite_Loop:
  b  Infinite_Loop
 8001984:	e7fe      	b.n	8001984 <ADC_IRQHandler>
	...

08001988 <HAL_InitTick>:
  *       implementation  in user file.
  * @param TickPriority Tick interrupt priority.
  * @retval HAL status
  */
__weak HAL_StatusTypeDef HAL_InitTick(uint32_t TickPriority)
{
 8001988:	b538      	push	{r3, r4, r5, lr}
  /* Configure the SysTick to have interrupt in 1ms time basis*/
  if (HAL_SYSTICK_Config(SystemCoreClock / (1000U / uwTickFreq)) > 0U)
 800198a:	4a0e      	ldr	r2, [pc, #56]	; (80019c4 <HAL_InitTick+0x3c>)
 800198c:	4b0e      	ldr	r3, [pc, #56]	; (80019c8 <HAL_InitTick+0x40>)
 800198e:	7812      	ldrb	r2, [r2, #0]
 8001990:	681b      	ldr	r3, [r3, #0]
{
 8001992:	4605      	mov	r5, r0
  if (HAL_SYSTICK_Config(SystemCoreClock / (1000U / uwTickFreq)) > 0U)
 8001994:	f44f 707a 	mov.w	r0, #1000	; 0x3e8
 8001998:	fbb0 f0f2 	udiv	r0, r0, r2
 800199c:	fbb3 f0f0 	udiv	r0, r3, r0
 80019a0:	f000 f8a0 	bl	8001ae4 <HAL_SYSTICK_Config>
 80019a4:	b908      	cbnz	r0, 80019aa <HAL_InitTick+0x22>
  {
    return HAL_ERROR;
  }

  /* Configure the SysTick IRQ priority */
  if (TickPriority < (1UL << __NVIC_PRIO_BITS))
 80019a6:	2d0f      	cmp	r5, #15
 80019a8:	d901      	bls.n	80019ae <HAL_InitTick+0x26>
    return HAL_ERROR;
 80019aa:	2001      	movs	r0, #1
    return HAL_ERROR;
  }

  /* Return function status */
  return HAL_OK;
}
 80019ac:	bd38      	pop	{r3, r4, r5, pc}
 80019ae:	4604      	mov	r4, r0
    HAL_NVIC_SetPriority(SysTick_IRQn, TickPriority, 0U);
 80019b0:	4602      	mov	r2, r0
 80019b2:	4629      	mov	r1, r5
 80019b4:	f04f 30ff 	mov.w	r0, #4294967295	; 0xffffffff
 80019b8:	f000 f85c 	bl	8001a74 <HAL_NVIC_SetPriority>
    uwTickPrio = TickPriority;
 80019bc:	4b03      	ldr	r3, [pc, #12]	; (80019cc <HAL_InitTick+0x44>)
 80019be:	4620      	mov	r0, r4
 80019c0:	601d      	str	r5, [r3, #0]
}
 80019c2:	bd38      	pop	{r3, r4, r5, pc}
 80019c4:	20000004 	.word	0x20000004
 80019c8:	20000000 	.word	0x20000000
 80019cc:	20000008 	.word	0x20000008

080019d0 <HAL_Init>:
{
 80019d0:	b508      	push	{r3, lr}
  __HAL_FLASH_INSTRUCTION_CACHE_ENABLE();
 80019d2:	4b0b      	ldr	r3, [pc, #44]	; (8001a00 <HAL_Init+0x30>)
 80019d4:	681a      	ldr	r2, [r3, #0]
 80019d6:	f442 7200 	orr.w	r2, r2, #512	; 0x200
 80019da:	601a      	str	r2, [r3, #0]
  __HAL_FLASH_DATA_CACHE_ENABLE();
 80019dc:	681a      	ldr	r2, [r3, #0]
 80019de:	f442 6280 	orr.w	r2, r2, #1024	; 0x400
 80019e2:	601a      	str	r2, [r3, #0]
  __HAL_FLASH_PREFETCH_BUFFER_ENABLE();
 80019e4:	681a      	ldr	r2, [r3, #0]
 80019e6:	f442 7280 	orr.w	r2, r2, #256	; 0x100
 80019ea:	601a      	str	r2, [r3, #0]
  HAL_NVIC_SetPriorityGrouping(NVIC_PRIORITYGROUP_4);
 80019ec:	2003      	movs	r0, #3
 80019ee:	f000 f82d 	bl	8001a4c <HAL_NVIC_SetPriorityGrouping>
  HAL_InitTick(TICK_INT_PRIORITY);
 80019f2:	200f      	movs	r0, #15
 80019f4:	f7ff ffc8 	bl	8001988 <HAL_InitTick>
  HAL_MspInit();
 80019f8:	f7ff fef2 	bl	80017e0 <HAL_MspInit>
}
 80019fc:	2000      	movs	r0, #0
 80019fe:	bd08      	pop	{r3, pc}
 8001a00:	40023c00 	.word	0x40023c00

08001a04 <HAL_IncTick>:
  *      implementations in user file.
  * @retval None
  */
__weak void HAL_IncTick(void)
{
  uwTick += uwTickFreq;
 8001a04:	4a03      	ldr	r2, [pc, #12]	; (8001a14 <HAL_IncTick+0x10>)
 8001a06:	4b04      	ldr	r3, [pc, #16]	; (8001a18 <HAL_IncTick+0x14>)
 8001a08:	6811      	ldr	r1, [r2, #0]
 8001a0a:	781b      	ldrb	r3, [r3, #0]
 8001a0c:	440b      	add	r3, r1
 8001a0e:	6013      	str	r3, [r2, #0]
}
 8001a10:	4770      	bx	lr
 8001a12:	bf00      	nop
 8001a14:	20000228 	.word	0x20000228
 8001a18:	20000004 	.word	0x20000004

08001a1c <HAL_GetTick>:
  *       implementations in user file.
  * @retval tick value
  */
__weak uint32_t HAL_GetTick(void)
{
  return uwTick;
 8001a1c:	4b01      	ldr	r3, [pc, #4]	; (8001a24 <HAL_GetTick+0x8>)
 8001a1e:	6818      	ldr	r0, [r3, #0]
}
 8001a20:	4770      	bx	lr
 8001a22:	bf00      	nop
 8001a24:	20000228 	.word	0x20000228

08001a28 <HAL_Delay>:
  *       implementations in user file.
  * @param Delay specifies the delay time length, in milliseconds.
  * @retval None
  */
__weak void HAL_Delay(uint32_t Delay)
{
 8001a28:	b538      	push	{r3, r4, r5, lr}
 8001a2a:	4604      	mov	r4, r0
  uint32_t tickstart = HAL_GetTick();
 8001a2c:	f7ff fff6 	bl	8001a1c <HAL_GetTick>
  uint32_t wait = Delay;

  /* Add a freq to guarantee minimum wait */
  if (wait < HAL_MAX_DELAY)
 8001a30:	1c63      	adds	r3, r4, #1
  uint32_t tickstart = HAL_GetTick();
 8001a32:	4605      	mov	r5, r0
  if (wait < HAL_MAX_DELAY)
 8001a34:	d002      	beq.n	8001a3c <HAL_Delay+0x14>
  {
    wait += (uint32_t)(uwTickFreq);
 8001a36:	4b04      	ldr	r3, [pc, #16]	; (8001a48 <HAL_Delay+0x20>)
 8001a38:	781b      	ldrb	r3, [r3, #0]
 8001a3a:	441c      	add	r4, r3
  }

  while((HAL_GetTick() - tickstart) < wait)
 8001a3c:	f7ff ffee 	bl	8001a1c <HAL_GetTick>
 8001a40:	1b43      	subs	r3, r0, r5
 8001a42:	42a3      	cmp	r3, r4
 8001a44:	d3fa      	bcc.n	8001a3c <HAL_Delay+0x14>
  {
  }
}
 8001a46:	bd38      	pop	{r3, r4, r5, pc}
 8001a48:	20000004 	.word	0x20000004

08001a4c <HAL_NVIC_SetPriorityGrouping>:
  reg_value  =  SCB->AIRCR;                                                   /* read old register configuration    */
 8001a4c:	4908      	ldr	r1, [pc, #32]	; (8001a70 <HAL_NVIC_SetPriorityGrouping+0x24>)
 8001a4e:	68ca      	ldr	r2, [r1, #12]
  * @note   When the NVIC_PriorityGroup_0 is selected, IRQ preemption is no more possible. 
  *         The pending IRQ priority will be managed only by the subpriority. 
  * @retval None
  */
void HAL_NVIC_SetPriorityGrouping(uint32_t PriorityGroup)
{
 8001a50:	b410      	push	{r4}
                (PriorityGroupTmp << SCB_AIRCR_PRIGROUP_Pos)  );              /* Insert write key and priority group */
 8001a52:	0200      	lsls	r0, r0, #8
  reg_value &= ~((uint32_t)(SCB_AIRCR_VECTKEY_Msk | SCB_AIRCR_PRIGROUP_Msk)); /* clear bits to change               */
 8001a54:	f64f 04ff 	movw	r4, #63743	; 0xf8ff
 8001a58:	4022      	ands	r2, r4
                (PriorityGroupTmp << SCB_AIRCR_PRIGROUP_Pos)  );              /* Insert write key and priority group */
 8001a5a:	f400 63e0 	and.w	r3, r0, #1792	; 0x700
                ((uint32_t)0x5FAUL << SCB_AIRCR_VECTKEY_Pos) |
 8001a5e:	4313      	orrs	r3, r2
  reg_value  =  (reg_value                                   |
 8001a60:	f043 63bf 	orr.w	r3, r3, #100139008	; 0x5f80000
 8001a64:	f443 3300 	orr.w	r3, r3, #131072	; 0x20000
  /* Check the parameters */
  assert_param(IS_NVIC_PRIORITY_GROUP(PriorityGroup));
  
  /* Set the PRIGROUP[10:8] bits according to the PriorityGroup parameter value */
  NVIC_SetPriorityGrouping(PriorityGroup);
}
 8001a68:	f85d 4b04 	ldr.w	r4, [sp], #4
  SCB->AIRCR =  reg_value;
 8001a6c:	60cb      	str	r3, [r1, #12]
 8001a6e:	4770      	bx	lr
 8001a70:	e000ed00 	.word	0xe000ed00

08001a74 <HAL_NVIC_SetPriority>:
  return ((uint32_t)((SCB->AIRCR & SCB_AIRCR_PRIGROUP_Msk) >> SCB_AIRCR_PRIGROUP_Pos));
 8001a74:	4b19      	ldr	r3, [pc, #100]	; (8001adc <HAL_NVIC_SetPriority+0x68>)
 8001a76:	68db      	ldr	r3, [r3, #12]
 8001a78:	f3c3 2302 	ubfx	r3, r3, #8, #3
  *         This parameter can be a value between 0 and 15
  *         A lower priority value indicates a higher priority.          
  * @retval None
  */
void HAL_NVIC_SetPriority(IRQn_Type IRQn, uint32_t PreemptPriority, uint32_t SubPriority)
{ 
 8001a7c:	b430      	push	{r4, r5}
  PreemptPriorityBits = ((7UL - PriorityGroupTmp) > (uint32_t)(__NVIC_PRIO_BITS)) ? (uint32_t)(__NVIC_PRIO_BITS) : (uint32_t)(7UL - PriorityGroupTmp);
 8001a7e:	f1c3 0507 	rsb	r5, r3, #7
 8001a82:	2d04      	cmp	r5, #4
  SubPriorityBits     = ((PriorityGroupTmp + (uint32_t)(__NVIC_PRIO_BITS)) < (uint32_t)7UL) ? (uint32_t)0UL : (uint32_t)((PriorityGroupTmp - 7UL) + (uint32_t)(__NVIC_PRIO_BITS));
 8001a84:	f103 0404 	add.w	r4, r3, #4
  PreemptPriorityBits = ((7UL - PriorityGroupTmp) > (uint32_t)(__NVIC_PRIO_BITS)) ? (uint32_t)(__NVIC_PRIO_BITS) : (uint32_t)(7UL - PriorityGroupTmp);
 8001a88:	bf28      	it	cs
 8001a8a:	2504      	movcs	r5, #4
  SubPriorityBits     = ((PriorityGroupTmp + (uint32_t)(__NVIC_PRIO_BITS)) < (uint32_t)7UL) ? (uint32_t)0UL : (uint32_t)((PriorityGroupTmp - 7UL) + (uint32_t)(__NVIC_PRIO_BITS));
 8001a8c:	2c06      	cmp	r4, #6
 8001a8e:	d919      	bls.n	8001ac4 <HAL_NVIC_SetPriority+0x50>
 8001a90:	3b03      	subs	r3, #3
 8001a92:	f04f 34ff 	mov.w	r4, #4294967295	; 0xffffffff
 8001a96:	409c      	lsls	r4, r3
 8001a98:	ea22 0204 	bic.w	r2, r2, r4
           ((PreemptPriority & (uint32_t)((1UL << (PreemptPriorityBits)) - 1UL)) << SubPriorityBits) |
 8001a9c:	f04f 34ff 	mov.w	r4, #4294967295	; 0xffffffff
 8001aa0:	40ac      	lsls	r4, r5
 8001aa2:	ea21 0104 	bic.w	r1, r1, r4
 8001aa6:	4099      	lsls	r1, r3
  if ((int32_t)(IRQn) >= 0)
 8001aa8:	2800      	cmp	r0, #0
           ((PreemptPriority & (uint32_t)((1UL << (PreemptPriorityBits)) - 1UL)) << SubPriorityBits) |
 8001aaa:	ea41 0102 	orr.w	r1, r1, r2
  if ((int32_t)(IRQn) >= 0)
 8001aae:	db0c      	blt.n	8001aca <HAL_NVIC_SetPriority+0x56>
    NVIC->IP[((uint32_t)IRQn)]               = (uint8_t)((priority << (8U - __NVIC_PRIO_BITS)) & (uint32_t)0xFFUL);
 8001ab0:	f100 4060 	add.w	r0, r0, #3758096384	; 0xe0000000
 8001ab4:	f500 4061 	add.w	r0, r0, #57600	; 0xe100
 8001ab8:	0109      	lsls	r1, r1, #4
 8001aba:	b2c9      	uxtb	r1, r1
 8001abc:	f880 1300 	strb.w	r1, [r0, #768]	; 0x300
  assert_param(IS_NVIC_PREEMPTION_PRIORITY(PreemptPriority));
  
  prioritygroup = NVIC_GetPriorityGrouping();
  
  NVIC_SetPriority(IRQn, NVIC_EncodePriority(prioritygroup, PreemptPriority, SubPriority));
}
 8001ac0:	bc30      	pop	{r4, r5}
 8001ac2:	4770      	bx	lr
 8001ac4:	2200      	movs	r2, #0
  SubPriorityBits     = ((PriorityGroupTmp + (uint32_t)(__NVIC_PRIO_BITS)) < (uint32_t)7UL) ? (uint32_t)0UL : (uint32_t)((PriorityGroupTmp - 7UL) + (uint32_t)(__NVIC_PRIO_BITS));
 8001ac6:	4613      	mov	r3, r2
 8001ac8:	e7e8      	b.n	8001a9c <HAL_NVIC_SetPriority+0x28>
    SCB->SHP[(((uint32_t)IRQn) & 0xFUL)-4UL] = (uint8_t)((priority << (8U - __NVIC_PRIO_BITS)) & (uint32_t)0xFFUL);
 8001aca:	4b05      	ldr	r3, [pc, #20]	; (8001ae0 <HAL_NVIC_SetPriority+0x6c>)
 8001acc:	f000 000f 	and.w	r0, r0, #15
 8001ad0:	0109      	lsls	r1, r1, #4
 8001ad2:	4403      	add	r3, r0
 8001ad4:	b2c9      	uxtb	r1, r1
 8001ad6:	7619      	strb	r1, [r3, #24]
 8001ad8:	bc30      	pop	{r4, r5}
 8001ada:	4770      	bx	lr
 8001adc:	e000ed00 	.word	0xe000ed00
 8001ae0:	e000ecfc 	.word	0xe000ecfc

08001ae4 <HAL_SYSTICK_Config>:
  if ((ticks - 1UL) > SysTick_LOAD_RELOAD_Msk)
 8001ae4:	3801      	subs	r0, #1
 8001ae6:	f1b0 7f80 	cmp.w	r0, #16777216	; 0x1000000
 8001aea:	d20e      	bcs.n	8001b0a <HAL_SYSTICK_Config+0x26>
  SysTick->LOAD  = (uint32_t)(ticks - 1UL);                         /* set reload register */
 8001aec:	4b08      	ldr	r3, [pc, #32]	; (8001b10 <HAL_SYSTICK_Config+0x2c>)
  * @param  TicksNumb Specifies the ticks Number of ticks between two interrupts.
  * @retval status:  - 0  Function succeeded.
  *                  - 1  Function failed.
  */
uint32_t HAL_SYSTICK_Config(uint32_t TicksNumb)
{
 8001aee:	b410      	push	{r4}
    SCB->SHP[(((uint32_t)IRQn) & 0xFUL)-4UL] = (uint8_t)((priority << (8U - __NVIC_PRIO_BITS)) & (uint32_t)0xFFUL);
 8001af0:	4c08      	ldr	r4, [pc, #32]	; (8001b14 <HAL_SYSTICK_Config+0x30>)
  SysTick->LOAD  = (uint32_t)(ticks - 1UL);                         /* set reload register */
 8001af2:	6058      	str	r0, [r3, #4]
    SCB->SHP[(((uint32_t)IRQn) & 0xFUL)-4UL] = (uint8_t)((priority << (8U - __NVIC_PRIO_BITS)) & (uint32_t)0xFFUL);
 8001af4:	20f0      	movs	r0, #240	; 0xf0
 8001af6:	f884 0023 	strb.w	r0, [r4, #35]	; 0x23
  SysTick->VAL   = 0UL;                                             /* Load the SysTick Counter Value */
 8001afa:	2200      	movs	r2, #0
  SysTick->CTRL  = SysTick_CTRL_CLKSOURCE_Msk |
 8001afc:	2107      	movs	r1, #7
  return (0UL);                                                     /* Function successful */
 8001afe:	4610      	mov	r0, r2
  SysTick->VAL   = 0UL;                                             /* Load the SysTick Counter Value */
 8001b00:	609a      	str	r2, [r3, #8]
   return SysTick_Config(TicksNumb);
}
 8001b02:	f85d 4b04 	ldr.w	r4, [sp], #4
  SysTick->CTRL  = SysTick_CTRL_CLKSOURCE_Msk |
 8001b06:	6019      	str	r1, [r3, #0]
 8001b08:	4770      	bx	lr
    return (1UL);                                                   /* Reload value impossible */
 8001b0a:	2001      	movs	r0, #1
 8001b0c:	4770      	bx	lr
 8001b0e:	bf00      	nop
 8001b10:	e000e010 	.word	0xe000e010
 8001b14:	e000ed00 	.word	0xe000ed00

08001b18 <HAL_PWREx_EnableOverDrive>:
  *         During the Over-drive switch activation, no peripheral clocks should be enabled.   
  *         The peripheral clocks must be enabled once the Over-drive mode is activated.   
  * @retval HAL status
  */
HAL_StatusTypeDef HAL_PWREx_EnableOverDrive(void)
{
 8001b18:	b530      	push	{r4, r5, lr}
 8001b1a:	b083      	sub	sp, #12
  uint32_t tickstart = 0U;

  __HAL_RCC_PWR_CLK_ENABLE();
 8001b1c:	4b19      	ldr	r3, [pc, #100]	; (8001b84 <HAL_PWREx_EnableOverDrive+0x6c>)
  
  /* Enable the Over-drive to extend the clock frequency to 180 Mhz */
  __HAL_PWR_OVERDRIVE_ENABLE();
 8001b1e:	491a      	ldr	r1, [pc, #104]	; (8001b88 <HAL_PWREx_EnableOverDrive+0x70>)

  /* Get tick */
  tickstart = HAL_GetTick();

  while(!__HAL_PWR_GET_FLAG(PWR_FLAG_ODRDY))
 8001b20:	4d1a      	ldr	r5, [pc, #104]	; (8001b8c <HAL_PWREx_EnableOverDrive+0x74>)
  __HAL_RCC_PWR_CLK_ENABLE();
 8001b22:	2200      	movs	r2, #0
 8001b24:	9201      	str	r2, [sp, #4]
 8001b26:	6c1a      	ldr	r2, [r3, #64]	; 0x40
 8001b28:	f042 5280 	orr.w	r2, r2, #268435456	; 0x10000000
 8001b2c:	641a      	str	r2, [r3, #64]	; 0x40
 8001b2e:	6c1b      	ldr	r3, [r3, #64]	; 0x40
 8001b30:	f003 5380 	and.w	r3, r3, #268435456	; 0x10000000
 8001b34:	9301      	str	r3, [sp, #4]
  __HAL_PWR_OVERDRIVE_ENABLE();
 8001b36:	2301      	movs	r3, #1
  __HAL_RCC_PWR_CLK_ENABLE();
 8001b38:	9a01      	ldr	r2, [sp, #4]
  __HAL_PWR_OVERDRIVE_ENABLE();
 8001b3a:	600b      	str	r3, [r1, #0]
  tickstart = HAL_GetTick();
 8001b3c:	f7ff ff6e 	bl	8001a1c <HAL_GetTick>
 8001b40:	4604      	mov	r4, r0
  while(!__HAL_PWR_GET_FLAG(PWR_FLAG_ODRDY))
 8001b42:	e005      	b.n	8001b50 <HAL_PWREx_EnableOverDrive+0x38>
  {
    if((HAL_GetTick() - tickstart) > PWR_OVERDRIVE_TIMEOUT_VALUE)
 8001b44:	f7ff ff6a 	bl	8001a1c <HAL_GetTick>
 8001b48:	1b00      	subs	r0, r0, r4
 8001b4a:	f5b0 7f7a 	cmp.w	r0, #1000	; 0x3e8
 8001b4e:	d816      	bhi.n	8001b7e <HAL_PWREx_EnableOverDrive+0x66>
  while(!__HAL_PWR_GET_FLAG(PWR_FLAG_ODRDY))
 8001b50:	686b      	ldr	r3, [r5, #4]
 8001b52:	03da      	lsls	r2, r3, #15
 8001b54:	d5f6      	bpl.n	8001b44 <HAL_PWREx_EnableOverDrive+0x2c>
      return HAL_TIMEOUT;
    }
  }
  
  /* Enable the Over-drive switch */
  __HAL_PWR_OVERDRIVESWITCHING_ENABLE();
 8001b56:	4b0e      	ldr	r3, [pc, #56]	; (8001b90 <HAL_PWREx_EnableOverDrive+0x78>)

  /* Get tick */
  tickstart = HAL_GetTick();

  while(!__HAL_PWR_GET_FLAG(PWR_FLAG_ODSWRDY))
 8001b58:	4d0c      	ldr	r5, [pc, #48]	; (8001b8c <HAL_PWREx_EnableOverDrive+0x74>)
  __HAL_PWR_OVERDRIVESWITCHING_ENABLE();
 8001b5a:	2201      	movs	r2, #1
 8001b5c:	601a      	str	r2, [r3, #0]
  tickstart = HAL_GetTick();
 8001b5e:	f7ff ff5d 	bl	8001a1c <HAL_GetTick>
 8001b62:	4604      	mov	r4, r0
  while(!__HAL_PWR_GET_FLAG(PWR_FLAG_ODSWRDY))
 8001b64:	e005      	b.n	8001b72 <HAL_PWREx_EnableOverDrive+0x5a>
  {
    if((HAL_GetTick() - tickstart ) > PWR_OVERDRIVE_TIMEOUT_VALUE)
 8001b66:	f7ff ff59 	bl	8001a1c <HAL_GetTick>
 8001b6a:	1b00      	subs	r0, r0, r4
 8001b6c:	f5b0 7f7a 	cmp.w	r0, #1000	; 0x3e8
 8001b70:	d805      	bhi.n	8001b7e <HAL_PWREx_EnableOverDrive+0x66>
  while(!__HAL_PWR_GET_FLAG(PWR_FLAG_ODSWRDY))
 8001b72:	686b      	ldr	r3, [r5, #4]
 8001b74:	039b      	lsls	r3, r3, #14
 8001b76:	d5f6      	bpl.n	8001b66 <HAL_PWREx_EnableOverDrive+0x4e>
    {
      return HAL_TIMEOUT;
    }
  } 
  return HAL_OK;
 8001b78:	2000      	movs	r0, #0
}
 8001b7a:	b003      	add	sp, #12
 8001b7c:	bd30      	pop	{r4, r5, pc}
      return HAL_TIMEOUT;
 8001b7e:	2003      	movs	r0, #3
}
 8001b80:	b003      	add	sp, #12
 8001b82:	bd30      	pop	{r4, r5, pc}
 8001b84:	40023800 	.word	0x40023800
 8001b88:	420e0040 	.word	0x420e0040
 8001b8c:	40007000 	.word	0x40007000
 8001b90:	420e0044 	.word	0x420e0044

08001b94 <HAL_RCC_ClockConfig>:
HAL_StatusTypeDef HAL_RCC_ClockConfig(RCC_ClkInitTypeDef  *RCC_ClkInitStruct, uint32_t FLatency)
{
  uint32_t tickstart;

  /* Check Null pointer */
  if(RCC_ClkInitStruct == NULL)
 8001b94:	2800      	cmp	r0, #0
 8001b96:	f000 8087 	beq.w	8001ca8 <HAL_RCC_ClockConfig+0x114>
  /* To correctly read data from FLASH memory, the number of wait states (LATENCY)
    must be correctly programmed according to the frequency of the CPU clock
    (HCLK) and the supply voltage of the device. */

  /* Increasing the number of wait states because of higher CPU frequency */
  if(FLatency > __HAL_FLASH_GET_LATENCY())
 8001b9a:	4a48      	ldr	r2, [pc, #288]	; (8001cbc <HAL_RCC_ClockConfig+0x128>)
 8001b9c:	6813      	ldr	r3, [r2, #0]
 8001b9e:	f003 030f 	and.w	r3, r3, #15
 8001ba2:	428b      	cmp	r3, r1
{
 8001ba4:	e92d 41f0 	stmdb	sp!, {r4, r5, r6, r7, r8, lr}
 8001ba8:	460d      	mov	r5, r1
 8001baa:	4604      	mov	r4, r0
  if(FLatency > __HAL_FLASH_GET_LATENCY())
 8001bac:	d209      	bcs.n	8001bc2 <HAL_RCC_ClockConfig+0x2e>
  {
    /* Program the new number of wait states to the LATENCY bits in the FLASH_ACR register */
    __HAL_FLASH_SET_LATENCY(FLatency);
 8001bae:	b2cb      	uxtb	r3, r1
 8001bb0:	7013      	strb	r3, [r2, #0]

    /* Check that the new number of wait states is taken into account to access the Flash
    memory by reading the FLASH_ACR register */
    if(__HAL_FLASH_GET_LATENCY() != FLatency)
 8001bb2:	6813      	ldr	r3, [r2, #0]
 8001bb4:	f003 030f 	and.w	r3, r3, #15
 8001bb8:	428b      	cmp	r3, r1
 8001bba:	d002      	beq.n	8001bc2 <HAL_RCC_ClockConfig+0x2e>
    return HAL_ERROR;
 8001bbc:	2001      	movs	r0, #1

  /* Configure the source of time base considering new system clocks settings */
  HAL_InitTick (uwTickPrio);

  return HAL_OK;
}
 8001bbe:	e8bd 81f0 	ldmia.w	sp!, {r4, r5, r6, r7, r8, pc}
  if(((RCC_ClkInitStruct->ClockType) & RCC_CLOCKTYPE_HCLK) == RCC_CLOCKTYPE_HCLK)
 8001bc2:	6823      	ldr	r3, [r4, #0]
 8001bc4:	0798      	lsls	r0, r3, #30
 8001bc6:	d514      	bpl.n	8001bf2 <HAL_RCC_ClockConfig+0x5e>
    if(((RCC_ClkInitStruct->ClockType) & RCC_CLOCKTYPE_PCLK1) == RCC_CLOCKTYPE_PCLK1)
 8001bc8:	0759      	lsls	r1, r3, #29
 8001bca:	d504      	bpl.n	8001bd6 <HAL_RCC_ClockConfig+0x42>
      MODIFY_REG(RCC->CFGR, RCC_CFGR_PPRE1, RCC_HCLK_DIV16);
 8001bcc:	493c      	ldr	r1, [pc, #240]	; (8001cc0 <HAL_RCC_ClockConfig+0x12c>)
 8001bce:	688a      	ldr	r2, [r1, #8]
 8001bd0:	f442 52e0 	orr.w	r2, r2, #7168	; 0x1c00
 8001bd4:	608a      	str	r2, [r1, #8]
    if(((RCC_ClkInitStruct->ClockType) & RCC_CLOCKTYPE_PCLK2) == RCC_CLOCKTYPE_PCLK2)
 8001bd6:	071a      	lsls	r2, r3, #28
 8001bd8:	d504      	bpl.n	8001be4 <HAL_RCC_ClockConfig+0x50>
      MODIFY_REG(RCC->CFGR, RCC_CFGR_PPRE2, (RCC_HCLK_DIV16 << 3));
 8001bda:	4939      	ldr	r1, [pc, #228]	; (8001cc0 <HAL_RCC_ClockConfig+0x12c>)
 8001bdc:	688a      	ldr	r2, [r1, #8]
 8001bde:	f442 4260 	orr.w	r2, r2, #57344	; 0xe000
 8001be2:	608a      	str	r2, [r1, #8]
    MODIFY_REG(RCC->CFGR, RCC_CFGR_HPRE, RCC_ClkInitStruct->AHBCLKDivider);
 8001be4:	4936      	ldr	r1, [pc, #216]	; (8001cc0 <HAL_RCC_ClockConfig+0x12c>)
 8001be6:	68a0      	ldr	r0, [r4, #8]
 8001be8:	688a      	ldr	r2, [r1, #8]
 8001bea:	f022 02f0 	bic.w	r2, r2, #240	; 0xf0
 8001bee:	4302      	orrs	r2, r0
 8001bf0:	608a      	str	r2, [r1, #8]
  if(((RCC_ClkInitStruct->ClockType) & RCC_CLOCKTYPE_SYSCLK) == RCC_CLOCKTYPE_SYSCLK)
 8001bf2:	07df      	lsls	r7, r3, #31
 8001bf4:	d521      	bpl.n	8001c3a <HAL_RCC_ClockConfig+0xa6>
    if(RCC_ClkInitStruct->SYSCLKSource == RCC_SYSCLKSOURCE_HSE)
 8001bf6:	6862      	ldr	r2, [r4, #4]
 8001bf8:	2a01      	cmp	r2, #1
 8001bfa:	d057      	beq.n	8001cac <HAL_RCC_ClockConfig+0x118>
    else if((RCC_ClkInitStruct->SYSCLKSource == RCC_SYSCLKSOURCE_PLLCLK)   ||
 8001bfc:	1e93      	subs	r3, r2, #2
 8001bfe:	2b01      	cmp	r3, #1
      if(__HAL_RCC_GET_FLAG(RCC_FLAG_PLLRDY) == RESET)
 8001c00:	4b2f      	ldr	r3, [pc, #188]	; (8001cc0 <HAL_RCC_ClockConfig+0x12c>)
 8001c02:	681b      	ldr	r3, [r3, #0]
    else if((RCC_ClkInitStruct->SYSCLKSource == RCC_SYSCLKSOURCE_PLLCLK)   ||
 8001c04:	d94d      	bls.n	8001ca2 <HAL_RCC_ClockConfig+0x10e>
      if(__HAL_RCC_GET_FLAG(RCC_FLAG_HSIRDY) == RESET)
 8001c06:	0799      	lsls	r1, r3, #30
 8001c08:	d5d8      	bpl.n	8001bbc <HAL_RCC_ClockConfig+0x28>
    __HAL_RCC_SYSCLK_CONFIG(RCC_ClkInitStruct->SYSCLKSource);
 8001c0a:	4e2d      	ldr	r6, [pc, #180]	; (8001cc0 <HAL_RCC_ClockConfig+0x12c>)
 8001c0c:	68b3      	ldr	r3, [r6, #8]
 8001c0e:	f023 0303 	bic.w	r3, r3, #3
 8001c12:	4313      	orrs	r3, r2
 8001c14:	60b3      	str	r3, [r6, #8]
    tickstart = HAL_GetTick();
 8001c16:	f7ff ff01 	bl	8001a1c <HAL_GetTick>
      if ((HAL_GetTick() - tickstart) > CLOCKSWITCH_TIMEOUT_VALUE)
 8001c1a:	f241 3888 	movw	r8, #5000	; 0x1388
    tickstart = HAL_GetTick();
 8001c1e:	4607      	mov	r7, r0
    while (__HAL_RCC_GET_SYSCLK_SOURCE() != (RCC_ClkInitStruct->SYSCLKSource << RCC_CFGR_SWS_Pos))
 8001c20:	e004      	b.n	8001c2c <HAL_RCC_ClockConfig+0x98>
      if ((HAL_GetTick() - tickstart) > CLOCKSWITCH_TIMEOUT_VALUE)
 8001c22:	f7ff fefb 	bl	8001a1c <HAL_GetTick>
 8001c26:	1bc0      	subs	r0, r0, r7
 8001c28:	4540      	cmp	r0, r8
 8001c2a:	d844      	bhi.n	8001cb6 <HAL_RCC_ClockConfig+0x122>
    while (__HAL_RCC_GET_SYSCLK_SOURCE() != (RCC_ClkInitStruct->SYSCLKSource << RCC_CFGR_SWS_Pos))
 8001c2c:	68b3      	ldr	r3, [r6, #8]
 8001c2e:	6862      	ldr	r2, [r4, #4]
 8001c30:	f003 030c 	and.w	r3, r3, #12
 8001c34:	ebb3 0f82 	cmp.w	r3, r2, lsl #2
 8001c38:	d1f3      	bne.n	8001c22 <HAL_RCC_ClockConfig+0x8e>
  if(FLatency < __HAL_FLASH_GET_LATENCY())
 8001c3a:	4a20      	ldr	r2, [pc, #128]	; (8001cbc <HAL_RCC_ClockConfig+0x128>)
 8001c3c:	6813      	ldr	r3, [r2, #0]
 8001c3e:	f003 030f 	and.w	r3, r3, #15
 8001c42:	42ab      	cmp	r3, r5
 8001c44:	d906      	bls.n	8001c54 <HAL_RCC_ClockConfig+0xc0>
    __HAL_FLASH_SET_LATENCY(FLatency);
 8001c46:	b2eb      	uxtb	r3, r5
 8001c48:	7013      	strb	r3, [r2, #0]
    if(__HAL_FLASH_GET_LATENCY() != FLatency)
 8001c4a:	6813      	ldr	r3, [r2, #0]
 8001c4c:	f003 030f 	and.w	r3, r3, #15
 8001c50:	42ab      	cmp	r3, r5
 8001c52:	d1b3      	bne.n	8001bbc <HAL_RCC_ClockConfig+0x28>
  if(((RCC_ClkInitStruct->ClockType) & RCC_CLOCKTYPE_PCLK1) == RCC_CLOCKTYPE_PCLK1)
 8001c54:	6823      	ldr	r3, [r4, #0]
 8001c56:	075a      	lsls	r2, r3, #29
 8001c58:	d506      	bpl.n	8001c68 <HAL_RCC_ClockConfig+0xd4>
    MODIFY_REG(RCC->CFGR, RCC_CFGR_PPRE1, RCC_ClkInitStruct->APB1CLKDivider);
 8001c5a:	4919      	ldr	r1, [pc, #100]	; (8001cc0 <HAL_RCC_ClockConfig+0x12c>)
 8001c5c:	68e0      	ldr	r0, [r4, #12]
 8001c5e:	688a      	ldr	r2, [r1, #8]
 8001c60:	f422 52e0 	bic.w	r2, r2, #7168	; 0x1c00
 8001c64:	4302      	orrs	r2, r0
 8001c66:	608a      	str	r2, [r1, #8]
  if(((RCC_ClkInitStruct->ClockType) & RCC_CLOCKTYPE_PCLK2) == RCC_CLOCKTYPE_PCLK2)
 8001c68:	071b      	lsls	r3, r3, #28
 8001c6a:	d507      	bpl.n	8001c7c <HAL_RCC_ClockConfig+0xe8>
    MODIFY_REG(RCC->CFGR, RCC_CFGR_PPRE2, ((RCC_ClkInitStruct->APB2CLKDivider) << 3U));
 8001c6c:	4a14      	ldr	r2, [pc, #80]	; (8001cc0 <HAL_RCC_ClockConfig+0x12c>)
 8001c6e:	6921      	ldr	r1, [r4, #16]
 8001c70:	6893      	ldr	r3, [r2, #8]
 8001c72:	f423 4360 	bic.w	r3, r3, #57344	; 0xe000
 8001c76:	ea43 03c1 	orr.w	r3, r3, r1, lsl #3
 8001c7a:	6093      	str	r3, [r2, #8]
  SystemCoreClock = HAL_RCC_GetSysClockFreq() >> AHBPrescTable[(RCC->CFGR & RCC_CFGR_HPRE)>> RCC_CFGR_HPRE_Pos];
 8001c7c:	f000 fa3c 	bl	80020f8 <HAL_RCC_GetSysClockFreq>
 8001c80:	4a0f      	ldr	r2, [pc, #60]	; (8001cc0 <HAL_RCC_ClockConfig+0x12c>)
 8001c82:	4c10      	ldr	r4, [pc, #64]	; (8001cc4 <HAL_RCC_ClockConfig+0x130>)
 8001c84:	6892      	ldr	r2, [r2, #8]
 8001c86:	4910      	ldr	r1, [pc, #64]	; (8001cc8 <HAL_RCC_ClockConfig+0x134>)
 8001c88:	f3c2 1203 	ubfx	r2, r2, #4, #4
 8001c8c:	4603      	mov	r3, r0
 8001c8e:	5ca2      	ldrb	r2, [r4, r2]
  HAL_InitTick (uwTickPrio);
 8001c90:	480e      	ldr	r0, [pc, #56]	; (8001ccc <HAL_RCC_ClockConfig+0x138>)
  SystemCoreClock = HAL_RCC_GetSysClockFreq() >> AHBPrescTable[(RCC->CFGR & RCC_CFGR_HPRE)>> RCC_CFGR_HPRE_Pos];
 8001c92:	40d3      	lsrs	r3, r2
  HAL_InitTick (uwTickPrio);
 8001c94:	6800      	ldr	r0, [r0, #0]
  SystemCoreClock = HAL_RCC_GetSysClockFreq() >> AHBPrescTable[(RCC->CFGR & RCC_CFGR_HPRE)>> RCC_CFGR_HPRE_Pos];
 8001c96:	600b      	str	r3, [r1, #0]
  HAL_InitTick (uwTickPrio);
 8001c98:	f7ff fe76 	bl	8001988 <HAL_InitTick>
  return HAL_OK;
 8001c9c:	2000      	movs	r0, #0
}
 8001c9e:	e8bd 81f0 	ldmia.w	sp!, {r4, r5, r6, r7, r8, pc}
      if(__HAL_RCC_GET_FLAG(RCC_FLAG_PLLRDY) == RESET)
 8001ca2:	0198      	lsls	r0, r3, #6
 8001ca4:	d4b1      	bmi.n	8001c0a <HAL_RCC_ClockConfig+0x76>
 8001ca6:	e789      	b.n	8001bbc <HAL_RCC_ClockConfig+0x28>
    return HAL_ERROR;
 8001ca8:	2001      	movs	r0, #1
}
 8001caa:	4770      	bx	lr
      if(__HAL_RCC_GET_FLAG(RCC_FLAG_HSERDY) == RESET)
 8001cac:	4b04      	ldr	r3, [pc, #16]	; (8001cc0 <HAL_RCC_ClockConfig+0x12c>)
 8001cae:	681b      	ldr	r3, [r3, #0]
 8001cb0:	039e      	lsls	r6, r3, #14
 8001cb2:	d4aa      	bmi.n	8001c0a <HAL_RCC_ClockConfig+0x76>
 8001cb4:	e782      	b.n	8001bbc <HAL_RCC_ClockConfig+0x28>
        return HAL_TIMEOUT;
 8001cb6:	2003      	movs	r0, #3
 8001cb8:	e781      	b.n	8001bbe <HAL_RCC_ClockConfig+0x2a>
 8001cba:	bf00      	nop
 8001cbc:	40023c00 	.word	0x40023c00
 8001cc0:	40023800 	.word	0x40023800
 8001cc4:	08005f2c 	.word	0x08005f2c
 8001cc8:	20000000 	.word	0x20000000
 8001ccc:	20000008 	.word	0x20000008

08001cd0 <HAL_RCCEx_PeriphCLKConfig>:
  *         the backup registers) and RCC_BDCR register are set to their reset values.
  *
  * @retval HAL status
  */
HAL_StatusTypeDef HAL_RCCEx_PeriphCLKConfig(RCC_PeriphCLKInitTypeDef  *PeriphClkInit)
{
 8001cd0:	e92d 43f0 	stmdb	sp!, {r4, r5, r6, r7, r8, r9, lr}

  /* Check the peripheral clock selection parameters */
  assert_param(IS_RCC_PERIPHCLOCK(PeriphClkInit->PeriphClockSelection));

  /*------------------------ I2S APB1 configuration --------------------------*/
  if(((PeriphClkInit->PeriphClockSelection) & RCC_PERIPHCLK_I2S_APB1) == (RCC_PERIPHCLK_I2S_APB1))
 8001cd4:	6803      	ldr	r3, [r0, #0]
 8001cd6:	f013 0601 	ands.w	r6, r3, #1
{
 8001cda:	b083      	sub	sp, #12
 8001cdc:	4604      	mov	r4, r0
  if(((PeriphClkInit->PeriphClockSelection) & RCC_PERIPHCLK_I2S_APB1) == (RCC_PERIPHCLK_I2S_APB1))
 8001cde:	d00b      	beq.n	8001cf8 <HAL_RCCEx_PeriphCLKConfig+0x28>
  {
    /* Check the parameters */
    assert_param(IS_RCC_I2SAPB1CLKSOURCE(PeriphClkInit->I2sApb1ClockSelection));

    /* Configure I2S Clock source */
    __HAL_RCC_I2S_APB1_CONFIG(PeriphClkInit->I2sApb1ClockSelection);
 8001ce0:	49b4      	ldr	r1, [pc, #720]	; (8001fb4 <HAL_RCCEx_PeriphCLKConfig+0x2e4>)
 8001ce2:	6b86      	ldr	r6, [r0, #56]	; 0x38
 8001ce4:	f8d1 208c 	ldr.w	r2, [r1, #140]	; 0x8c
 8001ce8:	f022 62c0 	bic.w	r2, r2, #100663296	; 0x6000000
 8001cec:	4332      	orrs	r2, r6
    /* Enable the PLLI2S when it's used as clock source for I2S */
    if(PeriphClkInit->I2sApb1ClockSelection == RCC_I2SAPB1CLKSOURCE_PLLI2S)
 8001cee:	fab6 f686 	clz	r6, r6
    __HAL_RCC_I2S_APB1_CONFIG(PeriphClkInit->I2sApb1ClockSelection);
 8001cf2:	f8c1 208c 	str.w	r2, [r1, #140]	; 0x8c
    if(PeriphClkInit->I2sApb1ClockSelection == RCC_I2SAPB1CLKSOURCE_PLLI2S)
 8001cf6:	0976      	lsrs	r6, r6, #5
    }
  }
  /*--------------------------------------------------------------------------*/

  /*---------------------------- I2S APB2 configuration ----------------------*/
  if(((PeriphClkInit->PeriphClockSelection) & RCC_PERIPHCLK_I2S_APB2) == (RCC_PERIPHCLK_I2S_APB2))
 8001cf8:	079a      	lsls	r2, r3, #30
 8001cfa:	d50b      	bpl.n	8001d14 <HAL_RCCEx_PeriphCLKConfig+0x44>
  {
    /* Check the parameters */
    assert_param(IS_RCC_I2SAPB2CLKSOURCE(PeriphClkInit->I2sApb2ClockSelection));

    /* Configure I2S Clock source */
    __HAL_RCC_I2S_APB2_CONFIG(PeriphClkInit->I2sApb2ClockSelection);
 8001cfc:	49ad      	ldr	r1, [pc, #692]	; (8001fb4 <HAL_RCCEx_PeriphCLKConfig+0x2e4>)
 8001cfe:	6be0      	ldr	r0, [r4, #60]	; 0x3c
 8001d00:	f8d1 208c 	ldr.w	r2, [r1, #140]	; 0x8c
 8001d04:	f022 52c0 	bic.w	r2, r2, #402653184	; 0x18000000
 8001d08:	4302      	orrs	r2, r0
    /* Enable the PLLI2S when it's used as clock source for I2S */
    if(PeriphClkInit->I2sApb2ClockSelection == RCC_I2SAPB2CLKSOURCE_PLLI2S)
    {
      plli2sused = 1U;
 8001d0a:	2800      	cmp	r0, #0
    __HAL_RCC_I2S_APB2_CONFIG(PeriphClkInit->I2sApb2ClockSelection);
 8001d0c:	f8c1 208c 	str.w	r2, [r1, #140]	; 0x8c
      plli2sused = 1U;
 8001d10:	bf08      	it	eq
 8001d12:	2601      	moveq	r6, #1
    }
  }
  /*--------------------------------------------------------------------------*/

  /*--------------------------- SAI1 configuration ---------------------------*/
  if(((PeriphClkInit->PeriphClockSelection) & RCC_PERIPHCLK_SAI1) == (RCC_PERIPHCLK_SAI1))
 8001d14:	f013 0504 	ands.w	r5, r3, #4
 8001d18:	d012      	beq.n	8001d40 <HAL_RCCEx_PeriphCLKConfig+0x70>
  {
    /* Check the parameters */
    assert_param(IS_RCC_SAI1CLKSOURCE(PeriphClkInit->Sai1ClockSelection));

    /* Configure SAI1 Clock source */
    __HAL_RCC_SAI1_CONFIG(PeriphClkInit->Sai1ClockSelection);
 8001d1a:	49a6      	ldr	r1, [pc, #664]	; (8001fb4 <HAL_RCCEx_PeriphCLKConfig+0x2e4>)
 8001d1c:	6b25      	ldr	r5, [r4, #48]	; 0x30
 8001d1e:	f8d1 208c 	ldr.w	r2, [r1, #140]	; 0x8c
    /* Enable the PLLI2S when it's used as clock source for SAI */
    if(PeriphClkInit->Sai1ClockSelection == RCC_SAI1CLKSOURCE_PLLI2S)
 8001d22:	f5b5 1f80 	cmp.w	r5, #1048576	; 0x100000
    __HAL_RCC_SAI1_CONFIG(PeriphClkInit->Sai1ClockSelection);
 8001d26:	f422 1240 	bic.w	r2, r2, #3145728	; 0x300000
 8001d2a:	ea42 0205 	orr.w	r2, r2, r5
    {
      plli2sused = 1U;
    }
    /* Enable the PLLSAI when it's used as clock source for SAI */
    if(PeriphClkInit->Sai1ClockSelection == RCC_SAI1CLKSOURCE_PLLSAI)
 8001d2e:	bf18      	it	ne
 8001d30:	fab5 f585 	clzne	r5, r5
    __HAL_RCC_SAI1_CONFIG(PeriphClkInit->Sai1ClockSelection);
 8001d34:	f8c1 208c 	str.w	r2, [r1, #140]	; 0x8c
    if(PeriphClkInit->Sai1ClockSelection == RCC_SAI1CLKSOURCE_PLLSAI)
 8001d38:	bf12      	itee	ne
 8001d3a:	096d      	lsrne	r5, r5, #5
  uint32_t pllsaiused = 0U;
 8001d3c:	2500      	moveq	r5, #0
      plli2sused = 1U;
 8001d3e:	2601      	moveq	r6, #1
    }
  }
  /*--------------------------------------------------------------------------*/

  /*-------------------------- SAI2 configuration ----------------------------*/
  if(((PeriphClkInit->PeriphClockSelection) & RCC_PERIPHCLK_SAI2) == (RCC_PERIPHCLK_SAI2))
 8001d40:	071f      	lsls	r7, r3, #28
 8001d42:	d50f      	bpl.n	8001d64 <HAL_RCCEx_PeriphCLKConfig+0x94>
  {
    /* Check the parameters */
    assert_param(IS_RCC_SAI2CLKSOURCE(PeriphClkInit->Sai2ClockSelection));

    /* Configure SAI2 Clock source */
    __HAL_RCC_SAI2_CONFIG(PeriphClkInit->Sai2ClockSelection);
 8001d44:	489b      	ldr	r0, [pc, #620]	; (8001fb4 <HAL_RCCEx_PeriphCLKConfig+0x2e4>)
 8001d46:	6b61      	ldr	r1, [r4, #52]	; 0x34
 8001d48:	f8d0 208c 	ldr.w	r2, [r0, #140]	; 0x8c
 8001d4c:	f422 0240 	bic.w	r2, r2, #12582912	; 0xc00000
 8001d50:	430a      	orrs	r2, r1

    /* Enable the PLLI2S when it's used as clock source for SAI */
    if(PeriphClkInit->Sai2ClockSelection == RCC_SAI2CLKSOURCE_PLLI2S)
 8001d52:	f5b1 0f80 	cmp.w	r1, #4194304	; 0x400000
    __HAL_RCC_SAI2_CONFIG(PeriphClkInit->Sai2ClockSelection);
 8001d56:	f8c0 208c 	str.w	r2, [r0, #140]	; 0x8c
    if(PeriphClkInit->Sai2ClockSelection == RCC_SAI2CLKSOURCE_PLLI2S)
 8001d5a:	f000 80f9 	beq.w	8001f50 <HAL_RCCEx_PeriphCLKConfig+0x280>
      plli2sused = 1U;
    }
    /* Enable the PLLSAI when it's used as clock source for SAI */
    if(PeriphClkInit->Sai2ClockSelection == RCC_SAI2CLKSOURCE_PLLSAI)
    {
      pllsaiused = 1U;
 8001d5e:	2900      	cmp	r1, #0
 8001d60:	bf08      	it	eq
 8001d62:	2501      	moveq	r5, #1
    }
  }
  /*--------------------------------------------------------------------------*/

  /*----------------------------- RTC configuration --------------------------*/
  if(((PeriphClkInit->PeriphClockSelection) & RCC_PERIPHCLK_RTC) == (RCC_PERIPHCLK_RTC))
 8001d64:	0698      	lsls	r0, r3, #26
 8001d66:	f100 80aa 	bmi.w	8001ebe <HAL_RCCEx_PeriphCLKConfig+0x1ee>
    __HAL_RCC_RTC_CONFIG(PeriphClkInit->RTCClockSelection);
  }
  /*--------------------------------------------------------------------------*/

  /*---------------------------- TIM configuration ---------------------------*/
  if(((PeriphClkInit->PeriphClockSelection) & RCC_PERIPHCLK_TIM) == (RCC_PERIPHCLK_TIM))
 8001d6a:	06df      	lsls	r7, r3, #27
 8001d6c:	d504      	bpl.n	8001d78 <HAL_RCCEx_PeriphCLKConfig+0xa8>
  {
    /* Configure Timer Prescaler */
    __HAL_RCC_TIMCLKPRESCALER(PeriphClkInit->TIMPresSelection);
 8001d6e:	4b92      	ldr	r3, [pc, #584]	; (8001fb8 <HAL_RCCEx_PeriphCLKConfig+0x2e8>)
 8001d70:	f894 2058 	ldrb.w	r2, [r4, #88]	; 0x58
 8001d74:	601a      	str	r2, [r3, #0]
 8001d76:	6823      	ldr	r3, [r4, #0]
  }
  /*--------------------------------------------------------------------------*/

  /*---------------------------- FMPI2C1 Configuration -----------------------*/
  if(((PeriphClkInit->PeriphClockSelection) & RCC_PERIPHCLK_FMPI2C1) == RCC_PERIPHCLK_FMPI2C1)
 8001d78:	0618      	lsls	r0, r3, #24
 8001d7a:	d508      	bpl.n	8001d8e <HAL_RCCEx_PeriphCLKConfig+0xbe>
  {
    /* Check the parameters */
    assert_param(IS_RCC_FMPI2C1CLKSOURCE(PeriphClkInit->Fmpi2c1ClockSelection));

    /* Configure the FMPI2C1 clock source */
    __HAL_RCC_FMPI2C1_CONFIG(PeriphClkInit->Fmpi2c1ClockSelection);
 8001d7c:	498d      	ldr	r1, [pc, #564]	; (8001fb4 <HAL_RCCEx_PeriphCLKConfig+0x2e4>)
 8001d7e:	6ce0      	ldr	r0, [r4, #76]	; 0x4c
 8001d80:	f8d1 2094 	ldr.w	r2, [r1, #148]	; 0x94
 8001d84:	f422 0240 	bic.w	r2, r2, #12582912	; 0xc00000
 8001d88:	4302      	orrs	r2, r0
 8001d8a:	f8c1 2094 	str.w	r2, [r1, #148]	; 0x94
  }
  /*--------------------------------------------------------------------------*/

  /*------------------------------ CEC Configuration -------------------------*/
  if(((PeriphClkInit->PeriphClockSelection) & RCC_PERIPHCLK_CEC) == RCC_PERIPHCLK_CEC)
 8001d8e:	0659      	lsls	r1, r3, #25
 8001d90:	d508      	bpl.n	8001da4 <HAL_RCCEx_PeriphCLKConfig+0xd4>
  {
    /* Check the parameters */
    assert_param(IS_RCC_CECCLKSOURCE(PeriphClkInit->CecClockSelection));

    /* Configure the CEC clock source */
    __HAL_RCC_CEC_CONFIG(PeriphClkInit->CecClockSelection);
 8001d92:	4988      	ldr	r1, [pc, #544]	; (8001fb4 <HAL_RCCEx_PeriphCLKConfig+0x2e4>)
 8001d94:	6ca0      	ldr	r0, [r4, #72]	; 0x48
 8001d96:	f8d1 2094 	ldr.w	r2, [r1, #148]	; 0x94
 8001d9a:	f022 6280 	bic.w	r2, r2, #67108864	; 0x4000000
 8001d9e:	4302      	orrs	r2, r0
 8001da0:	f8c1 2094 	str.w	r2, [r1, #148]	; 0x94
  }
  /*--------------------------------------------------------------------------*/

  /*----------------------------- CLK48 Configuration ------------------------*/
  if(((PeriphClkInit->PeriphClockSelection) & RCC_PERIPHCLK_CLK48) == RCC_PERIPHCLK_CLK48)
 8001da4:	05da      	lsls	r2, r3, #23
 8001da6:	d50c      	bpl.n	8001dc2 <HAL_RCCEx_PeriphCLKConfig+0xf2>
  {
    /* Check the parameters */
    assert_param(IS_RCC_CLK48CLKSOURCE(PeriphClkInit->Clk48ClockSelection));

    /* Configure the CLK48 clock source */
    __HAL_RCC_CLK48_CONFIG(PeriphClkInit->Clk48ClockSelection);
 8001da8:	4982      	ldr	r1, [pc, #520]	; (8001fb4 <HAL_RCCEx_PeriphCLKConfig+0x2e4>)
 8001daa:	6d60      	ldr	r0, [r4, #84]	; 0x54
 8001dac:	f8d1 2094 	ldr.w	r2, [r1, #148]	; 0x94
 8001db0:	f022 6200 	bic.w	r2, r2, #134217728	; 0x8000000
 8001db4:	4302      	orrs	r2, r0

    /* Enable the PLLSAI when it's used as clock source for CLK48 */
    if(PeriphClkInit->Clk48ClockSelection == RCC_CLK48CLKSOURCE_PLLSAIP)
    {
      pllsaiused = 1U;
 8001db6:	f1b0 6f00 	cmp.w	r0, #134217728	; 0x8000000
    __HAL_RCC_CLK48_CONFIG(PeriphClkInit->Clk48ClockSelection);
 8001dba:	f8c1 2094 	str.w	r2, [r1, #148]	; 0x94
      pllsaiused = 1U;
 8001dbe:	bf08      	it	eq
 8001dc0:	2501      	moveq	r5, #1
    }
  }
  /*--------------------------------------------------------------------------*/

  /*----------------------------- SDIO Configuration -------------------------*/
  if(((PeriphClkInit->PeriphClockSelection) & RCC_PERIPHCLK_SDIO) == RCC_PERIPHCLK_SDIO)
 8001dc2:	059f      	lsls	r7, r3, #22
 8001dc4:	d508      	bpl.n	8001dd8 <HAL_RCCEx_PeriphCLKConfig+0x108>
  {
    /* Check the parameters */
    assert_param(IS_RCC_SDIOCLKSOURCE(PeriphClkInit->SdioClockSelection));

    /* Configure the SDIO clock source */
    __HAL_RCC_SDIO_CONFIG(PeriphClkInit->SdioClockSelection);
 8001dc6:	497b      	ldr	r1, [pc, #492]	; (8001fb4 <HAL_RCCEx_PeriphCLKConfig+0x2e4>)
 8001dc8:	6c60      	ldr	r0, [r4, #68]	; 0x44
 8001dca:	f8d1 2094 	ldr.w	r2, [r1, #148]	; 0x94
 8001dce:	f022 5280 	bic.w	r2, r2, #268435456	; 0x10000000
 8001dd2:	4302      	orrs	r2, r0
 8001dd4:	f8c1 2094 	str.w	r2, [r1, #148]	; 0x94
  }
  /*--------------------------------------------------------------------------*/

  /*------------------------------ SPDIFRX Configuration ---------------------*/
  if(((PeriphClkInit->PeriphClockSelection) & RCC_PERIPHCLK_SPDIFRX) == RCC_PERIPHCLK_SPDIFRX)
 8001dd8:	0558      	lsls	r0, r3, #21
 8001dda:	d50b      	bpl.n	8001df4 <HAL_RCCEx_PeriphCLKConfig+0x124>
  {
    /* Check the parameters */
    assert_param(IS_RCC_SPDIFRXCLKSOURCE(PeriphClkInit->SpdifClockSelection));

    /* Configure the SPDIFRX clock source */
    __HAL_RCC_SPDIFRX_CONFIG(PeriphClkInit->SpdifClockSelection);
 8001ddc:	4875      	ldr	r0, [pc, #468]	; (8001fb4 <HAL_RCCEx_PeriphCLKConfig+0x2e4>)
 8001dde:	6d21      	ldr	r1, [r4, #80]	; 0x50
 8001de0:	f8d0 2094 	ldr.w	r2, [r0, #148]	; 0x94
 8001de4:	f022 5200 	bic.w	r2, r2, #536870912	; 0x20000000
 8001de8:	430a      	orrs	r2, r1
    /* Enable the PLLI2S when it's used as clock source for SPDIFRX */
    if(PeriphClkInit->SpdifClockSelection == RCC_SPDIFRXCLKSOURCE_PLLI2SP)
 8001dea:	f1b1 5f00 	cmp.w	r1, #536870912	; 0x20000000
    __HAL_RCC_SPDIFRX_CONFIG(PeriphClkInit->SpdifClockSelection);
 8001dee:	f8c0 2094 	str.w	r2, [r0, #148]	; 0x94
    if(PeriphClkInit->SpdifClockSelection == RCC_SPDIFRXCLKSOURCE_PLLI2SP)
 8001df2:	d00b      	beq.n	8001e0c <HAL_RCCEx_PeriphCLKConfig+0x13c>
  /*--------------------------------------------------------------------------*/

  /*---------------------------- PLLI2S Configuration ------------------------*/
  /* PLLI2S is configured when a peripheral will use it as source clock : SAI1, SAI2, I2S on APB1,
     I2S on APB2 or SPDIFRX */
  if((plli2sused == 1U) || (PeriphClkInit->PeriphClockSelection == RCC_PERIPHCLK_PLLI2S))
 8001df4:	2e01      	cmp	r6, #1
 8001df6:	d009      	beq.n	8001e0c <HAL_RCCEx_PeriphCLKConfig+0x13c>
 8001df8:	f5b3 6f00 	cmp.w	r3, #2048	; 0x800
 8001dfc:	d006      	beq.n	8001e0c <HAL_RCCEx_PeriphCLKConfig+0x13c>
  }
  /*--------------------------------------------------------------------------*/

  /*----------------------------- PLLSAI Configuration -----------------------*/
  /* PLLSAI is configured when a peripheral will use it as source clock : SAI1, SAI2, CLK48 or SDIO */
  if(pllsaiused == 1U)
 8001dfe:	2d01      	cmp	r5, #1
 8001e00:	f000 80e2 	beq.w	8001fc8 <HAL_RCCEx_PeriphCLKConfig+0x2f8>
        /* return in case of Timeout detected */
        return HAL_TIMEOUT;
      }
    }
  }
  return HAL_OK;
 8001e04:	2000      	movs	r0, #0
}
 8001e06:	b003      	add	sp, #12
 8001e08:	e8bd 83f0 	ldmia.w	sp!, {r4, r5, r6, r7, r8, r9, pc}
    __HAL_RCC_PLLI2S_DISABLE();
 8001e0c:	4b6b      	ldr	r3, [pc, #428]	; (8001fbc <HAL_RCCEx_PeriphCLKConfig+0x2ec>)
    while(__HAL_RCC_GET_FLAG(RCC_FLAG_PLLI2SRDY)  != RESET)
 8001e0e:	4f69      	ldr	r7, [pc, #420]	; (8001fb4 <HAL_RCCEx_PeriphCLKConfig+0x2e4>)
    __HAL_RCC_PLLI2S_DISABLE();
 8001e10:	2200      	movs	r2, #0
 8001e12:	601a      	str	r2, [r3, #0]
    tickstart = HAL_GetTick();
 8001e14:	f7ff fe02 	bl	8001a1c <HAL_GetTick>
 8001e18:	4606      	mov	r6, r0
    while(__HAL_RCC_GET_FLAG(RCC_FLAG_PLLI2SRDY)  != RESET)
 8001e1a:	e004      	b.n	8001e26 <HAL_RCCEx_PeriphCLKConfig+0x156>
      if((HAL_GetTick() - tickstart ) > PLLI2S_TIMEOUT_VALUE)
 8001e1c:	f7ff fdfe 	bl	8001a1c <HAL_GetTick>
 8001e20:	1b83      	subs	r3, r0, r6
 8001e22:	2b02      	cmp	r3, #2
 8001e24:	d841      	bhi.n	8001eaa <HAL_RCCEx_PeriphCLKConfig+0x1da>
    while(__HAL_RCC_GET_FLAG(RCC_FLAG_PLLI2SRDY)  != RESET)
 8001e26:	683b      	ldr	r3, [r7, #0]
 8001e28:	0119      	lsls	r1, r3, #4
 8001e2a:	d4f7      	bmi.n	8001e1c <HAL_RCCEx_PeriphCLKConfig+0x14c>
    if(((((PeriphClkInit->PeriphClockSelection) & RCC_PERIPHCLK_I2S_APB1) == RCC_PERIPHCLK_I2S_APB1) && (PeriphClkInit->I2sApb1ClockSelection == RCC_I2SAPB1CLKSOURCE_PLLI2S)) ||
 8001e2c:	6823      	ldr	r3, [r4, #0]
 8001e2e:	07da      	lsls	r2, r3, #31
 8001e30:	d53f      	bpl.n	8001eb2 <HAL_RCCEx_PeriphCLKConfig+0x1e2>
 8001e32:	6ba2      	ldr	r2, [r4, #56]	; 0x38
 8001e34:	2a00      	cmp	r2, #0
 8001e36:	d13c      	bne.n	8001eb2 <HAL_RCCEx_PeriphCLKConfig+0x1e2>
      plli2sp = ((((RCC->PLLI2SCFGR & RCC_PLLI2SCFGR_PLLI2SP) >> RCC_PLLI2SCFGR_PLLI2SP_Pos) + 1U) << 1U);
 8001e38:	495e      	ldr	r1, [pc, #376]	; (8001fb4 <HAL_RCCEx_PeriphCLKConfig+0x2e4>)
      __HAL_RCC_PLLI2S_CONFIG(PeriphClkInit->PLLI2S.PLLI2SM, PeriphClkInit->PLLI2S.PLLI2SN , plli2sp, plli2sq, PeriphClkInit->PLLI2S.PLLI2SR);
 8001e3a:	6860      	ldr	r0, [r4, #4]
      plli2sp = ((((RCC->PLLI2SCFGR & RCC_PLLI2SCFGR_PLLI2SP) >> RCC_PLLI2SCFGR_PLLI2SP_Pos) + 1U) << 1U);
 8001e3c:	f8d1 2084 	ldr.w	r2, [r1, #132]	; 0x84
      plli2sq = ((RCC->PLLI2SCFGR & RCC_PLLI2SCFGR_PLLI2SQ) >> RCC_PLLI2SCFGR_PLLI2SQ_Pos);
 8001e40:	f8d1 6084 	ldr.w	r6, [r1, #132]	; 0x84
      __HAL_RCC_PLLI2S_CONFIG(PeriphClkInit->PLLI2S.PLLI2SM, PeriphClkInit->PLLI2S.PLLI2SN , plli2sp, plli2sq, PeriphClkInit->PLLI2S.PLLI2SR);
 8001e44:	f402 3240 	and.w	r2, r2, #196608	; 0x30000
 8001e48:	f006 6670 	and.w	r6, r6, #251658240	; 0xf000000
 8001e4c:	4332      	orrs	r2, r6
 8001e4e:	68a6      	ldr	r6, [r4, #8]
 8001e50:	4302      	orrs	r2, r0
 8001e52:	6960      	ldr	r0, [r4, #20]
 8001e54:	ea42 1286 	orr.w	r2, r2, r6, lsl #6
 8001e58:	ea42 7200 	orr.w	r2, r2, r0, lsl #28
 8001e5c:	f8c1 2084 	str.w	r2, [r1, #132]	; 0x84
    if(((((PeriphClkInit->PeriphClockSelection) & RCC_PERIPHCLK_SAI1) == RCC_PERIPHCLK_SAI1) && (PeriphClkInit->Sai1ClockSelection == RCC_SAI1CLKSOURCE_PLLI2S)) ||
 8001e60:	075e      	lsls	r6, r3, #29
 8001e62:	d504      	bpl.n	8001e6e <HAL_RCCEx_PeriphCLKConfig+0x19e>
 8001e64:	6b22      	ldr	r2, [r4, #48]	; 0x30
 8001e66:	f5b2 1f80 	cmp.w	r2, #1048576	; 0x100000
 8001e6a:	f000 8084 	beq.w	8001f76 <HAL_RCCEx_PeriphCLKConfig+0x2a6>
 8001e6e:	0718      	lsls	r0, r3, #28
 8001e70:	d503      	bpl.n	8001e7a <HAL_RCCEx_PeriphCLKConfig+0x1aa>
       ((((PeriphClkInit->PeriphClockSelection) & RCC_PERIPHCLK_SAI2) == RCC_PERIPHCLK_SAI2) && (PeriphClkInit->Sai2ClockSelection == RCC_SAI2CLKSOURCE_PLLI2S)))
 8001e72:	6b62      	ldr	r2, [r4, #52]	; 0x34
 8001e74:	f5b2 0f80 	cmp.w	r2, #4194304	; 0x400000
 8001e78:	d07d      	beq.n	8001f76 <HAL_RCCEx_PeriphCLKConfig+0x2a6>
    if((((PeriphClkInit->PeriphClockSelection) & RCC_PERIPHCLK_SPDIFRX) == RCC_PERIPHCLK_SPDIFRX) && (PeriphClkInit->SpdifClockSelection == RCC_SPDIFRXCLKSOURCE_PLLI2SP))
 8001e7a:	0559      	lsls	r1, r3, #21
 8001e7c:	d504      	bpl.n	8001e88 <HAL_RCCEx_PeriphCLKConfig+0x1b8>
 8001e7e:	6d22      	ldr	r2, [r4, #80]	; 0x50
 8001e80:	f1b2 5f00 	cmp.w	r2, #536870912	; 0x20000000
 8001e84:	f000 8103 	beq.w	800208e <HAL_RCCEx_PeriphCLKConfig+0x3be>
    if((PeriphClkInit->PeriphClockSelection & RCC_PERIPHCLK_PLLI2S) == RCC_PERIPHCLK_PLLI2S)
 8001e88:	051a      	lsls	r2, r3, #20
 8001e8a:	d463      	bmi.n	8001f54 <HAL_RCCEx_PeriphCLKConfig+0x284>
    __HAL_RCC_PLLI2S_ENABLE();
 8001e8c:	4b4b      	ldr	r3, [pc, #300]	; (8001fbc <HAL_RCCEx_PeriphCLKConfig+0x2ec>)
    while(__HAL_RCC_GET_FLAG(RCC_FLAG_PLLI2SRDY)  == RESET)
 8001e8e:	4f49      	ldr	r7, [pc, #292]	; (8001fb4 <HAL_RCCEx_PeriphCLKConfig+0x2e4>)
    __HAL_RCC_PLLI2S_ENABLE();
 8001e90:	2201      	movs	r2, #1
 8001e92:	601a      	str	r2, [r3, #0]
    tickstart = HAL_GetTick();
 8001e94:	f7ff fdc2 	bl	8001a1c <HAL_GetTick>
 8001e98:	4606      	mov	r6, r0
    while(__HAL_RCC_GET_FLAG(RCC_FLAG_PLLI2SRDY)  == RESET)
 8001e9a:	683b      	ldr	r3, [r7, #0]
 8001e9c:	011b      	lsls	r3, r3, #4
 8001e9e:	d4ae      	bmi.n	8001dfe <HAL_RCCEx_PeriphCLKConfig+0x12e>
      if((HAL_GetTick() - tickstart ) > PLLI2S_TIMEOUT_VALUE)
 8001ea0:	f7ff fdbc 	bl	8001a1c <HAL_GetTick>
 8001ea4:	1b80      	subs	r0, r0, r6
 8001ea6:	2802      	cmp	r0, #2
 8001ea8:	d9f7      	bls.n	8001e9a <HAL_RCCEx_PeriphCLKConfig+0x1ca>
        return HAL_TIMEOUT;
 8001eaa:	2003      	movs	r0, #3
}
 8001eac:	b003      	add	sp, #12
 8001eae:	e8bd 83f0 	ldmia.w	sp!, {r4, r5, r6, r7, r8, r9, pc}
    if(((((PeriphClkInit->PeriphClockSelection) & RCC_PERIPHCLK_I2S_APB1) == RCC_PERIPHCLK_I2S_APB1) && (PeriphClkInit->I2sApb1ClockSelection == RCC_I2SAPB1CLKSOURCE_PLLI2S)) ||
 8001eb2:	079f      	lsls	r7, r3, #30
 8001eb4:	d5d4      	bpl.n	8001e60 <HAL_RCCEx_PeriphCLKConfig+0x190>
       ((((PeriphClkInit->PeriphClockSelection) & RCC_PERIPHCLK_I2S_APB2) == RCC_PERIPHCLK_I2S_APB2) && (PeriphClkInit->I2sApb2ClockSelection == RCC_I2SAPB2CLKSOURCE_PLLI2S)))
 8001eb6:	6be2      	ldr	r2, [r4, #60]	; 0x3c
 8001eb8:	2a00      	cmp	r2, #0
 8001eba:	d1d1      	bne.n	8001e60 <HAL_RCCEx_PeriphCLKConfig+0x190>
 8001ebc:	e7bc      	b.n	8001e38 <HAL_RCCEx_PeriphCLKConfig+0x168>
    __HAL_RCC_PWR_CLK_ENABLE();
 8001ebe:	4b3d      	ldr	r3, [pc, #244]	; (8001fb4 <HAL_RCCEx_PeriphCLKConfig+0x2e4>)
    PWR->CR |= PWR_CR_DBP;
 8001ec0:	4f3f      	ldr	r7, [pc, #252]	; (8001fc0 <HAL_RCCEx_PeriphCLKConfig+0x2f0>)
    __HAL_RCC_PWR_CLK_ENABLE();
 8001ec2:	2200      	movs	r2, #0
 8001ec4:	9201      	str	r2, [sp, #4]
 8001ec6:	6c1a      	ldr	r2, [r3, #64]	; 0x40
 8001ec8:	f042 5280 	orr.w	r2, r2, #268435456	; 0x10000000
 8001ecc:	641a      	str	r2, [r3, #64]	; 0x40
 8001ece:	6c1b      	ldr	r3, [r3, #64]	; 0x40
 8001ed0:	f003 5380 	and.w	r3, r3, #268435456	; 0x10000000
 8001ed4:	9301      	str	r3, [sp, #4]
 8001ed6:	9b01      	ldr	r3, [sp, #4]
    PWR->CR |= PWR_CR_DBP;
 8001ed8:	683b      	ldr	r3, [r7, #0]
 8001eda:	f443 7380 	orr.w	r3, r3, #256	; 0x100
 8001ede:	603b      	str	r3, [r7, #0]
    tickstart = HAL_GetTick();
 8001ee0:	f7ff fd9c 	bl	8001a1c <HAL_GetTick>
 8001ee4:	4680      	mov	r8, r0
    while((PWR->CR & PWR_CR_DBP) == RESET)
 8001ee6:	e005      	b.n	8001ef4 <HAL_RCCEx_PeriphCLKConfig+0x224>
      if((HAL_GetTick() - tickstart ) > RCC_DBP_TIMEOUT_VALUE)
 8001ee8:	f7ff fd98 	bl	8001a1c <HAL_GetTick>
 8001eec:	eba0 0008 	sub.w	r0, r0, r8
 8001ef0:	2802      	cmp	r0, #2
 8001ef2:	d8da      	bhi.n	8001eaa <HAL_RCCEx_PeriphCLKConfig+0x1da>
    while((PWR->CR & PWR_CR_DBP) == RESET)
 8001ef4:	683b      	ldr	r3, [r7, #0]
 8001ef6:	05d9      	lsls	r1, r3, #23
 8001ef8:	d5f6      	bpl.n	8001ee8 <HAL_RCCEx_PeriphCLKConfig+0x218>
    tmpreg1 = (RCC->BDCR & RCC_BDCR_RTCSEL);
 8001efa:	4f2e      	ldr	r7, [pc, #184]	; (8001fb4 <HAL_RCCEx_PeriphCLKConfig+0x2e4>)
    if((tmpreg1 != 0x00000000U) && ((tmpreg1) != (PeriphClkInit->RTCClockSelection & RCC_BDCR_RTCSEL)))
 8001efc:	6c23      	ldr	r3, [r4, #64]	; 0x40
    tmpreg1 = (RCC->BDCR & RCC_BDCR_RTCSEL);
 8001efe:	6f3a      	ldr	r2, [r7, #112]	; 0x70
    if((tmpreg1 != 0x00000000U) && ((tmpreg1) != (PeriphClkInit->RTCClockSelection & RCC_BDCR_RTCSEL)))
 8001f00:	f412 7240 	ands.w	r2, r2, #768	; 0x300
 8001f04:	d011      	beq.n	8001f2a <HAL_RCCEx_PeriphCLKConfig+0x25a>
 8001f06:	f403 7140 	and.w	r1, r3, #768	; 0x300
 8001f0a:	4291      	cmp	r1, r2
 8001f0c:	d00f      	beq.n	8001f2e <HAL_RCCEx_PeriphCLKConfig+0x25e>
      tmpreg1 = (RCC->BDCR & ~(RCC_BDCR_RTCSEL));
 8001f0e:	6f3b      	ldr	r3, [r7, #112]	; 0x70
      __HAL_RCC_BACKUPRESET_FORCE();
 8001f10:	4a2c      	ldr	r2, [pc, #176]	; (8001fc4 <HAL_RCCEx_PeriphCLKConfig+0x2f4>)
      tmpreg1 = (RCC->BDCR & ~(RCC_BDCR_RTCSEL));
 8001f12:	f423 7340 	bic.w	r3, r3, #768	; 0x300
      __HAL_RCC_BACKUPRESET_FORCE();
 8001f16:	2001      	movs	r0, #1
      __HAL_RCC_BACKUPRESET_RELEASE();
 8001f18:	2100      	movs	r1, #0
      __HAL_RCC_BACKUPRESET_FORCE();
 8001f1a:	6010      	str	r0, [r2, #0]
      __HAL_RCC_BACKUPRESET_RELEASE();
 8001f1c:	6011      	str	r1, [r2, #0]
      RCC->BDCR = tmpreg1;
 8001f1e:	673b      	str	r3, [r7, #112]	; 0x70
      if(HAL_IS_BIT_SET(RCC->BDCR, RCC_BDCR_LSEON))
 8001f20:	6f3b      	ldr	r3, [r7, #112]	; 0x70
 8001f22:	07da      	lsls	r2, r3, #31
 8001f24:	f100 80cd 	bmi.w	80020c2 <HAL_RCCEx_PeriphCLKConfig+0x3f2>
 8001f28:	6c23      	ldr	r3, [r4, #64]	; 0x40
 8001f2a:	f403 7240 	and.w	r2, r3, #768	; 0x300
    __HAL_RCC_RTC_CONFIG(PeriphClkInit->RTCClockSelection);
 8001f2e:	f5b2 7f40 	cmp.w	r2, #768	; 0x300
 8001f32:	f000 80a1 	beq.w	8002078 <HAL_RCCEx_PeriphCLKConfig+0x3a8>
 8001f36:	491f      	ldr	r1, [pc, #124]	; (8001fb4 <HAL_RCCEx_PeriphCLKConfig+0x2e4>)
 8001f38:	688a      	ldr	r2, [r1, #8]
 8001f3a:	f422 12f8 	bic.w	r2, r2, #2031616	; 0x1f0000
 8001f3e:	608a      	str	r2, [r1, #8]
 8001f40:	4a1c      	ldr	r2, [pc, #112]	; (8001fb4 <HAL_RCCEx_PeriphCLKConfig+0x2e4>)
 8001f42:	6f11      	ldr	r1, [r2, #112]	; 0x70
 8001f44:	f3c3 030b 	ubfx	r3, r3, #0, #12
 8001f48:	430b      	orrs	r3, r1
 8001f4a:	6713      	str	r3, [r2, #112]	; 0x70
 8001f4c:	6823      	ldr	r3, [r4, #0]
 8001f4e:	e70c      	b.n	8001d6a <HAL_RCCEx_PeriphCLKConfig+0x9a>
      plli2sused = 1U;
 8001f50:	2601      	movs	r6, #1
 8001f52:	e707      	b.n	8001d64 <HAL_RCCEx_PeriphCLKConfig+0x94>
      __HAL_RCC_PLLI2S_CONFIG(PeriphClkInit->PLLI2S.PLLI2SM, PeriphClkInit->PLLI2S.PLLI2SN , PeriphClkInit->PLLI2S.PLLI2SP, PeriphClkInit->PLLI2S.PLLI2SQ, PeriphClkInit->PLLI2S.PLLI2SR);
 8001f54:	1d20      	adds	r0, r4, #4
 8001f56:	c80f      	ldmia	r0, {r0, r1, r2, r3}
 8001f58:	061b      	lsls	r3, r3, #24
 8001f5a:	ea43 1381 	orr.w	r3, r3, r1, lsl #6
 8001f5e:	6961      	ldr	r1, [r4, #20]
 8001f60:	4303      	orrs	r3, r0
 8001f62:	0852      	lsrs	r2, r2, #1
 8001f64:	ea43 7301 	orr.w	r3, r3, r1, lsl #28
 8001f68:	3a01      	subs	r2, #1
 8001f6a:	4912      	ldr	r1, [pc, #72]	; (8001fb4 <HAL_RCCEx_PeriphCLKConfig+0x2e4>)
 8001f6c:	ea43 4302 	orr.w	r3, r3, r2, lsl #16
 8001f70:	f8c1 3084 	str.w	r3, [r1, #132]	; 0x84
 8001f74:	e78a      	b.n	8001e8c <HAL_RCCEx_PeriphCLKConfig+0x1bc>
      plli2sp = ((((RCC->PLLI2SCFGR & RCC_PLLI2SCFGR_PLLI2SP) >> RCC_PLLI2SCFGR_PLLI2SP_Pos) + 1U) << 1U);
 8001f76:	490f      	ldr	r1, [pc, #60]	; (8001fb4 <HAL_RCCEx_PeriphCLKConfig+0x2e4>)
      __HAL_RCC_PLLI2S_CONFIG(PeriphClkInit->PLLI2S.PLLI2SM, PeriphClkInit->PLLI2S.PLLI2SN , plli2sp, PeriphClkInit->PLLI2S.PLLI2SQ, plli2sr);
 8001f78:	6860      	ldr	r0, [r4, #4]
      plli2sp = ((((RCC->PLLI2SCFGR & RCC_PLLI2SCFGR_PLLI2SP) >> RCC_PLLI2SCFGR_PLLI2SP_Pos) + 1U) << 1U);
 8001f7a:	f8d1 2084 	ldr.w	r2, [r1, #132]	; 0x84
      plli2sr = ((RCC->PLLI2SCFGR & RCC_PLLI2SCFGR_PLLI2SR) >> RCC_PLLI2SCFGR_PLLI2SR_Pos);
 8001f7e:	f8d1 6084 	ldr.w	r6, [r1, #132]	; 0x84
      __HAL_RCC_PLLI2S_CONFIG(PeriphClkInit->PLLI2S.PLLI2SM, PeriphClkInit->PLLI2S.PLLI2SN , plli2sp, PeriphClkInit->PLLI2S.PLLI2SQ, plli2sr);
 8001f82:	f402 3240 	and.w	r2, r2, #196608	; 0x30000
 8001f86:	f006 46e0 	and.w	r6, r6, #1879048192	; 0x70000000
 8001f8a:	4332      	orrs	r2, r6
 8001f8c:	68a6      	ldr	r6, [r4, #8]
 8001f8e:	4302      	orrs	r2, r0
 8001f90:	6920      	ldr	r0, [r4, #16]
 8001f92:	ea42 1286 	orr.w	r2, r2, r6, lsl #6
 8001f96:	ea42 6200 	orr.w	r2, r2, r0, lsl #24
 8001f9a:	f8c1 2084 	str.w	r2, [r1, #132]	; 0x84
      __HAL_RCC_PLLI2S_PLLSAICLKDIVQ_CONFIG(PeriphClkInit->PLLI2SDivQ);
 8001f9e:	f8d1 008c 	ldr.w	r0, [r1, #140]	; 0x8c
 8001fa2:	6aa2      	ldr	r2, [r4, #40]	; 0x28
 8001fa4:	f020 001f 	bic.w	r0, r0, #31
 8001fa8:	3a01      	subs	r2, #1
 8001faa:	4302      	orrs	r2, r0
 8001fac:	f8c1 208c 	str.w	r2, [r1, #140]	; 0x8c
 8001fb0:	e763      	b.n	8001e7a <HAL_RCCEx_PeriphCLKConfig+0x1aa>
 8001fb2:	bf00      	nop
 8001fb4:	40023800 	.word	0x40023800
 8001fb8:	424711e0 	.word	0x424711e0
 8001fbc:	42470068 	.word	0x42470068
 8001fc0:	40007000 	.word	0x40007000
 8001fc4:	42470e40 	.word	0x42470e40
    __HAL_RCC_PLLSAI_DISABLE();
 8001fc8:	4b49      	ldr	r3, [pc, #292]	; (80020f0 <HAL_RCCEx_PeriphCLKConfig+0x420>)
    while(__HAL_RCC_PLLSAI_GET_FLAG() != RESET)
 8001fca:	4e4a      	ldr	r6, [pc, #296]	; (80020f4 <HAL_RCCEx_PeriphCLKConfig+0x424>)
    __HAL_RCC_PLLSAI_DISABLE();
 8001fcc:	2200      	movs	r2, #0
 8001fce:	601a      	str	r2, [r3, #0]
    tickstart = HAL_GetTick();
 8001fd0:	f7ff fd24 	bl	8001a1c <HAL_GetTick>
 8001fd4:	4605      	mov	r5, r0
    while(__HAL_RCC_PLLSAI_GET_FLAG() != RESET)
 8001fd6:	e005      	b.n	8001fe4 <HAL_RCCEx_PeriphCLKConfig+0x314>
      if((HAL_GetTick() - tickstart ) > PLLSAI_TIMEOUT_VALUE)
 8001fd8:	f7ff fd20 	bl	8001a1c <HAL_GetTick>
 8001fdc:	1b40      	subs	r0, r0, r5
 8001fde:	2802      	cmp	r0, #2
 8001fe0:	f63f af63 	bhi.w	8001eaa <HAL_RCCEx_PeriphCLKConfig+0x1da>
    while(__HAL_RCC_PLLSAI_GET_FLAG() != RESET)
 8001fe4:	6833      	ldr	r3, [r6, #0]
 8001fe6:	009f      	lsls	r7, r3, #2
 8001fe8:	d4f6      	bmi.n	8001fd8 <HAL_RCCEx_PeriphCLKConfig+0x308>
    if(((((PeriphClkInit->PeriphClockSelection) & RCC_PERIPHCLK_SAI1) == RCC_PERIPHCLK_SAI1) && (PeriphClkInit->Sai1ClockSelection == RCC_SAI1CLKSOURCE_PLLSAI)) ||
 8001fea:	6822      	ldr	r2, [r4, #0]
 8001fec:	0750      	lsls	r0, r2, #29
 8001fee:	d579      	bpl.n	80020e4 <HAL_RCCEx_PeriphCLKConfig+0x414>
 8001ff0:	6b23      	ldr	r3, [r4, #48]	; 0x30
 8001ff2:	2b00      	cmp	r3, #0
 8001ff4:	d176      	bne.n	80020e4 <HAL_RCCEx_PeriphCLKConfig+0x414>
      pllsaip = ((((RCC->PLLSAICFGR & RCC_PLLSAICFGR_PLLSAIP) >> RCC_PLLSAICFGR_PLLSAIP_Pos) + 1U) << 1U);
 8001ff6:	493f      	ldr	r1, [pc, #252]	; (80020f4 <HAL_RCCEx_PeriphCLKConfig+0x424>)
      __HAL_RCC_PLLSAI_CONFIG(PeriphClkInit->PLLSAI.PLLSAIM, PeriphClkInit->PLLSAI.PLLSAIN , pllsaip, PeriphClkInit->PLLSAI.PLLSAIQ, 0U);
 8001ff8:	69a0      	ldr	r0, [r4, #24]
      pllsaip = ((((RCC->PLLSAICFGR & RCC_PLLSAICFGR_PLLSAIP) >> RCC_PLLSAICFGR_PLLSAIP_Pos) + 1U) << 1U);
 8001ffa:	f8d1 3088 	ldr.w	r3, [r1, #136]	; 0x88
      __HAL_RCC_PLLSAI_CONFIG(PeriphClkInit->PLLSAI.PLLSAIM, PeriphClkInit->PLLSAI.PLLSAIN , pllsaip, PeriphClkInit->PLLSAI.PLLSAIQ, 0U);
 8001ffe:	69e5      	ldr	r5, [r4, #28]
 8002000:	f403 3340 	and.w	r3, r3, #196608	; 0x30000
 8002004:	4303      	orrs	r3, r0
 8002006:	6a60      	ldr	r0, [r4, #36]	; 0x24
 8002008:	ea43 1385 	orr.w	r3, r3, r5, lsl #6
 800200c:	ea43 6300 	orr.w	r3, r3, r0, lsl #24
 8002010:	f8c1 3088 	str.w	r3, [r1, #136]	; 0x88
      __HAL_RCC_PLLSAI_PLLSAICLKDIVQ_CONFIG(PeriphClkInit->PLLSAIDivQ);
 8002014:	f8d1 308c 	ldr.w	r3, [r1, #140]	; 0x8c
 8002018:	6ae0      	ldr	r0, [r4, #44]	; 0x2c
 800201a:	f423 53f8 	bic.w	r3, r3, #7936	; 0x1f00
 800201e:	3801      	subs	r0, #1
 8002020:	ea43 2300 	orr.w	r3, r3, r0, lsl #8
 8002024:	f8c1 308c 	str.w	r3, [r1, #140]	; 0x8c
    if((((PeriphClkInit->PeriphClockSelection) & RCC_PERIPHCLK_CLK48) == RCC_PERIPHCLK_CLK48) && (PeriphClkInit->Clk48ClockSelection == RCC_CLK48CLKSOURCE_PLLSAIP))
 8002028:	05d2      	lsls	r2, r2, #23
 800202a:	d514      	bpl.n	8002056 <HAL_RCCEx_PeriphCLKConfig+0x386>
 800202c:	6d63      	ldr	r3, [r4, #84]	; 0x54
 800202e:	f1b3 6f00 	cmp.w	r3, #134217728	; 0x8000000
 8002032:	d110      	bne.n	8002056 <HAL_RCCEx_PeriphCLKConfig+0x386>
      pllsaiq = ((RCC->PLLSAICFGR & RCC_PLLSAICFGR_PLLSAIQ) >> RCC_PLLSAICFGR_PLLSAIQ_Pos);
 8002034:	492f      	ldr	r1, [pc, #188]	; (80020f4 <HAL_RCCEx_PeriphCLKConfig+0x424>)
      __HAL_RCC_PLLSAI_CONFIG(PeriphClkInit->PLLSAI.PLLSAIM, PeriphClkInit->PLLSAI.PLLSAIN , PeriphClkInit->PLLSAI.PLLSAIP, pllsaiq, 0U);
 8002036:	69a5      	ldr	r5, [r4, #24]
      pllsaiq = ((RCC->PLLSAICFGR & RCC_PLLSAICFGR_PLLSAIQ) >> RCC_PLLSAICFGR_PLLSAIQ_Pos);
 8002038:	f8d1 3088 	ldr.w	r3, [r1, #136]	; 0x88
      __HAL_RCC_PLLSAI_CONFIG(PeriphClkInit->PLLSAI.PLLSAIM, PeriphClkInit->PLLSAI.PLLSAIN , PeriphClkInit->PLLSAI.PLLSAIP, pllsaiq, 0U);
 800203c:	e9d4 0207 	ldrd	r0, r2, [r4, #28]
 8002040:	f003 6370 	and.w	r3, r3, #251658240	; 0xf000000
 8002044:	432b      	orrs	r3, r5
 8002046:	0852      	lsrs	r2, r2, #1
 8002048:	ea43 1380 	orr.w	r3, r3, r0, lsl #6
 800204c:	3a01      	subs	r2, #1
 800204e:	ea43 4302 	orr.w	r3, r3, r2, lsl #16
 8002052:	f8c1 3088 	str.w	r3, [r1, #136]	; 0x88
    __HAL_RCC_PLLSAI_ENABLE();
 8002056:	4b26      	ldr	r3, [pc, #152]	; (80020f0 <HAL_RCCEx_PeriphCLKConfig+0x420>)
    while(__HAL_RCC_PLLSAI_GET_FLAG() == RESET)
 8002058:	4d26      	ldr	r5, [pc, #152]	; (80020f4 <HAL_RCCEx_PeriphCLKConfig+0x424>)
    __HAL_RCC_PLLSAI_ENABLE();
 800205a:	2201      	movs	r2, #1
 800205c:	601a      	str	r2, [r3, #0]
    tickstart = HAL_GetTick();
 800205e:	f7ff fcdd 	bl	8001a1c <HAL_GetTick>
 8002062:	4604      	mov	r4, r0
    while(__HAL_RCC_PLLSAI_GET_FLAG() == RESET)
 8002064:	682b      	ldr	r3, [r5, #0]
 8002066:	009b      	lsls	r3, r3, #2
 8002068:	f53f aecc 	bmi.w	8001e04 <HAL_RCCEx_PeriphCLKConfig+0x134>
      if((HAL_GetTick() - tickstart ) > PLLSAI_TIMEOUT_VALUE)
 800206c:	f7ff fcd6 	bl	8001a1c <HAL_GetTick>
 8002070:	1b00      	subs	r0, r0, r4
 8002072:	2802      	cmp	r0, #2
 8002074:	d9f6      	bls.n	8002064 <HAL_RCCEx_PeriphCLKConfig+0x394>
 8002076:	e718      	b.n	8001eaa <HAL_RCCEx_PeriphCLKConfig+0x1da>
    __HAL_RCC_RTC_CONFIG(PeriphClkInit->RTCClockSelection);
 8002078:	481e      	ldr	r0, [pc, #120]	; (80020f4 <HAL_RCCEx_PeriphCLKConfig+0x424>)
 800207a:	6882      	ldr	r2, [r0, #8]
 800207c:	f023 4170 	bic.w	r1, r3, #4026531840	; 0xf0000000
 8002080:	f422 12f8 	bic.w	r2, r2, #2031616	; 0x1f0000
 8002084:	f421 7140 	bic.w	r1, r1, #768	; 0x300
 8002088:	430a      	orrs	r2, r1
 800208a:	6082      	str	r2, [r0, #8]
 800208c:	e758      	b.n	8001f40 <HAL_RCCEx_PeriphCLKConfig+0x270>
      plli2sq = ((((RCC->PLLI2SCFGR & RCC_PLLI2SCFGR_PLLI2SP) >> RCC_PLLI2SCFGR_PLLI2SP_Pos) + 1U) << 1U);
 800208e:	4f19      	ldr	r7, [pc, #100]	; (80020f4 <HAL_RCCEx_PeriphCLKConfig+0x424>)
      __HAL_RCC_PLLI2S_CONFIG(PeriphClkInit->PLLI2S.PLLI2SM, PeriphClkInit->PLLI2S.PLLI2SN , PeriphClkInit->PLLI2S.PLLI2SP, plli2sq, plli2sr);
 8002090:	6866      	ldr	r6, [r4, #4]
      plli2sq = ((((RCC->PLLI2SCFGR & RCC_PLLI2SCFGR_PLLI2SP) >> RCC_PLLI2SCFGR_PLLI2SP_Pos) + 1U) << 1U);
 8002092:	f8d7 0084 	ldr.w	r0, [r7, #132]	; 0x84
      plli2sr = ((RCC->PLLI2SCFGR & RCC_PLLI2SCFGR_PLLI2SR) >> RCC_PLLI2SCFGR_PLLI2SR_Pos);
 8002096:	f8d7 2084 	ldr.w	r2, [r7, #132]	; 0x84
      __HAL_RCC_PLLI2S_CONFIG(PeriphClkInit->PLLI2S.PLLI2SM, PeriphClkInit->PLLI2S.PLLI2SN , PeriphClkInit->PLLI2S.PLLI2SP, plli2sq, plli2sr);
 800209a:	68e1      	ldr	r1, [r4, #12]
      plli2sq = ((((RCC->PLLI2SCFGR & RCC_PLLI2SCFGR_PLLI2SP) >> RCC_PLLI2SCFGR_PLLI2SP_Pos) + 1U) << 1U);
 800209c:	f3c0 4c01 	ubfx	ip, r0, #16, #2
      __HAL_RCC_PLLI2S_CONFIG(PeriphClkInit->PLLI2S.PLLI2SM, PeriphClkInit->PLLI2S.PLLI2SN , PeriphClkInit->PLLI2S.PLLI2SP, plli2sq, plli2sr);
 80020a0:	f002 42e0 	and.w	r2, r2, #1879048192	; 0x70000000
 80020a4:	68a0      	ldr	r0, [r4, #8]
 80020a6:	4332      	orrs	r2, r6
 80020a8:	ea42 1280 	orr.w	r2, r2, r0, lsl #6
      plli2sq = ((((RCC->PLLI2SCFGR & RCC_PLLI2SCFGR_PLLI2SP) >> RCC_PLLI2SCFGR_PLLI2SP_Pos) + 1U) << 1U);
 80020ac:	f10c 0601 	add.w	r6, ip, #1
      __HAL_RCC_PLLI2S_CONFIG(PeriphClkInit->PLLI2S.PLLI2SM, PeriphClkInit->PLLI2S.PLLI2SN , PeriphClkInit->PLLI2S.PLLI2SP, plli2sq, plli2sr);
 80020b0:	0849      	lsrs	r1, r1, #1
 80020b2:	ea42 6246 	orr.w	r2, r2, r6, lsl #25
 80020b6:	3901      	subs	r1, #1
 80020b8:	ea42 4201 	orr.w	r2, r2, r1, lsl #16
 80020bc:	f8c7 2084 	str.w	r2, [r7, #132]	; 0x84
 80020c0:	e6e2      	b.n	8001e88 <HAL_RCCEx_PeriphCLKConfig+0x1b8>
        tickstart = HAL_GetTick();
 80020c2:	f7ff fcab 	bl	8001a1c <HAL_GetTick>
          if((HAL_GetTick() - tickstart ) > RCC_LSE_TIMEOUT_VALUE)
 80020c6:	f241 3988 	movw	r9, #5000	; 0x1388
        tickstart = HAL_GetTick();
 80020ca:	4680      	mov	r8, r0
        while(__HAL_RCC_GET_FLAG(RCC_FLAG_LSERDY) == RESET)
 80020cc:	e006      	b.n	80020dc <HAL_RCCEx_PeriphCLKConfig+0x40c>
          if((HAL_GetTick() - tickstart ) > RCC_LSE_TIMEOUT_VALUE)
 80020ce:	f7ff fca5 	bl	8001a1c <HAL_GetTick>
 80020d2:	eba0 0008 	sub.w	r0, r0, r8
 80020d6:	4548      	cmp	r0, r9
 80020d8:	f63f aee7 	bhi.w	8001eaa <HAL_RCCEx_PeriphCLKConfig+0x1da>
        while(__HAL_RCC_GET_FLAG(RCC_FLAG_LSERDY) == RESET)
 80020dc:	6f3b      	ldr	r3, [r7, #112]	; 0x70
 80020de:	079b      	lsls	r3, r3, #30
 80020e0:	d5f5      	bpl.n	80020ce <HAL_RCCEx_PeriphCLKConfig+0x3fe>
 80020e2:	e721      	b.n	8001f28 <HAL_RCCEx_PeriphCLKConfig+0x258>
    if(((((PeriphClkInit->PeriphClockSelection) & RCC_PERIPHCLK_SAI1) == RCC_PERIPHCLK_SAI1) && (PeriphClkInit->Sai1ClockSelection == RCC_SAI1CLKSOURCE_PLLSAI)) ||
 80020e4:	0711      	lsls	r1, r2, #28
 80020e6:	d59f      	bpl.n	8002028 <HAL_RCCEx_PeriphCLKConfig+0x358>
       ((((PeriphClkInit->PeriphClockSelection) & RCC_PERIPHCLK_SAI2) == RCC_PERIPHCLK_SAI2) && (PeriphClkInit->Sai2ClockSelection == RCC_SAI2CLKSOURCE_PLLSAI)))
 80020e8:	6b63      	ldr	r3, [r4, #52]	; 0x34
 80020ea:	2b00      	cmp	r3, #0
 80020ec:	d19c      	bne.n	8002028 <HAL_RCCEx_PeriphCLKConfig+0x358>
 80020ee:	e782      	b.n	8001ff6 <HAL_RCCEx_PeriphCLKConfig+0x326>
 80020f0:	42470070 	.word	0x42470070
 80020f4:	40023800 	.word	0x40023800

080020f8 <HAL_RCC_GetSysClockFreq>:
  uint32_t pllp = 0U;
  uint32_t pllr = 0U;
  uint32_t sysclockfreq = 0U;

  /* Get SYSCLK source -------------------------------------------------------*/
  switch (RCC->CFGR & RCC_CFGR_SWS)
 80020f8:	4928      	ldr	r1, [pc, #160]	; (800219c <HAL_RCC_GetSysClockFreq+0xa4>)
{
 80020fa:	b508      	push	{r3, lr}
  switch (RCC->CFGR & RCC_CFGR_SWS)
 80020fc:	688b      	ldr	r3, [r1, #8]
 80020fe:	f003 030c 	and.w	r3, r3, #12
 8002102:	2b08      	cmp	r3, #8
 8002104:	d007      	beq.n	8002116 <HAL_RCC_GetSysClockFreq+0x1e>
 8002106:	2b0c      	cmp	r3, #12
 8002108:	d01d      	beq.n	8002146 <HAL_RCC_GetSysClockFreq+0x4e>
 800210a:	4a25      	ldr	r2, [pc, #148]	; (80021a0 <HAL_RCC_GetSysClockFreq+0xa8>)
 800210c:	4825      	ldr	r0, [pc, #148]	; (80021a4 <HAL_RCC_GetSysClockFreq+0xac>)
 800210e:	2b04      	cmp	r3, #4
 8002110:	bf08      	it	eq
 8002112:	4610      	moveq	r0, r2
      sysclockfreq = HSI_VALUE;
      break;
    }
  }
  return sysclockfreq;
}
 8002114:	bd08      	pop	{r3, pc}
      pllm = RCC->PLLCFGR & RCC_PLLCFGR_PLLM;
 8002116:	684a      	ldr	r2, [r1, #4]
      if(__HAL_RCC_GET_PLL_OSCSOURCE() != RCC_PLLSOURCE_HSI)
 8002118:	684b      	ldr	r3, [r1, #4]
 800211a:	f413 0380 	ands.w	r3, r3, #4194304	; 0x400000
      pllm = RCC->PLLCFGR & RCC_PLLCFGR_PLLM;
 800211e:	f002 023f 	and.w	r2, r2, #63	; 0x3f
      if(__HAL_RCC_GET_PLL_OSCSOURCE() != RCC_PLLSOURCE_HSI)
 8002122:	d130      	bne.n	8002186 <HAL_RCC_GetSysClockFreq+0x8e>
        pllvco = (uint32_t) ((((uint64_t) HSI_VALUE * ((uint64_t) ((RCC->PLLCFGR & RCC_PLLCFGR_PLLN) >> RCC_PLLCFGR_PLLN_Pos)))) / (uint64_t)pllm);
 8002124:	6849      	ldr	r1, [r1, #4]
 8002126:	481f      	ldr	r0, [pc, #124]	; (80021a4 <HAL_RCC_GetSysClockFreq+0xac>)
 8002128:	f3c1 1188 	ubfx	r1, r1, #6, #9
 800212c:	fba1 0100 	umull	r0, r1, r1, r0
 8002130:	f7fe fd5a 	bl	8000be8 <__aeabi_uldivmod>
      pllp = ((((RCC->PLLCFGR & RCC_PLLCFGR_PLLP) >> RCC_PLLCFGR_PLLP_Pos) + 1U) *2U);
 8002134:	4b19      	ldr	r3, [pc, #100]	; (800219c <HAL_RCC_GetSysClockFreq+0xa4>)
 8002136:	685b      	ldr	r3, [r3, #4]
 8002138:	f3c3 4301 	ubfx	r3, r3, #16, #2
 800213c:	3301      	adds	r3, #1
 800213e:	005b      	lsls	r3, r3, #1
      sysclockfreq = pllvco/pllp;
 8002140:	fbb0 f0f3 	udiv	r0, r0, r3
}
 8002144:	bd08      	pop	{r3, pc}
      pllm = RCC->PLLCFGR & RCC_PLLCFGR_PLLM;
 8002146:	684a      	ldr	r2, [r1, #4]
      if(__HAL_RCC_GET_PLL_OSCSOURCE() != RCC_PLLSOURCE_HSI)
 8002148:	684b      	ldr	r3, [r1, #4]
 800214a:	f413 0380 	ands.w	r3, r3, #4194304	; 0x400000
      pllm = RCC->PLLCFGR & RCC_PLLCFGR_PLLM;
 800214e:	f002 023f 	and.w	r2, r2, #63	; 0x3f
      if(__HAL_RCC_GET_PLL_OSCSOURCE() != RCC_PLLSOURCE_HSI)
 8002152:	d10e      	bne.n	8002172 <HAL_RCC_GetSysClockFreq+0x7a>
        pllvco = (uint32_t) ((((uint64_t) HSI_VALUE * ((uint64_t) ((RCC->PLLCFGR & RCC_PLLCFGR_PLLN) >> RCC_PLLCFGR_PLLN_Pos)))) / (uint64_t)pllm);
 8002154:	6849      	ldr	r1, [r1, #4]
 8002156:	4813      	ldr	r0, [pc, #76]	; (80021a4 <HAL_RCC_GetSysClockFreq+0xac>)
 8002158:	f3c1 1188 	ubfx	r1, r1, #6, #9
 800215c:	fba1 0100 	umull	r0, r1, r1, r0
 8002160:	f7fe fd42 	bl	8000be8 <__aeabi_uldivmod>
      pllr = ((RCC->PLLCFGR & RCC_PLLCFGR_PLLR) >> RCC_PLLCFGR_PLLR_Pos);
 8002164:	4b0d      	ldr	r3, [pc, #52]	; (800219c <HAL_RCC_GetSysClockFreq+0xa4>)
 8002166:	685b      	ldr	r3, [r3, #4]
 8002168:	f3c3 7302 	ubfx	r3, r3, #28, #3
      sysclockfreq = pllvco/pllr;
 800216c:	fbb0 f0f3 	udiv	r0, r0, r3
}
 8002170:	bd08      	pop	{r3, pc}
        pllvco = (uint32_t) ((((uint64_t) HSE_VALUE * ((uint64_t) ((RCC->PLLCFGR & RCC_PLLCFGR_PLLN) >> RCC_PLLCFGR_PLLN_Pos)))) / (uint64_t)pllm);
 8002172:	684b      	ldr	r3, [r1, #4]
 8002174:	480a      	ldr	r0, [pc, #40]	; (80021a0 <HAL_RCC_GetSysClockFreq+0xa8>)
 8002176:	f3c3 1388 	ubfx	r3, r3, #6, #9
 800217a:	fba3 0100 	umull	r0, r1, r3, r0
 800217e:	2300      	movs	r3, #0
 8002180:	f7fe fd32 	bl	8000be8 <__aeabi_uldivmod>
 8002184:	e7ee      	b.n	8002164 <HAL_RCC_GetSysClockFreq+0x6c>
        pllvco = (uint32_t) ((((uint64_t) HSE_VALUE * ((uint64_t) ((RCC->PLLCFGR & RCC_PLLCFGR_PLLN) >> RCC_PLLCFGR_PLLN_Pos)))) / (uint64_t)pllm);
 8002186:	684b      	ldr	r3, [r1, #4]
 8002188:	4805      	ldr	r0, [pc, #20]	; (80021a0 <HAL_RCC_GetSysClockFreq+0xa8>)
 800218a:	f3c3 1388 	ubfx	r3, r3, #6, #9
 800218e:	fba3 0100 	umull	r0, r1, r3, r0
 8002192:	2300      	movs	r3, #0
 8002194:	f7fe fd28 	bl	8000be8 <__aeabi_uldivmod>
 8002198:	e7cc      	b.n	8002134 <HAL_RCC_GetSysClockFreq+0x3c>
 800219a:	bf00      	nop
 800219c:	40023800 	.word	0x40023800
 80021a0:	007a1200 	.word	0x007a1200
 80021a4:	00f42400 	.word	0x00f42400

080021a8 <HAL_RCC_OscConfig>:
HAL_StatusTypeDef HAL_RCC_OscConfig(RCC_OscInitTypeDef  *RCC_OscInitStruct)
{
  uint32_t tickstart, pll_config;

  /* Check Null pointer */
  if(RCC_OscInitStruct == NULL)
 80021a8:	2800      	cmp	r0, #0
 80021aa:	f000 81b5 	beq.w	8002518 <HAL_RCC_OscConfig+0x370>
{
 80021ae:	e92d 41f0 	stmdb	sp!, {r4, r5, r6, r7, r8, lr}
  }

  /* Check the parameters */
  assert_param(IS_RCC_OSCILLATORTYPE(RCC_OscInitStruct->OscillatorType));
  /*------------------------------- HSE Configuration ------------------------*/
  if(((RCC_OscInitStruct->OscillatorType) & RCC_OSCILLATORTYPE_HSE) == RCC_OSCILLATORTYPE_HSE)
 80021b2:	6803      	ldr	r3, [r0, #0]
 80021b4:	07da      	lsls	r2, r3, #31
{
 80021b6:	b082      	sub	sp, #8
 80021b8:	4604      	mov	r4, r0
  if(((RCC_OscInitStruct->OscillatorType) & RCC_OSCILLATORTYPE_HSE) == RCC_OSCILLATORTYPE_HSE)
 80021ba:	d536      	bpl.n	800222a <HAL_RCC_OscConfig+0x82>
  {
    /* Check the parameters */
    assert_param(IS_RCC_HSE(RCC_OscInitStruct->HSEState));
    /* When the HSE is used as system clock or clock source for PLL in these cases HSE will not disabled */
#if defined(STM32F446xx)
    if((__HAL_RCC_GET_SYSCLK_SOURCE() == RCC_CFGR_SWS_HSE)                                                                     ||\
 80021bc:	49ad      	ldr	r1, [pc, #692]	; (8002474 <HAL_RCC_OscConfig+0x2cc>)
 80021be:	688a      	ldr	r2, [r1, #8]
 80021c0:	f002 020c 	and.w	r2, r2, #12
 80021c4:	2a04      	cmp	r2, #4
 80021c6:	f000 80df 	beq.w	8002388 <HAL_RCC_OscConfig+0x1e0>
      ((__HAL_RCC_GET_SYSCLK_SOURCE() == RCC_CFGR_SWS_PLL) && ((RCC->PLLCFGR & RCC_PLLCFGR_PLLSRC) == RCC_PLLCFGR_PLLSRC_HSE)) ||\
 80021ca:	688a      	ldr	r2, [r1, #8]
 80021cc:	f002 020c 	and.w	r2, r2, #12
    if((__HAL_RCC_GET_SYSCLK_SOURCE() == RCC_CFGR_SWS_HSE)                                                                     ||\
 80021d0:	2a08      	cmp	r2, #8
 80021d2:	f000 80d5 	beq.w	8002380 <HAL_RCC_OscConfig+0x1d8>
      ((__HAL_RCC_GET_SYSCLK_SOURCE() == RCC_CFGR_SWS_PLLR) && ((RCC->PLLCFGR & RCC_PLLCFGR_PLLSRC) == RCC_PLLCFGR_PLLSRC_HSE)))
 80021d6:	49a7      	ldr	r1, [pc, #668]	; (8002474 <HAL_RCC_OscConfig+0x2cc>)
 80021d8:	688a      	ldr	r2, [r1, #8]
 80021da:	f002 020c 	and.w	r2, r2, #12
      ((__HAL_RCC_GET_SYSCLK_SOURCE() == RCC_CFGR_SWS_PLL) && ((RCC->PLLCFGR & RCC_PLLCFGR_PLLSRC) == RCC_PLLCFGR_PLLSRC_HSE)) ||\
 80021de:	2a0c      	cmp	r2, #12
 80021e0:	f000 8104 	beq.w	80023ec <HAL_RCC_OscConfig+0x244>
      }
    }
    else
    {
      /* Set the new HSE configuration ---------------------------------------*/
      __HAL_RCC_HSE_CONFIG(RCC_OscInitStruct->HSEState);
 80021e4:	6863      	ldr	r3, [r4, #4]
 80021e6:	f5b3 3f80 	cmp.w	r3, #65536	; 0x10000
 80021ea:	f000 8118 	beq.w	800241e <HAL_RCC_OscConfig+0x276>
 80021ee:	f5b3 2fa0 	cmp.w	r3, #327680	; 0x50000
 80021f2:	f000 8198 	beq.w	8002526 <HAL_RCC_OscConfig+0x37e>
 80021f6:	4d9f      	ldr	r5, [pc, #636]	; (8002474 <HAL_RCC_OscConfig+0x2cc>)
 80021f8:	682a      	ldr	r2, [r5, #0]
 80021fa:	f422 3280 	bic.w	r2, r2, #65536	; 0x10000
 80021fe:	602a      	str	r2, [r5, #0]
 8002200:	682a      	ldr	r2, [r5, #0]
 8002202:	f422 2280 	bic.w	r2, r2, #262144	; 0x40000
 8002206:	602a      	str	r2, [r5, #0]

      /* Check the HSE State */
      if((RCC_OscInitStruct->HSEState) != RCC_HSE_OFF)
 8002208:	2b00      	cmp	r3, #0
 800220a:	f040 810d 	bne.w	8002428 <HAL_RCC_OscConfig+0x280>
        }
      }
      else
      {
        /* Get Start Tick*/
        tickstart = HAL_GetTick();
 800220e:	f7ff fc05 	bl	8001a1c <HAL_GetTick>
 8002212:	4606      	mov	r6, r0

        /* Wait till HSE is bypassed or disabled */
        while(__HAL_RCC_GET_FLAG(RCC_FLAG_HSERDY) != RESET)
 8002214:	e005      	b.n	8002222 <HAL_RCC_OscConfig+0x7a>
        {
          if((HAL_GetTick() - tickstart ) > HSE_TIMEOUT_VALUE)
 8002216:	f7ff fc01 	bl	8001a1c <HAL_GetTick>
 800221a:	1b80      	subs	r0, r0, r6
 800221c:	2864      	cmp	r0, #100	; 0x64
 800221e:	f200 80fa 	bhi.w	8002416 <HAL_RCC_OscConfig+0x26e>
        while(__HAL_RCC_GET_FLAG(RCC_FLAG_HSERDY) != RESET)
 8002222:	682b      	ldr	r3, [r5, #0]
 8002224:	0399      	lsls	r1, r3, #14
 8002226:	d4f6      	bmi.n	8002216 <HAL_RCC_OscConfig+0x6e>
 8002228:	6823      	ldr	r3, [r4, #0]
        }
      }
    }
  }
  /*----------------------------- HSI Configuration --------------------------*/
  if(((RCC_OscInitStruct->OscillatorType) & RCC_OSCILLATORTYPE_HSI) == RCC_OSCILLATORTYPE_HSI)
 800222a:	079a      	lsls	r2, r3, #30
 800222c:	d52f      	bpl.n	800228e <HAL_RCC_OscConfig+0xe6>
    assert_param(IS_RCC_HSI(RCC_OscInitStruct->HSIState));
    assert_param(IS_RCC_CALIBRATION_VALUE(RCC_OscInitStruct->HSICalibrationValue));

    /* Check if HSI is used as system clock or as PLL source when PLL is selected as system clock */
#if defined(STM32F446xx)
    if((__HAL_RCC_GET_SYSCLK_SOURCE() == RCC_CFGR_SWS_HSI)                                                                     ||\
 800222e:	4a91      	ldr	r2, [pc, #580]	; (8002474 <HAL_RCC_OscConfig+0x2cc>)
 8002230:	6891      	ldr	r1, [r2, #8]
 8002232:	f011 0f0c 	tst.w	r1, #12
 8002236:	f000 8098 	beq.w	800236a <HAL_RCC_OscConfig+0x1c2>
      ((__HAL_RCC_GET_SYSCLK_SOURCE() == RCC_CFGR_SWS_PLL) && ((RCC->PLLCFGR & RCC_PLLCFGR_PLLSRC) == RCC_PLLCFGR_PLLSRC_HSI)) ||\
 800223a:	6891      	ldr	r1, [r2, #8]
 800223c:	f001 010c 	and.w	r1, r1, #12
    if((__HAL_RCC_GET_SYSCLK_SOURCE() == RCC_CFGR_SWS_HSI)                                                                     ||\
 8002240:	2908      	cmp	r1, #8
 8002242:	f000 808e 	beq.w	8002362 <HAL_RCC_OscConfig+0x1ba>
      ((__HAL_RCC_GET_SYSCLK_SOURCE() == RCC_CFGR_SWS_PLLR) && ((RCC->PLLCFGR & RCC_PLLCFGR_PLLSRC) == RCC_PLLCFGR_PLLSRC_HSI)))
 8002246:	498b      	ldr	r1, [pc, #556]	; (8002474 <HAL_RCC_OscConfig+0x2cc>)
 8002248:	688a      	ldr	r2, [r1, #8]
 800224a:	f002 020c 	and.w	r2, r2, #12
      ((__HAL_RCC_GET_SYSCLK_SOURCE() == RCC_CFGR_SWS_PLL) && ((RCC->PLLCFGR & RCC_PLLCFGR_PLLSRC) == RCC_PLLCFGR_PLLSRC_HSI)) ||\
 800224e:	2a0c      	cmp	r2, #12
 8002250:	f000 8164 	beq.w	800251c <HAL_RCC_OscConfig+0x374>
      }
    }
    else
    {
      /* Check the HSI State */
      if((RCC_OscInitStruct->HSIState)!= RCC_HSI_OFF)
 8002254:	68e3      	ldr	r3, [r4, #12]
 8002256:	2b00      	cmp	r3, #0
 8002258:	f000 8116 	beq.w	8002488 <HAL_RCC_OscConfig+0x2e0>
      {
        /* Enable the Internal High Speed oscillator (HSI). */
        __HAL_RCC_HSI_ENABLE();
 800225c:	4b86      	ldr	r3, [pc, #536]	; (8002478 <HAL_RCC_OscConfig+0x2d0>)

        /* Get Start Tick*/
        tickstart = HAL_GetTick();

        /* Wait till HSI is ready */
        while(__HAL_RCC_GET_FLAG(RCC_FLAG_HSIRDY) == RESET)
 800225e:	4e85      	ldr	r6, [pc, #532]	; (8002474 <HAL_RCC_OscConfig+0x2cc>)
        __HAL_RCC_HSI_ENABLE();
 8002260:	2201      	movs	r2, #1
 8002262:	601a      	str	r2, [r3, #0]
        tickstart = HAL_GetTick();
 8002264:	f7ff fbda 	bl	8001a1c <HAL_GetTick>
 8002268:	4605      	mov	r5, r0
        while(__HAL_RCC_GET_FLAG(RCC_FLAG_HSIRDY) == RESET)
 800226a:	e005      	b.n	8002278 <HAL_RCC_OscConfig+0xd0>
        {
          if((HAL_GetTick() - tickstart ) > HSI_TIMEOUT_VALUE)
 800226c:	f7ff fbd6 	bl	8001a1c <HAL_GetTick>
 8002270:	1b40      	subs	r0, r0, r5
 8002272:	2802      	cmp	r0, #2
 8002274:	f200 80cf 	bhi.w	8002416 <HAL_RCC_OscConfig+0x26e>
        while(__HAL_RCC_GET_FLAG(RCC_FLAG_HSIRDY) == RESET)
 8002278:	6833      	ldr	r3, [r6, #0]
 800227a:	0798      	lsls	r0, r3, #30
 800227c:	d5f6      	bpl.n	800226c <HAL_RCC_OscConfig+0xc4>
            return HAL_TIMEOUT;
          }
        }

        /* Adjusts the Internal High Speed oscillator (HSI) calibration value.*/
        __HAL_RCC_HSI_CALIBRATIONVALUE_ADJUST(RCC_OscInitStruct->HSICalibrationValue);
 800227e:	6833      	ldr	r3, [r6, #0]
 8002280:	6922      	ldr	r2, [r4, #16]
 8002282:	f023 03f8 	bic.w	r3, r3, #248	; 0xf8
 8002286:	ea43 03c2 	orr.w	r3, r3, r2, lsl #3
 800228a:	6033      	str	r3, [r6, #0]
 800228c:	6823      	ldr	r3, [r4, #0]
        }
      }
    }
  }
  /*------------------------------ LSI Configuration -------------------------*/
  if(((RCC_OscInitStruct->OscillatorType) & RCC_OSCILLATORTYPE_LSI) == RCC_OSCILLATORTYPE_LSI)
 800228e:	071a      	lsls	r2, r3, #28
 8002290:	d452      	bmi.n	8002338 <HAL_RCC_OscConfig+0x190>
        }
      }
    }
  }
  /*------------------------------ LSE Configuration -------------------------*/
  if(((RCC_OscInitStruct->OscillatorType) & RCC_OSCILLATORTYPE_LSE) == RCC_OSCILLATORTYPE_LSE)
 8002292:	0758      	lsls	r0, r3, #29
 8002294:	d530      	bpl.n	80022f8 <HAL_RCC_OscConfig+0x150>
    /* Check the parameters */
    assert_param(IS_RCC_LSE(RCC_OscInitStruct->LSEState));

    /* Update LSE configuration in Backup Domain control register    */
    /* Requires to enable write access to Backup Domain of necessary */
    if(__HAL_RCC_PWR_IS_CLK_DISABLED())
 8002296:	4a77      	ldr	r2, [pc, #476]	; (8002474 <HAL_RCC_OscConfig+0x2cc>)
 8002298:	6c13      	ldr	r3, [r2, #64]	; 0x40
 800229a:	f013 5380 	ands.w	r3, r3, #268435456	; 0x10000000
 800229e:	f000 8099 	beq.w	80023d4 <HAL_RCC_OscConfig+0x22c>
    FlagStatus       pwrclkchanged = RESET;
 80022a2:	2500      	movs	r5, #0
    {
      __HAL_RCC_PWR_CLK_ENABLE();
      pwrclkchanged = SET;
    }

    if(HAL_IS_BIT_CLR(PWR->CR, PWR_CR_DBP))
 80022a4:	4e75      	ldr	r6, [pc, #468]	; (800247c <HAL_RCC_OscConfig+0x2d4>)
 80022a6:	6833      	ldr	r3, [r6, #0]
 80022a8:	05d9      	lsls	r1, r3, #23
 80022aa:	f140 80a4 	bpl.w	80023f6 <HAL_RCC_OscConfig+0x24e>
        }
      }
    }

    /* Set the new LSE configuration -----------------------------------------*/
    __HAL_RCC_LSE_CONFIG(RCC_OscInitStruct->LSEState);
 80022ae:	68a3      	ldr	r3, [r4, #8]
 80022b0:	2b01      	cmp	r3, #1
 80022b2:	f000 80c7 	beq.w	8002444 <HAL_RCC_OscConfig+0x29c>
 80022b6:	2b05      	cmp	r3, #5
 80022b8:	f000 813f 	beq.w	800253a <HAL_RCC_OscConfig+0x392>
 80022bc:	4e6d      	ldr	r6, [pc, #436]	; (8002474 <HAL_RCC_OscConfig+0x2cc>)
 80022be:	6f32      	ldr	r2, [r6, #112]	; 0x70
 80022c0:	f022 0201 	bic.w	r2, r2, #1
 80022c4:	6732      	str	r2, [r6, #112]	; 0x70
 80022c6:	6f32      	ldr	r2, [r6, #112]	; 0x70
 80022c8:	f022 0204 	bic.w	r2, r2, #4
 80022cc:	6732      	str	r2, [r6, #112]	; 0x70
    /* Check the LSE State */
    if((RCC_OscInitStruct->LSEState) != RCC_LSE_OFF)
 80022ce:	2b00      	cmp	r3, #0
 80022d0:	f040 80bd 	bne.w	800244e <HAL_RCC_OscConfig+0x2a6>
      }
    }
    else
    {
      /* Get Start Tick*/
      tickstart = HAL_GetTick();
 80022d4:	f7ff fba2 	bl	8001a1c <HAL_GetTick>

      /* Wait till LSE is ready */
      while(__HAL_RCC_GET_FLAG(RCC_FLAG_LSERDY) != RESET)
      {
        if((HAL_GetTick() - tickstart ) > RCC_LSE_TIMEOUT_VALUE)
 80022d8:	f241 3888 	movw	r8, #5000	; 0x1388
      tickstart = HAL_GetTick();
 80022dc:	4607      	mov	r7, r0
      while(__HAL_RCC_GET_FLAG(RCC_FLAG_LSERDY) != RESET)
 80022de:	e005      	b.n	80022ec <HAL_RCC_OscConfig+0x144>
        if((HAL_GetTick() - tickstart ) > RCC_LSE_TIMEOUT_VALUE)
 80022e0:	f7ff fb9c 	bl	8001a1c <HAL_GetTick>
 80022e4:	1bc0      	subs	r0, r0, r7
 80022e6:	4540      	cmp	r0, r8
 80022e8:	f200 8095 	bhi.w	8002416 <HAL_RCC_OscConfig+0x26e>
      while(__HAL_RCC_GET_FLAG(RCC_FLAG_LSERDY) != RESET)
 80022ec:	6f33      	ldr	r3, [r6, #112]	; 0x70
 80022ee:	0798      	lsls	r0, r3, #30
 80022f0:	d4f6      	bmi.n	80022e0 <HAL_RCC_OscConfig+0x138>
        }
      }
    }

    /* Restore clock configuration if changed */
    if(pwrclkchanged == SET)
 80022f2:	2d00      	cmp	r5, #0
 80022f4:	f040 810a 	bne.w	800250c <HAL_RCC_OscConfig+0x364>
    }
  }
  /*-------------------------------- PLL Configuration -----------------------*/
  /* Check the parameters */
  assert_param(IS_RCC_PLL(RCC_OscInitStruct->PLL.PLLState));
  if ((RCC_OscInitStruct->PLL.PLLState) != RCC_PLL_NONE)
 80022f8:	69a0      	ldr	r0, [r4, #24]
 80022fa:	b1c8      	cbz	r0, 8002330 <HAL_RCC_OscConfig+0x188>
  {
    /* Check if the PLL is used as system clock or not */
    if(__HAL_RCC_GET_SYSCLK_SOURCE() != RCC_CFGR_SWS_PLL)
 80022fc:	4d5d      	ldr	r5, [pc, #372]	; (8002474 <HAL_RCC_OscConfig+0x2cc>)
 80022fe:	68ab      	ldr	r3, [r5, #8]
 8002300:	f003 030c 	and.w	r3, r3, #12
 8002304:	2b08      	cmp	r3, #8
 8002306:	f000 80d0 	beq.w	80024aa <HAL_RCC_OscConfig+0x302>
        assert_param(IS_RCC_PLLP_VALUE(RCC_OscInitStruct->PLL.PLLP));
        assert_param(IS_RCC_PLLQ_VALUE(RCC_OscInitStruct->PLL.PLLQ));
        assert_param(IS_RCC_PLLR_VALUE(RCC_OscInitStruct->PLL.PLLR));

        /* Disable the main PLL. */
        __HAL_RCC_PLL_DISABLE();
 800230a:	4b5d      	ldr	r3, [pc, #372]	; (8002480 <HAL_RCC_OscConfig+0x2d8>)
 800230c:	2200      	movs	r2, #0
      if((RCC_OscInitStruct->PLL.PLLState) == RCC_PLL_ON)
 800230e:	2802      	cmp	r0, #2
        __HAL_RCC_PLL_DISABLE();
 8002310:	601a      	str	r2, [r3, #0]
      if((RCC_OscInitStruct->PLL.PLLState) == RCC_PLL_ON)
 8002312:	f000 811c 	beq.w	800254e <HAL_RCC_OscConfig+0x3a6>
      {
        /* Disable the main PLL. */
        __HAL_RCC_PLL_DISABLE();

        /* Get Start Tick*/
        tickstart = HAL_GetTick();
 8002316:	f7ff fb81 	bl	8001a1c <HAL_GetTick>

        /* Wait till PLL is ready */
        while(__HAL_RCC_GET_FLAG(RCC_FLAG_PLLRDY) != RESET)
 800231a:	462c      	mov	r4, r5
        tickstart = HAL_GetTick();
 800231c:	4605      	mov	r5, r0
        while(__HAL_RCC_GET_FLAG(RCC_FLAG_PLLRDY) != RESET)
 800231e:	e004      	b.n	800232a <HAL_RCC_OscConfig+0x182>
        {
          if((HAL_GetTick() - tickstart ) > PLL_TIMEOUT_VALUE)
 8002320:	f7ff fb7c 	bl	8001a1c <HAL_GetTick>
 8002324:	1b40      	subs	r0, r0, r5
 8002326:	2802      	cmp	r0, #2
 8002328:	d875      	bhi.n	8002416 <HAL_RCC_OscConfig+0x26e>
        while(__HAL_RCC_GET_FLAG(RCC_FLAG_PLLRDY) != RESET)
 800232a:	6823      	ldr	r3, [r4, #0]
 800232c:	019b      	lsls	r3, r3, #6
 800232e:	d4f7      	bmi.n	8002320 <HAL_RCC_OscConfig+0x178>
          return HAL_ERROR;
        }
      }
    }
  }
  return HAL_OK;
 8002330:	2000      	movs	r0, #0
}
 8002332:	b002      	add	sp, #8
 8002334:	e8bd 81f0 	ldmia.w	sp!, {r4, r5, r6, r7, r8, pc}
    if((RCC_OscInitStruct->LSIState)!= RCC_LSI_OFF)
 8002338:	6963      	ldr	r3, [r4, #20]
 800233a:	2b00      	cmp	r3, #0
 800233c:	d02e      	beq.n	800239c <HAL_RCC_OscConfig+0x1f4>
      __HAL_RCC_LSI_ENABLE();
 800233e:	4b51      	ldr	r3, [pc, #324]	; (8002484 <HAL_RCC_OscConfig+0x2dc>)
      while(__HAL_RCC_GET_FLAG(RCC_FLAG_LSIRDY) == RESET)
 8002340:	4e4c      	ldr	r6, [pc, #304]	; (8002474 <HAL_RCC_OscConfig+0x2cc>)
      __HAL_RCC_LSI_ENABLE();
 8002342:	2201      	movs	r2, #1
 8002344:	601a      	str	r2, [r3, #0]
      tickstart = HAL_GetTick();
 8002346:	f7ff fb69 	bl	8001a1c <HAL_GetTick>
 800234a:	4605      	mov	r5, r0
      while(__HAL_RCC_GET_FLAG(RCC_FLAG_LSIRDY) == RESET)
 800234c:	e004      	b.n	8002358 <HAL_RCC_OscConfig+0x1b0>
        if((HAL_GetTick() - tickstart ) > LSI_TIMEOUT_VALUE)
 800234e:	f7ff fb65 	bl	8001a1c <HAL_GetTick>
 8002352:	1b40      	subs	r0, r0, r5
 8002354:	2802      	cmp	r0, #2
 8002356:	d85e      	bhi.n	8002416 <HAL_RCC_OscConfig+0x26e>
      while(__HAL_RCC_GET_FLAG(RCC_FLAG_LSIRDY) == RESET)
 8002358:	6f73      	ldr	r3, [r6, #116]	; 0x74
 800235a:	079b      	lsls	r3, r3, #30
 800235c:	d5f7      	bpl.n	800234e <HAL_RCC_OscConfig+0x1a6>
 800235e:	6823      	ldr	r3, [r4, #0]
 8002360:	e797      	b.n	8002292 <HAL_RCC_OscConfig+0xea>
      ((__HAL_RCC_GET_SYSCLK_SOURCE() == RCC_CFGR_SWS_PLL) && ((RCC->PLLCFGR & RCC_PLLCFGR_PLLSRC) == RCC_PLLCFGR_PLLSRC_HSI)) ||\
 8002362:	6852      	ldr	r2, [r2, #4]
 8002364:	0257      	lsls	r7, r2, #9
 8002366:	f53f af6e 	bmi.w	8002246 <HAL_RCC_OscConfig+0x9e>
      if((__HAL_RCC_GET_FLAG(RCC_FLAG_HSIRDY) != RESET) && (RCC_OscInitStruct->HSIState != RCC_HSI_ON))
 800236a:	4a42      	ldr	r2, [pc, #264]	; (8002474 <HAL_RCC_OscConfig+0x2cc>)
 800236c:	6812      	ldr	r2, [r2, #0]
 800236e:	0795      	lsls	r5, r2, #30
 8002370:	d524      	bpl.n	80023bc <HAL_RCC_OscConfig+0x214>
 8002372:	68e2      	ldr	r2, [r4, #12]
 8002374:	2a01      	cmp	r2, #1
 8002376:	d021      	beq.n	80023bc <HAL_RCC_OscConfig+0x214>
        return HAL_ERROR;
 8002378:	2001      	movs	r0, #1
}
 800237a:	b002      	add	sp, #8
 800237c:	e8bd 81f0 	ldmia.w	sp!, {r4, r5, r6, r7, r8, pc}
      ((__HAL_RCC_GET_SYSCLK_SOURCE() == RCC_CFGR_SWS_PLL) && ((RCC->PLLCFGR & RCC_PLLCFGR_PLLSRC) == RCC_PLLCFGR_PLLSRC_HSE)) ||\
 8002380:	684a      	ldr	r2, [r1, #4]
 8002382:	0257      	lsls	r7, r2, #9
 8002384:	f57f af27 	bpl.w	80021d6 <HAL_RCC_OscConfig+0x2e>
      if((__HAL_RCC_GET_FLAG(RCC_FLAG_HSERDY) != RESET) && (RCC_OscInitStruct->HSEState == RCC_HSE_OFF))
 8002388:	4a3a      	ldr	r2, [pc, #232]	; (8002474 <HAL_RCC_OscConfig+0x2cc>)
 800238a:	6812      	ldr	r2, [r2, #0]
 800238c:	0395      	lsls	r5, r2, #14
 800238e:	f57f af4c 	bpl.w	800222a <HAL_RCC_OscConfig+0x82>
 8002392:	6862      	ldr	r2, [r4, #4]
 8002394:	2a00      	cmp	r2, #0
 8002396:	f47f af48 	bne.w	800222a <HAL_RCC_OscConfig+0x82>
 800239a:	e7ed      	b.n	8002378 <HAL_RCC_OscConfig+0x1d0>
      __HAL_RCC_LSI_DISABLE();
 800239c:	4a39      	ldr	r2, [pc, #228]	; (8002484 <HAL_RCC_OscConfig+0x2dc>)
      while(__HAL_RCC_GET_FLAG(RCC_FLAG_LSIRDY) != RESET)
 800239e:	4e35      	ldr	r6, [pc, #212]	; (8002474 <HAL_RCC_OscConfig+0x2cc>)
      __HAL_RCC_LSI_DISABLE();
 80023a0:	6013      	str	r3, [r2, #0]
      tickstart = HAL_GetTick();
 80023a2:	f7ff fb3b 	bl	8001a1c <HAL_GetTick>
 80023a6:	4605      	mov	r5, r0
      while(__HAL_RCC_GET_FLAG(RCC_FLAG_LSIRDY) != RESET)
 80023a8:	e004      	b.n	80023b4 <HAL_RCC_OscConfig+0x20c>
        if((HAL_GetTick() - tickstart ) > LSI_TIMEOUT_VALUE)
 80023aa:	f7ff fb37 	bl	8001a1c <HAL_GetTick>
 80023ae:	1b40      	subs	r0, r0, r5
 80023b0:	2802      	cmp	r0, #2
 80023b2:	d830      	bhi.n	8002416 <HAL_RCC_OscConfig+0x26e>
      while(__HAL_RCC_GET_FLAG(RCC_FLAG_LSIRDY) != RESET)
 80023b4:	6f73      	ldr	r3, [r6, #116]	; 0x74
 80023b6:	079f      	lsls	r7, r3, #30
 80023b8:	d4f7      	bmi.n	80023aa <HAL_RCC_OscConfig+0x202>
 80023ba:	e7d0      	b.n	800235e <HAL_RCC_OscConfig+0x1b6>
        __HAL_RCC_HSI_CALIBRATIONVALUE_ADJUST(RCC_OscInitStruct->HSICalibrationValue);
 80023bc:	492d      	ldr	r1, [pc, #180]	; (8002474 <HAL_RCC_OscConfig+0x2cc>)
 80023be:	6920      	ldr	r0, [r4, #16]
 80023c0:	680a      	ldr	r2, [r1, #0]
 80023c2:	f022 02f8 	bic.w	r2, r2, #248	; 0xf8
 80023c6:	ea42 02c0 	orr.w	r2, r2, r0, lsl #3
 80023ca:	600a      	str	r2, [r1, #0]
  if(((RCC_OscInitStruct->OscillatorType) & RCC_OSCILLATORTYPE_LSI) == RCC_OSCILLATORTYPE_LSI)
 80023cc:	071a      	lsls	r2, r3, #28
 80023ce:	f57f af60 	bpl.w	8002292 <HAL_RCC_OscConfig+0xea>
 80023d2:	e7b1      	b.n	8002338 <HAL_RCC_OscConfig+0x190>
      __HAL_RCC_PWR_CLK_ENABLE();
 80023d4:	9301      	str	r3, [sp, #4]
 80023d6:	6c13      	ldr	r3, [r2, #64]	; 0x40
 80023d8:	f043 5380 	orr.w	r3, r3, #268435456	; 0x10000000
 80023dc:	6413      	str	r3, [r2, #64]	; 0x40
 80023de:	6c13      	ldr	r3, [r2, #64]	; 0x40
 80023e0:	f003 5380 	and.w	r3, r3, #268435456	; 0x10000000
 80023e4:	9301      	str	r3, [sp, #4]
 80023e6:	9b01      	ldr	r3, [sp, #4]
      pwrclkchanged = SET;
 80023e8:	2501      	movs	r5, #1
 80023ea:	e75b      	b.n	80022a4 <HAL_RCC_OscConfig+0xfc>
      ((__HAL_RCC_GET_SYSCLK_SOURCE() == RCC_CFGR_SWS_PLLR) && ((RCC->PLLCFGR & RCC_PLLCFGR_PLLSRC) == RCC_PLLCFGR_PLLSRC_HSE)))
 80023ec:	684a      	ldr	r2, [r1, #4]
 80023ee:	0256      	lsls	r6, r2, #9
 80023f0:	f57f aef8 	bpl.w	80021e4 <HAL_RCC_OscConfig+0x3c>
 80023f4:	e7c8      	b.n	8002388 <HAL_RCC_OscConfig+0x1e0>
      SET_BIT(PWR->CR, PWR_CR_DBP);
 80023f6:	6833      	ldr	r3, [r6, #0]
 80023f8:	f443 7380 	orr.w	r3, r3, #256	; 0x100
 80023fc:	6033      	str	r3, [r6, #0]
      tickstart = HAL_GetTick();
 80023fe:	f7ff fb0d 	bl	8001a1c <HAL_GetTick>
 8002402:	4607      	mov	r7, r0
      while(HAL_IS_BIT_CLR(PWR->CR, PWR_CR_DBP))
 8002404:	6833      	ldr	r3, [r6, #0]
 8002406:	05da      	lsls	r2, r3, #23
 8002408:	f53f af51 	bmi.w	80022ae <HAL_RCC_OscConfig+0x106>
        if((HAL_GetTick() - tickstart) > RCC_DBP_TIMEOUT_VALUE)
 800240c:	f7ff fb06 	bl	8001a1c <HAL_GetTick>
 8002410:	1bc0      	subs	r0, r0, r7
 8002412:	2802      	cmp	r0, #2
 8002414:	d9f6      	bls.n	8002404 <HAL_RCC_OscConfig+0x25c>
            return HAL_TIMEOUT;
 8002416:	2003      	movs	r0, #3
}
 8002418:	b002      	add	sp, #8
 800241a:	e8bd 81f0 	ldmia.w	sp!, {r4, r5, r6, r7, r8, pc}
      __HAL_RCC_HSE_CONFIG(RCC_OscInitStruct->HSEState);
 800241e:	4a15      	ldr	r2, [pc, #84]	; (8002474 <HAL_RCC_OscConfig+0x2cc>)
 8002420:	6813      	ldr	r3, [r2, #0]
 8002422:	f443 3380 	orr.w	r3, r3, #65536	; 0x10000
 8002426:	6013      	str	r3, [r2, #0]
        tickstart = HAL_GetTick();
 8002428:	f7ff faf8 	bl	8001a1c <HAL_GetTick>
        while(__HAL_RCC_GET_FLAG(RCC_FLAG_HSERDY) == RESET)
 800242c:	4e11      	ldr	r6, [pc, #68]	; (8002474 <HAL_RCC_OscConfig+0x2cc>)
        tickstart = HAL_GetTick();
 800242e:	4605      	mov	r5, r0
        while(__HAL_RCC_GET_FLAG(RCC_FLAG_HSERDY) == RESET)
 8002430:	e004      	b.n	800243c <HAL_RCC_OscConfig+0x294>
          if((HAL_GetTick() - tickstart ) > HSE_TIMEOUT_VALUE)
 8002432:	f7ff faf3 	bl	8001a1c <HAL_GetTick>
 8002436:	1b40      	subs	r0, r0, r5
 8002438:	2864      	cmp	r0, #100	; 0x64
 800243a:	d8ec      	bhi.n	8002416 <HAL_RCC_OscConfig+0x26e>
        while(__HAL_RCC_GET_FLAG(RCC_FLAG_HSERDY) == RESET)
 800243c:	6833      	ldr	r3, [r6, #0]
 800243e:	0398      	lsls	r0, r3, #14
 8002440:	d5f7      	bpl.n	8002432 <HAL_RCC_OscConfig+0x28a>
 8002442:	e6f1      	b.n	8002228 <HAL_RCC_OscConfig+0x80>
    __HAL_RCC_LSE_CONFIG(RCC_OscInitStruct->LSEState);
 8002444:	4a0b      	ldr	r2, [pc, #44]	; (8002474 <HAL_RCC_OscConfig+0x2cc>)
 8002446:	6f13      	ldr	r3, [r2, #112]	; 0x70
 8002448:	f043 0301 	orr.w	r3, r3, #1
 800244c:	6713      	str	r3, [r2, #112]	; 0x70
      tickstart = HAL_GetTick();
 800244e:	f7ff fae5 	bl	8001a1c <HAL_GetTick>
      while(__HAL_RCC_GET_FLAG(RCC_FLAG_LSERDY) == RESET)
 8002452:	4f08      	ldr	r7, [pc, #32]	; (8002474 <HAL_RCC_OscConfig+0x2cc>)
      tickstart = HAL_GetTick();
 8002454:	4606      	mov	r6, r0
        if((HAL_GetTick() - tickstart ) > RCC_LSE_TIMEOUT_VALUE)
 8002456:	f241 3888 	movw	r8, #5000	; 0x1388
      while(__HAL_RCC_GET_FLAG(RCC_FLAG_LSERDY) == RESET)
 800245a:	e004      	b.n	8002466 <HAL_RCC_OscConfig+0x2be>
        if((HAL_GetTick() - tickstart ) > RCC_LSE_TIMEOUT_VALUE)
 800245c:	f7ff fade 	bl	8001a1c <HAL_GetTick>
 8002460:	1b80      	subs	r0, r0, r6
 8002462:	4540      	cmp	r0, r8
 8002464:	d8d7      	bhi.n	8002416 <HAL_RCC_OscConfig+0x26e>
      while(__HAL_RCC_GET_FLAG(RCC_FLAG_LSERDY) == RESET)
 8002466:	6f3b      	ldr	r3, [r7, #112]	; 0x70
 8002468:	079b      	lsls	r3, r3, #30
 800246a:	d5f7      	bpl.n	800245c <HAL_RCC_OscConfig+0x2b4>
    if(pwrclkchanged == SET)
 800246c:	2d00      	cmp	r5, #0
 800246e:	f43f af43 	beq.w	80022f8 <HAL_RCC_OscConfig+0x150>
 8002472:	e04b      	b.n	800250c <HAL_RCC_OscConfig+0x364>
 8002474:	40023800 	.word	0x40023800
 8002478:	42470000 	.word	0x42470000
 800247c:	40007000 	.word	0x40007000
 8002480:	42470060 	.word	0x42470060
 8002484:	42470e80 	.word	0x42470e80
        __HAL_RCC_HSI_DISABLE();
 8002488:	4a49      	ldr	r2, [pc, #292]	; (80025b0 <HAL_RCC_OscConfig+0x408>)
        while(__HAL_RCC_GET_FLAG(RCC_FLAG_HSIRDY) != RESET)
 800248a:	4e4a      	ldr	r6, [pc, #296]	; (80025b4 <HAL_RCC_OscConfig+0x40c>)
        __HAL_RCC_HSI_DISABLE();
 800248c:	6013      	str	r3, [r2, #0]
        tickstart = HAL_GetTick();
 800248e:	f7ff fac5 	bl	8001a1c <HAL_GetTick>
 8002492:	4605      	mov	r5, r0
        while(__HAL_RCC_GET_FLAG(RCC_FLAG_HSIRDY) != RESET)
 8002494:	e004      	b.n	80024a0 <HAL_RCC_OscConfig+0x2f8>
          if((HAL_GetTick() - tickstart ) > HSI_TIMEOUT_VALUE)
 8002496:	f7ff fac1 	bl	8001a1c <HAL_GetTick>
 800249a:	1b40      	subs	r0, r0, r5
 800249c:	2802      	cmp	r0, #2
 800249e:	d8ba      	bhi.n	8002416 <HAL_RCC_OscConfig+0x26e>
        while(__HAL_RCC_GET_FLAG(RCC_FLAG_HSIRDY) != RESET)
 80024a0:	6833      	ldr	r3, [r6, #0]
 80024a2:	0799      	lsls	r1, r3, #30
 80024a4:	d4f7      	bmi.n	8002496 <HAL_RCC_OscConfig+0x2ee>
 80024a6:	6823      	ldr	r3, [r4, #0]
 80024a8:	e6f1      	b.n	800228e <HAL_RCC_OscConfig+0xe6>
      if((RCC_OscInitStruct->PLL.PLLState) == RCC_PLL_OFF)
 80024aa:	2801      	cmp	r0, #1
 80024ac:	f43f af41 	beq.w	8002332 <HAL_RCC_OscConfig+0x18a>
        pll_config = RCC->PLLCFGR;
 80024b0:	686b      	ldr	r3, [r5, #4]
        if (((RCC_OscInitStruct->PLL.PLLState) == RCC_PLL_OFF) ||
 80024b2:	69e2      	ldr	r2, [r4, #28]
            (READ_BIT(pll_config, RCC_PLLCFGR_PLLSRC) != RCC_OscInitStruct->PLL.PLLSource) ||
 80024b4:	f403 0180 	and.w	r1, r3, #4194304	; 0x400000
        if (((RCC_OscInitStruct->PLL.PLLState) == RCC_PLL_OFF) ||
 80024b8:	4291      	cmp	r1, r2
 80024ba:	f47f af5d 	bne.w	8002378 <HAL_RCC_OscConfig+0x1d0>
            (READ_BIT(pll_config, RCC_PLLCFGR_PLLSRC) != RCC_OscInitStruct->PLL.PLLSource) ||
 80024be:	6a22      	ldr	r2, [r4, #32]
            (READ_BIT(pll_config, RCC_PLLCFGR_PLLM) != (RCC_OscInitStruct->PLL.PLLM) << RCC_PLLCFGR_PLLM_Pos) ||
 80024c0:	f003 013f 	and.w	r1, r3, #63	; 0x3f
            (READ_BIT(pll_config, RCC_PLLCFGR_PLLSRC) != RCC_OscInitStruct->PLL.PLLSource) ||
 80024c4:	4291      	cmp	r1, r2
 80024c6:	f47f af57 	bne.w	8002378 <HAL_RCC_OscConfig+0x1d0>
            (READ_BIT(pll_config, RCC_PLLCFGR_PLLN) != (RCC_OscInitStruct->PLL.PLLN) << RCC_PLLCFGR_PLLN_Pos) ||
 80024ca:	6a61      	ldr	r1, [r4, #36]	; 0x24
 80024cc:	f647 72c0 	movw	r2, #32704	; 0x7fc0
 80024d0:	401a      	ands	r2, r3
            (READ_BIT(pll_config, RCC_PLLCFGR_PLLM) != (RCC_OscInitStruct->PLL.PLLM) << RCC_PLLCFGR_PLLM_Pos) ||
 80024d2:	ebb2 1f81 	cmp.w	r2, r1, lsl #6
 80024d6:	f47f af4f 	bne.w	8002378 <HAL_RCC_OscConfig+0x1d0>
            (READ_BIT(pll_config, RCC_PLLCFGR_PLLP) != (((RCC_OscInitStruct->PLL.PLLP >> 1U) - 1U)) << RCC_PLLCFGR_PLLP_Pos) ||
 80024da:	6aa2      	ldr	r2, [r4, #40]	; 0x28
 80024dc:	0852      	lsrs	r2, r2, #1
 80024de:	3a01      	subs	r2, #1
 80024e0:	f403 3140 	and.w	r1, r3, #196608	; 0x30000
            (READ_BIT(pll_config, RCC_PLLCFGR_PLLN) != (RCC_OscInitStruct->PLL.PLLN) << RCC_PLLCFGR_PLLN_Pos) ||
 80024e4:	ebb1 4f02 	cmp.w	r1, r2, lsl #16
 80024e8:	f47f af46 	bne.w	8002378 <HAL_RCC_OscConfig+0x1d0>
            (READ_BIT(pll_config, RCC_PLLCFGR_PLLQ) != (RCC_OscInitStruct->PLL.PLLQ << RCC_PLLCFGR_PLLQ_Pos)) ||
 80024ec:	6ae1      	ldr	r1, [r4, #44]	; 0x2c
 80024ee:	f003 6270 	and.w	r2, r3, #251658240	; 0xf000000
            (READ_BIT(pll_config, RCC_PLLCFGR_PLLP) != (((RCC_OscInitStruct->PLL.PLLP >> 1U) - 1U)) << RCC_PLLCFGR_PLLP_Pos) ||
 80024f2:	ebb2 6f01 	cmp.w	r2, r1, lsl #24
 80024f6:	f47f af3f 	bne.w	8002378 <HAL_RCC_OscConfig+0x1d0>
            (READ_BIT(pll_config, RCC_PLLCFGR_PLLR) != (RCC_OscInitStruct->PLL.PLLR << RCC_PLLCFGR_PLLR_Pos)))
 80024fa:	6b22      	ldr	r2, [r4, #48]	; 0x30
 80024fc:	f003 43e0 	and.w	r3, r3, #1879048192	; 0x70000000
            (READ_BIT(pll_config, RCC_PLLCFGR_PLLQ) != (RCC_OscInitStruct->PLL.PLLQ << RCC_PLLCFGR_PLLQ_Pos)) ||
 8002500:	ebb3 7f02 	cmp.w	r3, r2, lsl #28
  return HAL_OK;
 8002504:	bf14      	ite	ne
 8002506:	2001      	movne	r0, #1
 8002508:	2000      	moveq	r0, #0
 800250a:	e712      	b.n	8002332 <HAL_RCC_OscConfig+0x18a>
      __HAL_RCC_PWR_CLK_DISABLE();
 800250c:	4a29      	ldr	r2, [pc, #164]	; (80025b4 <HAL_RCC_OscConfig+0x40c>)
 800250e:	6c13      	ldr	r3, [r2, #64]	; 0x40
 8002510:	f023 5380 	bic.w	r3, r3, #268435456	; 0x10000000
 8002514:	6413      	str	r3, [r2, #64]	; 0x40
 8002516:	e6ef      	b.n	80022f8 <HAL_RCC_OscConfig+0x150>
    return HAL_ERROR;
 8002518:	2001      	movs	r0, #1
}
 800251a:	4770      	bx	lr
      ((__HAL_RCC_GET_SYSCLK_SOURCE() == RCC_CFGR_SWS_PLLR) && ((RCC->PLLCFGR & RCC_PLLCFGR_PLLSRC) == RCC_PLLCFGR_PLLSRC_HSI)))
 800251c:	684a      	ldr	r2, [r1, #4]
 800251e:	0256      	lsls	r6, r2, #9
 8002520:	f53f ae98 	bmi.w	8002254 <HAL_RCC_OscConfig+0xac>
 8002524:	e721      	b.n	800236a <HAL_RCC_OscConfig+0x1c2>
      __HAL_RCC_HSE_CONFIG(RCC_OscInitStruct->HSEState);
 8002526:	4b23      	ldr	r3, [pc, #140]	; (80025b4 <HAL_RCC_OscConfig+0x40c>)
 8002528:	681a      	ldr	r2, [r3, #0]
 800252a:	f442 2280 	orr.w	r2, r2, #262144	; 0x40000
 800252e:	601a      	str	r2, [r3, #0]
 8002530:	681a      	ldr	r2, [r3, #0]
 8002532:	f442 3280 	orr.w	r2, r2, #65536	; 0x10000
 8002536:	601a      	str	r2, [r3, #0]
      if((RCC_OscInitStruct->HSEState) != RCC_HSE_OFF)
 8002538:	e776      	b.n	8002428 <HAL_RCC_OscConfig+0x280>
    __HAL_RCC_LSE_CONFIG(RCC_OscInitStruct->LSEState);
 800253a:	4b1e      	ldr	r3, [pc, #120]	; (80025b4 <HAL_RCC_OscConfig+0x40c>)
 800253c:	6f1a      	ldr	r2, [r3, #112]	; 0x70
 800253e:	f042 0204 	orr.w	r2, r2, #4
 8002542:	671a      	str	r2, [r3, #112]	; 0x70
 8002544:	6f1a      	ldr	r2, [r3, #112]	; 0x70
 8002546:	f042 0201 	orr.w	r2, r2, #1
 800254a:	671a      	str	r2, [r3, #112]	; 0x70
    if((RCC_OscInitStruct->LSEState) != RCC_LSE_OFF)
 800254c:	e77f      	b.n	800244e <HAL_RCC_OscConfig+0x2a6>
        tickstart = HAL_GetTick();
 800254e:	f7ff fa65 	bl	8001a1c <HAL_GetTick>
 8002552:	4606      	mov	r6, r0
        while(__HAL_RCC_GET_FLAG(RCC_FLAG_PLLRDY) != RESET)
 8002554:	e005      	b.n	8002562 <HAL_RCC_OscConfig+0x3ba>
          if((HAL_GetTick() - tickstart ) > PLL_TIMEOUT_VALUE)
 8002556:	f7ff fa61 	bl	8001a1c <HAL_GetTick>
 800255a:	1b80      	subs	r0, r0, r6
 800255c:	2802      	cmp	r0, #2
 800255e:	f63f af5a 	bhi.w	8002416 <HAL_RCC_OscConfig+0x26e>
        while(__HAL_RCC_GET_FLAG(RCC_FLAG_PLLRDY) != RESET)
 8002562:	682b      	ldr	r3, [r5, #0]
 8002564:	0199      	lsls	r1, r3, #6
 8002566:	d4f6      	bmi.n	8002556 <HAL_RCC_OscConfig+0x3ae>
        WRITE_REG(RCC->PLLCFGR, (RCC_OscInitStruct->PLL.PLLSource                                            | \
 8002568:	e9d4 3207 	ldrd	r3, r2, [r4, #28]
 800256c:	6a66      	ldr	r6, [r4, #36]	; 0x24
 800256e:	6ae0      	ldr	r0, [r4, #44]	; 0x2c
 8002570:	6b21      	ldr	r1, [r4, #48]	; 0x30
 8002572:	4313      	orrs	r3, r2
 8002574:	6aa2      	ldr	r2, [r4, #40]	; 0x28
 8002576:	ea43 1386 	orr.w	r3, r3, r6, lsl #6
 800257a:	ea43 6300 	orr.w	r3, r3, r0, lsl #24
 800257e:	0852      	lsrs	r2, r2, #1
 8002580:	ea43 7301 	orr.w	r3, r3, r1, lsl #28
 8002584:	3a01      	subs	r2, #1
        __HAL_RCC_PLL_ENABLE();
 8002586:	490c      	ldr	r1, [pc, #48]	; (80025b8 <HAL_RCC_OscConfig+0x410>)
        while(__HAL_RCC_GET_FLAG(RCC_FLAG_PLLRDY) == RESET)
 8002588:	4e0a      	ldr	r6, [pc, #40]	; (80025b4 <HAL_RCC_OscConfig+0x40c>)
        WRITE_REG(RCC->PLLCFGR, (RCC_OscInitStruct->PLL.PLLSource                                            | \
 800258a:	ea43 4302 	orr.w	r3, r3, r2, lsl #16
        __HAL_RCC_PLL_ENABLE();
 800258e:	2201      	movs	r2, #1
        WRITE_REG(RCC->PLLCFGR, (RCC_OscInitStruct->PLL.PLLSource                                            | \
 8002590:	606b      	str	r3, [r5, #4]
        __HAL_RCC_PLL_ENABLE();
 8002592:	600a      	str	r2, [r1, #0]
        tickstart = HAL_GetTick();
 8002594:	f7ff fa42 	bl	8001a1c <HAL_GetTick>
 8002598:	4604      	mov	r4, r0
        while(__HAL_RCC_GET_FLAG(RCC_FLAG_PLLRDY) == RESET)
 800259a:	e005      	b.n	80025a8 <HAL_RCC_OscConfig+0x400>
          if((HAL_GetTick() - tickstart ) > PLL_TIMEOUT_VALUE)
 800259c:	f7ff fa3e 	bl	8001a1c <HAL_GetTick>
 80025a0:	1b00      	subs	r0, r0, r4
 80025a2:	2802      	cmp	r0, #2
 80025a4:	f63f af37 	bhi.w	8002416 <HAL_RCC_OscConfig+0x26e>
        while(__HAL_RCC_GET_FLAG(RCC_FLAG_PLLRDY) == RESET)
 80025a8:	6833      	ldr	r3, [r6, #0]
 80025aa:	019a      	lsls	r2, r3, #6
 80025ac:	d5f6      	bpl.n	800259c <HAL_RCC_OscConfig+0x3f4>
 80025ae:	e6bf      	b.n	8002330 <HAL_RCC_OscConfig+0x188>
 80025b0:	42470000 	.word	0x42470000
 80025b4:	40023800 	.word	0x40023800
 80025b8:	42470060 	.word	0x42470060

080025bc <HAL_RTC_Init>:
  * @retval HAL status
  */
HAL_StatusTypeDef HAL_RTC_Init(RTC_HandleTypeDef *hrtc)
{
  /* Check the RTC peripheral state */
  if(hrtc == NULL)
 80025bc:	2800      	cmp	r0, #0
 80025be:	d068      	beq.n	8002692 <HAL_RTC_Init+0xd6>
{
 80025c0:	b538      	push	{r3, r4, r5, lr}
    {
      hrtc->MspDeInitCallback = HAL_RTC_MspDeInit;
    }
  }
#else
  if(hrtc->State == HAL_RTC_STATE_RESET)
 80025c2:	7f43      	ldrb	r3, [r0, #29]
 80025c4:	4604      	mov	r4, r0
 80025c6:	f003 02ff 	and.w	r2, r3, #255	; 0xff
 80025ca:	2b00      	cmp	r3, #0
 80025cc:	d05d      	beq.n	800268a <HAL_RTC_Init+0xce>

  /* Set RTC state */
  hrtc->State = HAL_RTC_STATE_BUSY;

  /* Disable the write protection for RTC registers */
  __HAL_RTC_WRITEPROTECTION_DISABLE(hrtc);
 80025ce:	6823      	ldr	r3, [r4, #0]
 80025d0:	2253      	movs	r2, #83	; 0x53
  hrtc->State = HAL_RTC_STATE_BUSY;
 80025d2:	2002      	movs	r0, #2
  __HAL_RTC_WRITEPROTECTION_DISABLE(hrtc);
 80025d4:	21ca      	movs	r1, #202	; 0xca
  hrtc->State = HAL_RTC_STATE_BUSY;
 80025d6:	7760      	strb	r0, [r4, #29]
  __HAL_RTC_WRITEPROTECTION_DISABLE(hrtc);
 80025d8:	6259      	str	r1, [r3, #36]	; 0x24
 80025da:	625a      	str	r2, [r3, #36]	; 0x24
HAL_StatusTypeDef RTC_EnterInitMode(RTC_HandleTypeDef* hrtc)
{
  uint32_t tickstart = 0U;

  /* Check if the Initialization mode is set */
  if((hrtc->Instance->ISR & RTC_ISR_INITF) == (uint32_t)RESET)
 80025dc:	68da      	ldr	r2, [r3, #12]
 80025de:	0655      	lsls	r5, r2, #25
 80025e0:	d53c      	bpl.n	800265c <HAL_RTC_Init+0xa0>
    hrtc->Instance->CR &= ((uint32_t)~(RTC_CR_FMT | RTC_CR_OSEL | RTC_CR_POL));
 80025e2:	6899      	ldr	r1, [r3, #8]
    hrtc->Instance->CR |= (uint32_t)(hrtc->Init.HourFormat | hrtc->Init.OutPut | hrtc->Init.OutPutPolarity);
 80025e4:	6862      	ldr	r2, [r4, #4]
 80025e6:	e9d4 5004 	ldrd	r5, r0, [r4, #16]
    hrtc->Instance->CR &= ((uint32_t)~(RTC_CR_FMT | RTC_CR_OSEL | RTC_CR_POL));
 80025ea:	f421 01e0 	bic.w	r1, r1, #7340032	; 0x700000
 80025ee:	f021 0140 	bic.w	r1, r1, #64	; 0x40
 80025f2:	6099      	str	r1, [r3, #8]
    hrtc->Instance->CR |= (uint32_t)(hrtc->Init.HourFormat | hrtc->Init.OutPut | hrtc->Init.OutPutPolarity);
 80025f4:	6899      	ldr	r1, [r3, #8]
 80025f6:	432a      	orrs	r2, r5
 80025f8:	4302      	orrs	r2, r0
 80025fa:	430a      	orrs	r2, r1
    hrtc->Instance->PRER = (uint32_t)(hrtc->Init.SynchPrediv);
 80025fc:	68e1      	ldr	r1, [r4, #12]
    hrtc->Instance->CR |= (uint32_t)(hrtc->Init.HourFormat | hrtc->Init.OutPut | hrtc->Init.OutPutPolarity);
 80025fe:	609a      	str	r2, [r3, #8]
    hrtc->Instance->PRER = (uint32_t)(hrtc->Init.SynchPrediv);
 8002600:	6119      	str	r1, [r3, #16]
    hrtc->Instance->PRER |= (uint32_t)(hrtc->Init.AsynchPrediv << 16U);
 8002602:	691a      	ldr	r2, [r3, #16]
 8002604:	68a1      	ldr	r1, [r4, #8]
 8002606:	ea42 4201 	orr.w	r2, r2, r1, lsl #16
 800260a:	611a      	str	r2, [r3, #16]
    hrtc->Instance->ISR &= (uint32_t)~RTC_ISR_INIT;
 800260c:	68da      	ldr	r2, [r3, #12]
 800260e:	f022 0280 	bic.w	r2, r2, #128	; 0x80
 8002612:	60da      	str	r2, [r3, #12]
    if((hrtc->Instance->CR & RTC_CR_BYPSHAD) == RESET)
 8002614:	689a      	ldr	r2, [r3, #8]
 8002616:	0691      	lsls	r1, r2, #26
 8002618:	d50d      	bpl.n	8002636 <HAL_RTC_Init+0x7a>
    hrtc->Instance->TAFCR &= (uint32_t)~RTC_TAFCR_ALARMOUTTYPE;
 800261a:	6c19      	ldr	r1, [r3, #64]	; 0x40
    hrtc->Instance->TAFCR |= (uint32_t)(hrtc->Init.OutPutType);
 800261c:	69a0      	ldr	r0, [r4, #24]
    hrtc->Instance->TAFCR &= (uint32_t)~RTC_TAFCR_ALARMOUTTYPE;
 800261e:	f421 2180 	bic.w	r1, r1, #262144	; 0x40000
 8002622:	6419      	str	r1, [r3, #64]	; 0x40
    hrtc->Instance->TAFCR |= (uint32_t)(hrtc->Init.OutPutType);
 8002624:	6c1a      	ldr	r2, [r3, #64]	; 0x40
    __HAL_RTC_WRITEPROTECTION_ENABLE(hrtc);
 8002626:	25ff      	movs	r5, #255	; 0xff
    hrtc->Instance->TAFCR |= (uint32_t)(hrtc->Init.OutPutType);
 8002628:	4302      	orrs	r2, r0
    hrtc->State = HAL_RTC_STATE_READY;
 800262a:	2101      	movs	r1, #1
    hrtc->Instance->TAFCR |= (uint32_t)(hrtc->Init.OutPutType);
 800262c:	641a      	str	r2, [r3, #64]	; 0x40
    __HAL_RTC_WRITEPROTECTION_ENABLE(hrtc);
 800262e:	625d      	str	r5, [r3, #36]	; 0x24
    hrtc->State = HAL_RTC_STATE_READY;
 8002630:	7761      	strb	r1, [r4, #29]
    return HAL_OK;
 8002632:	2000      	movs	r0, #0
}
 8002634:	bd38      	pop	{r3, r4, r5, pc}
  hrtc->Instance->ISR &= (uint32_t)RTC_RSF_MASK;
 8002636:	68da      	ldr	r2, [r3, #12]
 8002638:	f022 02a0 	bic.w	r2, r2, #160	; 0xa0
 800263c:	60da      	str	r2, [r3, #12]
    tickstart = HAL_GetTick();
 800263e:	f7ff f9ed 	bl	8001a1c <HAL_GetTick>
 8002642:	4605      	mov	r5, r0
  while((hrtc->Instance->ISR & RTC_ISR_RSF) == (uint32_t)RESET)
 8002644:	e005      	b.n	8002652 <HAL_RTC_Init+0x96>
    if((HAL_GetTick() - tickstart ) > RTC_TIMEOUT_VALUE)
 8002646:	f7ff f9e9 	bl	8001a1c <HAL_GetTick>
 800264a:	1b43      	subs	r3, r0, r5
 800264c:	f5b3 7f7a 	cmp.w	r3, #1000	; 0x3e8
 8002650:	d814      	bhi.n	800267c <HAL_RTC_Init+0xc0>
  while((hrtc->Instance->ISR & RTC_ISR_RSF) == (uint32_t)RESET)
 8002652:	6823      	ldr	r3, [r4, #0]
 8002654:	68da      	ldr	r2, [r3, #12]
 8002656:	0692      	lsls	r2, r2, #26
 8002658:	d5f5      	bpl.n	8002646 <HAL_RTC_Init+0x8a>
 800265a:	e7de      	b.n	800261a <HAL_RTC_Init+0x5e>
  {
    /* Set the Initialization mode */
    hrtc->Instance->ISR = (uint32_t)RTC_INIT_MASK;
 800265c:	f04f 32ff 	mov.w	r2, #4294967295	; 0xffffffff
 8002660:	60da      	str	r2, [r3, #12]

    /* Get tick */
    tickstart = HAL_GetTick();
 8002662:	f7ff f9db 	bl	8001a1c <HAL_GetTick>
 8002666:	4605      	mov	r5, r0

    /* Wait till RTC is in INIT state and if Time out is reached exit */
    while((hrtc->Instance->ISR & RTC_ISR_INITF) == (uint32_t)RESET)
 8002668:	6823      	ldr	r3, [r4, #0]
 800266a:	68da      	ldr	r2, [r3, #12]
 800266c:	0650      	lsls	r0, r2, #25
 800266e:	d4b8      	bmi.n	80025e2 <HAL_RTC_Init+0x26>
    {
      if((HAL_GetTick() - tickstart ) > RTC_TIMEOUT_VALUE)
 8002670:	f7ff f9d4 	bl	8001a1c <HAL_GetTick>
 8002674:	1b43      	subs	r3, r0, r5
 8002676:	f5b3 7f7a 	cmp.w	r3, #1000	; 0x3e8
 800267a:	d9f5      	bls.n	8002668 <HAL_RTC_Init+0xac>
    __HAL_RTC_WRITEPROTECTION_ENABLE(hrtc);
 800267c:	6822      	ldr	r2, [r4, #0]
 800267e:	21ff      	movs	r1, #255	; 0xff
    hrtc->State = HAL_RTC_STATE_ERROR;
 8002680:	2304      	movs	r3, #4
    __HAL_RTC_WRITEPROTECTION_ENABLE(hrtc);
 8002682:	6251      	str	r1, [r2, #36]	; 0x24
    hrtc->State = HAL_RTC_STATE_ERROR;
 8002684:	7763      	strb	r3, [r4, #29]
    return HAL_ERROR;
 8002686:	2001      	movs	r0, #1
}
 8002688:	bd38      	pop	{r3, r4, r5, pc}
    hrtc->Lock = HAL_UNLOCKED;
 800268a:	7702      	strb	r2, [r0, #28]
    HAL_RTC_MspInit(hrtc);
 800268c:	f7ff f8c4 	bl	8001818 <HAL_RTC_MspInit>
 8002690:	e79d      	b.n	80025ce <HAL_RTC_Init+0x12>
     return HAL_ERROR;
 8002692:	2001      	movs	r0, #1
}
 8002694:	4770      	bx	lr
 8002696:	bf00      	nop

08002698 <HAL_RTC_SetTime>:
{
 8002698:	e92d 43f8 	stmdb	sp!, {r3, r4, r5, r6, r7, r8, r9, lr}
  __HAL_LOCK(hrtc);
 800269c:	7f03      	ldrb	r3, [r0, #28]
 800269e:	2b01      	cmp	r3, #1
 80026a0:	f000 80af 	beq.w	8002802 <HAL_RTC_SetTime+0x16a>
 80026a4:	460d      	mov	r5, r1
  hrtc->State = HAL_RTC_STATE_BUSY;
 80026a6:	2302      	movs	r3, #2
  __HAL_LOCK(hrtc);
 80026a8:	2101      	movs	r1, #1
    if((hrtc->Instance->CR & RTC_CR_FMT) != (uint32_t)RESET)
 80026aa:	6807      	ldr	r7, [r0, #0]
  __HAL_LOCK(hrtc);
 80026ac:	7701      	strb	r1, [r0, #28]
  hrtc->State = HAL_RTC_STATE_BUSY;
 80026ae:	4606      	mov	r6, r0
 80026b0:	7743      	strb	r3, [r0, #29]
  if(Format == RTC_FORMAT_BIN)
 80026b2:	2a00      	cmp	r2, #0
 80026b4:	d047      	beq.n	8002746 <HAL_RTC_SetTime+0xae>
    if((hrtc->Instance->CR & RTC_CR_FMT) != (uint32_t)RESET)
 80026b6:	68bb      	ldr	r3, [r7, #8]
    tmpreg = (((uint32_t)(sTime->Hours) << 16U) | \
 80026b8:	7829      	ldrb	r1, [r5, #0]
              ((uint32_t)sTime->Seconds) | \
 80026ba:	78aa      	ldrb	r2, [r5, #2]
    if((hrtc->Instance->CR & RTC_CR_FMT) != (uint32_t)RESET)
 80026bc:	f013 0340 	ands.w	r3, r3, #64	; 0x40
 80026c0:	bf16      	itet	ne
 80026c2:	78ec      	ldrbne	r4, [r5, #3]
      sTime->TimeFormat = 0x00U;
 80026c4:	70eb      	strbeq	r3, [r5, #3]
 80026c6:	0423      	lslne	r3, r4, #16
              ((uint32_t)(sTime->Minutes) << 8U) | \
 80026c8:	786c      	ldrb	r4, [r5, #1]
 80026ca:	0224      	lsls	r4, r4, #8
    tmpreg = (((uint32_t)(sTime->Hours) << 16U) | \
 80026cc:	ea44 4401 	orr.w	r4, r4, r1, lsl #16
              ((uint32_t)(sTime->Minutes) << 8U) | \
 80026d0:	4314      	orrs	r4, r2
    tmpreg = (((uint32_t)(sTime->Hours) << 16U) | \
 80026d2:	431c      	orrs	r4, r3
  __HAL_RTC_WRITEPROTECTION_DISABLE(hrtc);
 80026d4:	22ca      	movs	r2, #202	; 0xca
 80026d6:	2353      	movs	r3, #83	; 0x53
 80026d8:	627a      	str	r2, [r7, #36]	; 0x24
 80026da:	627b      	str	r3, [r7, #36]	; 0x24
  if((hrtc->Instance->ISR & RTC_ISR_INITF) == (uint32_t)RESET)
 80026dc:	68fb      	ldr	r3, [r7, #12]
 80026de:	065a      	lsls	r2, r3, #25
 80026e0:	d56a      	bpl.n	80027b8 <HAL_RTC_SetTime+0x120>
    hrtc->Instance->TR = (uint32_t)(tmpreg & RTC_TR_RESERVED_MASK);
 80026e2:	f004 347f 	and.w	r4, r4, #2139062143	; 0x7f7f7f7f
 80026e6:	f024 44fe 	bic.w	r4, r4, #2130706432	; 0x7f000000
 80026ea:	603c      	str	r4, [r7, #0]
    hrtc->Instance->CR &= (uint32_t)~RTC_CR_BCK;
 80026ec:	68ba      	ldr	r2, [r7, #8]
    hrtc->Instance->CR |= (uint32_t)(sTime->DayLightSaving | sTime->StoreOperation);
 80026ee:	e9d5 3103 	ldrd	r3, r1, [r5, #12]
    hrtc->Instance->CR &= (uint32_t)~RTC_CR_BCK;
 80026f2:	f422 2280 	bic.w	r2, r2, #262144	; 0x40000
 80026f6:	60ba      	str	r2, [r7, #8]
    hrtc->Instance->CR |= (uint32_t)(sTime->DayLightSaving | sTime->StoreOperation);
 80026f8:	68ba      	ldr	r2, [r7, #8]
 80026fa:	430b      	orrs	r3, r1
 80026fc:	4313      	orrs	r3, r2
 80026fe:	60bb      	str	r3, [r7, #8]
    hrtc->Instance->ISR &= (uint32_t)~RTC_ISR_INIT;
 8002700:	68fb      	ldr	r3, [r7, #12]
 8002702:	f023 0380 	bic.w	r3, r3, #128	; 0x80
 8002706:	60fb      	str	r3, [r7, #12]
    if((hrtc->Instance->CR & RTC_CR_BYPSHAD) == RESET)
 8002708:	68bb      	ldr	r3, [r7, #8]
 800270a:	069b      	lsls	r3, r3, #26
 800270c:	d412      	bmi.n	8002734 <HAL_RTC_SetTime+0x9c>
  hrtc->Instance->ISR &= (uint32_t)RTC_RSF_MASK;
 800270e:	68fb      	ldr	r3, [r7, #12]
 8002710:	f023 03a0 	bic.w	r3, r3, #160	; 0xa0
 8002714:	60fb      	str	r3, [r7, #12]
    tickstart = HAL_GetTick();
 8002716:	f7ff f981 	bl	8001a1c <HAL_GetTick>
 800271a:	4605      	mov	r5, r0
  while((hrtc->Instance->ISR & RTC_ISR_RSF) == (uint32_t)RESET)
 800271c:	e005      	b.n	800272a <HAL_RTC_SetTime+0x92>
    if((HAL_GetTick() - tickstart ) > RTC_TIMEOUT_VALUE)
 800271e:	f7ff f97d 	bl	8001a1c <HAL_GetTick>
 8002722:	1b40      	subs	r0, r0, r5
 8002724:	f5b0 7f7a 	cmp.w	r0, #1000	; 0x3e8
 8002728:	d862      	bhi.n	80027f0 <HAL_RTC_SetTime+0x158>
  while((hrtc->Instance->ISR & RTC_ISR_RSF) == (uint32_t)RESET)
 800272a:	6837      	ldr	r7, [r6, #0]
 800272c:	68fc      	ldr	r4, [r7, #12]
 800272e:	f014 0420 	ands.w	r4, r4, #32
 8002732:	d0f4      	beq.n	800271e <HAL_RTC_SetTime+0x86>
   __HAL_UNLOCK(hrtc);
 8002734:	2300      	movs	r3, #0
    __HAL_RTC_WRITEPROTECTION_ENABLE(hrtc);
 8002736:	21ff      	movs	r1, #255	; 0xff
   hrtc->State = HAL_RTC_STATE_READY;
 8002738:	2201      	movs	r2, #1
    __HAL_RTC_WRITEPROTECTION_ENABLE(hrtc);
 800273a:	6279      	str	r1, [r7, #36]	; 0x24
   hrtc->State = HAL_RTC_STATE_READY;
 800273c:	7772      	strb	r2, [r6, #29]
   __HAL_UNLOCK(hrtc);
 800273e:	7733      	strb	r3, [r6, #28]
   return HAL_OK;
 8002740:	4618      	mov	r0, r3
}
 8002742:	e8bd 83f8 	ldmia.w	sp!, {r3, r4, r5, r6, r7, r8, r9, pc}
    if((hrtc->Instance->CR & RTC_CR_FMT) != (uint32_t)RESET)
 8002746:	68bc      	ldr	r4, [r7, #8]
    tmpreg = (uint32_t)(((uint32_t)RTC_ByteToBcd2(sTime->Hours) << 16U) | \
 8002748:	782b      	ldrb	r3, [r5, #0]
    if((hrtc->Instance->CR & RTC_CR_FMT) != (uint32_t)RESET)
 800274a:	f014 0c40 	ands.w	ip, r4, #64	; 0x40
 800274e:	bf16      	itet	ne
 8002750:	78ec      	ldrbne	r4, [r5, #3]
      sTime->TimeFormat = 0x00U;
 8002752:	f885 c003 	strbeq.w	ip, [r5, #3]
 8002756:	ea4f 4c04 	movne.w	ip, r4, lsl #16
  */
uint8_t RTC_ByteToBcd2(uint8_t Value)
{
  uint32_t bcdhigh = 0U;

  while(Value >= 10U)
 800275a:	2b09      	cmp	r3, #9
 800275c:	d909      	bls.n	8002772 <HAL_RTC_SetTime+0xda>
  uint32_t bcdhigh = 0U;
 800275e:	2100      	movs	r1, #0
  {
    bcdhigh++;
    Value -= 10U;
 8002760:	3b0a      	subs	r3, #10
 8002762:	b2db      	uxtb	r3, r3
  while(Value >= 10U)
 8002764:	2b09      	cmp	r3, #9
    bcdhigh++;
 8002766:	f101 0101 	add.w	r1, r1, #1
  while(Value >= 10U)
 800276a:	d8f9      	bhi.n	8002760 <HAL_RTC_SetTime+0xc8>
 800276c:	ea43 1301 	orr.w	r3, r3, r1, lsl #4
 8002770:	b2db      	uxtb	r3, r3
                        ((uint32_t)RTC_ByteToBcd2(sTime->Minutes) << 8U) | \
 8002772:	7869      	ldrb	r1, [r5, #1]
  while(Value >= 10U)
 8002774:	2909      	cmp	r1, #9
    tmpreg = (uint32_t)(((uint32_t)RTC_ByteToBcd2(sTime->Hours) << 16U) | \
 8002776:	ea4f 4303 	mov.w	r3, r3, lsl #16
  while(Value >= 10U)
 800277a:	d909      	bls.n	8002790 <HAL_RTC_SetTime+0xf8>
  uint32_t bcdhigh = 0U;
 800277c:	2400      	movs	r4, #0
    Value -= 10U;
 800277e:	390a      	subs	r1, #10
 8002780:	b2c9      	uxtb	r1, r1
  while(Value >= 10U)
 8002782:	2909      	cmp	r1, #9
    bcdhigh++;
 8002784:	f104 0401 	add.w	r4, r4, #1
  while(Value >= 10U)
 8002788:	d8f9      	bhi.n	800277e <HAL_RTC_SetTime+0xe6>
 800278a:	ea41 1104 	orr.w	r1, r1, r4, lsl #4
 800278e:	b2c9      	uxtb	r1, r1
                        ((uint32_t)RTC_ByteToBcd2(sTime->Seconds)) | \
 8002790:	78a8      	ldrb	r0, [r5, #2]
  while(Value >= 10U)
 8002792:	2809      	cmp	r0, #9
                        ((uint32_t)RTC_ByteToBcd2(sTime->Minutes) << 8U) | \
 8002794:	ea4f 2101 	mov.w	r1, r1, lsl #8
  while(Value >= 10U)
 8002798:	d909      	bls.n	80027ae <HAL_RTC_SetTime+0x116>
    Value -= 10U;
 800279a:	f1a0 040a 	sub.w	r4, r0, #10
 800279e:	b2e0      	uxtb	r0, r4
  while(Value >= 10U)
 80027a0:	2809      	cmp	r0, #9
    bcdhigh++;
 80027a2:	f102 0201 	add.w	r2, r2, #1
  while(Value >= 10U)
 80027a6:	d8f8      	bhi.n	800279a <HAL_RTC_SetTime+0x102>
 80027a8:	ea40 1402 	orr.w	r4, r0, r2, lsl #4
 80027ac:	b2e0      	uxtb	r0, r4
    tmpreg = (uint32_t)(((uint32_t)RTC_ByteToBcd2(sTime->Hours) << 16U) | \
 80027ae:	ea43 040c 	orr.w	r4, r3, ip
 80027b2:	430c      	orrs	r4, r1
 80027b4:	4304      	orrs	r4, r0
 80027b6:	e78d      	b.n	80026d4 <HAL_RTC_SetTime+0x3c>
    hrtc->Instance->ISR = (uint32_t)RTC_INIT_MASK;
 80027b8:	f04f 33ff 	mov.w	r3, #4294967295	; 0xffffffff
 80027bc:	60fb      	str	r3, [r7, #12]
    tickstart = HAL_GetTick();
 80027be:	f7ff f92d 	bl	8001a1c <HAL_GetTick>
 80027c2:	4680      	mov	r8, r0
    while((hrtc->Instance->ISR & RTC_ISR_INITF) == (uint32_t)RESET)
 80027c4:	6837      	ldr	r7, [r6, #0]
 80027c6:	68fb      	ldr	r3, [r7, #12]
 80027c8:	f013 0940 	ands.w	r9, r3, #64	; 0x40
 80027cc:	d189      	bne.n	80026e2 <HAL_RTC_SetTime+0x4a>
      if((HAL_GetTick() - tickstart ) > RTC_TIMEOUT_VALUE)
 80027ce:	f7ff f925 	bl	8001a1c <HAL_GetTick>
 80027d2:	eba0 0008 	sub.w	r0, r0, r8
 80027d6:	f5b0 7f7a 	cmp.w	r0, #1000	; 0x3e8
 80027da:	d9f3      	bls.n	80027c4 <HAL_RTC_SetTime+0x12c>
    __HAL_RTC_WRITEPROTECTION_ENABLE(hrtc);
 80027dc:	6832      	ldr	r2, [r6, #0]
 80027de:	21ff      	movs	r1, #255	; 0xff
    hrtc->State = HAL_RTC_STATE_ERROR;
 80027e0:	2304      	movs	r3, #4
    __HAL_RTC_WRITEPROTECTION_ENABLE(hrtc);
 80027e2:	6251      	str	r1, [r2, #36]	; 0x24
    __HAL_UNLOCK(hrtc);
 80027e4:	f886 901c 	strb.w	r9, [r6, #28]
    hrtc->State = HAL_RTC_STATE_ERROR;
 80027e8:	7773      	strb	r3, [r6, #29]
    return HAL_ERROR;
 80027ea:	2001      	movs	r0, #1
}
 80027ec:	e8bd 83f8 	ldmia.w	sp!, {r3, r4, r5, r6, r7, r8, r9, pc}
        __HAL_RTC_WRITEPROTECTION_ENABLE(hrtc);
 80027f0:	6832      	ldr	r2, [r6, #0]
 80027f2:	21ff      	movs	r1, #255	; 0xff
        hrtc->State = HAL_RTC_STATE_ERROR;
 80027f4:	2304      	movs	r3, #4
        __HAL_RTC_WRITEPROTECTION_ENABLE(hrtc);
 80027f6:	6251      	str	r1, [r2, #36]	; 0x24
        __HAL_UNLOCK(hrtc);
 80027f8:	7734      	strb	r4, [r6, #28]
        hrtc->State = HAL_RTC_STATE_ERROR;
 80027fa:	7773      	strb	r3, [r6, #29]
        return HAL_ERROR;
 80027fc:	2001      	movs	r0, #1
}
 80027fe:	e8bd 83f8 	ldmia.w	sp!, {r3, r4, r5, r6, r7, r8, r9, pc}
  __HAL_LOCK(hrtc);
 8002802:	2002      	movs	r0, #2
}
 8002804:	e8bd 83f8 	ldmia.w	sp!, {r3, r4, r5, r6, r7, r8, r9, pc}

08002808 <HAL_RTC_SetDate>:
{
 8002808:	b5f8      	push	{r3, r4, r5, r6, r7, lr}
 __HAL_LOCK(hrtc);
 800280a:	7f03      	ldrb	r3, [r0, #28]
 800280c:	2b01      	cmp	r3, #1
 800280e:	f000 809e 	beq.w	800294e <HAL_RTC_SetDate+0x146>
 8002812:	4605      	mov	r5, r0
  hrtc->State = HAL_RTC_STATE_BUSY;
 8002814:	2302      	movs	r3, #2
 __HAL_LOCK(hrtc);
 8002816:	2001      	movs	r0, #1
 8002818:	7728      	strb	r0, [r5, #28]
  hrtc->State = HAL_RTC_STATE_BUSY;
 800281a:	776b      	strb	r3, [r5, #29]
  if((Format == RTC_FORMAT_BIN) && ((sDate->Month & 0x10U) == 0x10U))
 800281c:	2a00      	cmp	r2, #0
 800281e:	d038      	beq.n	8002892 <HAL_RTC_SetDate+0x8a>
                  (((uint32_t)sDate->Month) << 8U) | \
 8002820:	784c      	ldrb	r4, [r1, #1]
    datetmpreg = ((((uint32_t)sDate->Year) << 16U) | \
 8002822:	78c8      	ldrb	r0, [r1, #3]
                  ((uint32_t)sDate->Date) | \
 8002824:	788a      	ldrb	r2, [r1, #2]
                  (((uint32_t)sDate->WeekDay) << 13U));
 8002826:	780b      	ldrb	r3, [r1, #0]
                  (((uint32_t)sDate->Month) << 8U) | \
 8002828:	0224      	lsls	r4, r4, #8
    datetmpreg = ((((uint32_t)sDate->Year) << 16U) | \
 800282a:	ea44 4400 	orr.w	r4, r4, r0, lsl #16
                  (((uint32_t)sDate->Month) << 8U) | \
 800282e:	4314      	orrs	r4, r2
    datetmpreg = ((((uint32_t)sDate->Year) << 16U) | \
 8002830:	ea44 3443 	orr.w	r4, r4, r3, lsl #13
  __HAL_RTC_WRITEPROTECTION_DISABLE(hrtc);
 8002834:	682a      	ldr	r2, [r5, #0]
 8002836:	21ca      	movs	r1, #202	; 0xca
 8002838:	2353      	movs	r3, #83	; 0x53
 800283a:	6251      	str	r1, [r2, #36]	; 0x24
 800283c:	6253      	str	r3, [r2, #36]	; 0x24
  if((hrtc->Instance->ISR & RTC_ISR_INITF) == (uint32_t)RESET)
 800283e:	68d3      	ldr	r3, [r2, #12]
 8002840:	0659      	lsls	r1, r3, #25
 8002842:	d55f      	bpl.n	8002904 <HAL_RTC_SetDate+0xfc>
    hrtc->Instance->DR = (uint32_t)(datetmpreg & RTC_DR_RESERVED_MASK);
 8002844:	f024 447f 	bic.w	r4, r4, #4278190080	; 0xff000000
 8002848:	f024 04c0 	bic.w	r4, r4, #192	; 0xc0
 800284c:	6054      	str	r4, [r2, #4]
    hrtc->Instance->ISR &= (uint32_t)~RTC_ISR_INIT;
 800284e:	68d3      	ldr	r3, [r2, #12]
 8002850:	f023 0380 	bic.w	r3, r3, #128	; 0x80
 8002854:	60d3      	str	r3, [r2, #12]
    if((hrtc->Instance->CR & RTC_CR_BYPSHAD) == RESET)
 8002856:	6893      	ldr	r3, [r2, #8]
 8002858:	069b      	lsls	r3, r3, #26
 800285a:	d412      	bmi.n	8002882 <HAL_RTC_SetDate+0x7a>
  hrtc->Instance->ISR &= (uint32_t)RTC_RSF_MASK;
 800285c:	68d3      	ldr	r3, [r2, #12]
 800285e:	f023 03a0 	bic.w	r3, r3, #160	; 0xa0
 8002862:	60d3      	str	r3, [r2, #12]
    tickstart = HAL_GetTick();
 8002864:	f7ff f8da 	bl	8001a1c <HAL_GetTick>
 8002868:	4606      	mov	r6, r0
  while((hrtc->Instance->ISR & RTC_ISR_RSF) == (uint32_t)RESET)
 800286a:	e005      	b.n	8002878 <HAL_RTC_SetDate+0x70>
    if((HAL_GetTick() - tickstart ) > RTC_TIMEOUT_VALUE)
 800286c:	f7ff f8d6 	bl	8001a1c <HAL_GetTick>
 8002870:	1b80      	subs	r0, r0, r6
 8002872:	f5b0 7f7a 	cmp.w	r0, #1000	; 0x3e8
 8002876:	d862      	bhi.n	800293e <HAL_RTC_SetDate+0x136>
  while((hrtc->Instance->ISR & RTC_ISR_RSF) == (uint32_t)RESET)
 8002878:	682a      	ldr	r2, [r5, #0]
 800287a:	68d4      	ldr	r4, [r2, #12]
 800287c:	f014 0420 	ands.w	r4, r4, #32
 8002880:	d0f4      	beq.n	800286c <HAL_RTC_SetDate+0x64>
    __HAL_UNLOCK(hrtc);
 8002882:	2300      	movs	r3, #0
    __HAL_RTC_WRITEPROTECTION_ENABLE(hrtc);
 8002884:	20ff      	movs	r0, #255	; 0xff
    hrtc->State = HAL_RTC_STATE_READY ;
 8002886:	2101      	movs	r1, #1
    __HAL_RTC_WRITEPROTECTION_ENABLE(hrtc);
 8002888:	6250      	str	r0, [r2, #36]	; 0x24
    hrtc->State = HAL_RTC_STATE_READY ;
 800288a:	7769      	strb	r1, [r5, #29]
    __HAL_UNLOCK(hrtc);
 800288c:	772b      	strb	r3, [r5, #28]
    return HAL_OK;
 800288e:	4618      	mov	r0, r3
}
 8002890:	bdf8      	pop	{r3, r4, r5, r6, r7, pc}
  if((Format == RTC_FORMAT_BIN) && ((sDate->Month & 0x10U) == 0x10U))
 8002892:	784b      	ldrb	r3, [r1, #1]
 8002894:	06d8      	lsls	r0, r3, #27
 8002896:	d54e      	bpl.n	8002936 <HAL_RTC_SetDate+0x12e>
   datetmpreg = (((uint32_t)RTC_ByteToBcd2(sDate->Year) << 16U) | \
 8002898:	78cc      	ldrb	r4, [r1, #3]
    sDate->Month = (uint8_t)((sDate->Month & (uint8_t)~(0x10U)) + (uint8_t)0x0AU);
 800289a:	f023 0310 	bic.w	r3, r3, #16
 800289e:	330a      	adds	r3, #10
 80028a0:	b2db      	uxtb	r3, r3
  while(Value >= 10U)
 80028a2:	2c09      	cmp	r4, #9
    sDate->Month = (uint8_t)((sDate->Month & (uint8_t)~(0x10U)) + (uint8_t)0x0AU);
 80028a4:	704b      	strb	r3, [r1, #1]
  while(Value >= 10U)
 80028a6:	d954      	bls.n	8002952 <HAL_RTC_SetDate+0x14a>
  uint32_t bcdhigh = 0U;
 80028a8:	2000      	movs	r0, #0
    Value -= 10U;
 80028aa:	3c0a      	subs	r4, #10
 80028ac:	b2e4      	uxtb	r4, r4
  while(Value >= 10U)
 80028ae:	2c09      	cmp	r4, #9
    bcdhigh++;
 80028b0:	f100 0001 	add.w	r0, r0, #1
  while(Value >= 10U)
 80028b4:	d8f9      	bhi.n	80028aa <HAL_RTC_SetDate+0xa2>
 80028b6:	ea44 1400 	orr.w	r4, r4, r0, lsl #4
 80028ba:	b2e4      	uxtb	r4, r4
 80028bc:	2b09      	cmp	r3, #9
   datetmpreg = (((uint32_t)RTC_ByteToBcd2(sDate->Year) << 16U) | \
 80028be:	ea4f 4004 	mov.w	r0, r4, lsl #16
  while(Value >= 10U)
 80028c2:	d909      	bls.n	80028d8 <HAL_RTC_SetDate+0xd0>
  uint32_t bcdhigh = 0U;
 80028c4:	2400      	movs	r4, #0
    Value -= 10U;
 80028c6:	3b0a      	subs	r3, #10
 80028c8:	b2db      	uxtb	r3, r3
  while(Value >= 10U)
 80028ca:	2b09      	cmp	r3, #9
    bcdhigh++;
 80028cc:	f104 0401 	add.w	r4, r4, #1
  while(Value >= 10U)
 80028d0:	d8f9      	bhi.n	80028c6 <HAL_RTC_SetDate+0xbe>
 80028d2:	ea43 1304 	orr.w	r3, r3, r4, lsl #4
 80028d6:	b2db      	uxtb	r3, r3
                 ((uint32_t)RTC_ByteToBcd2(sDate->Date)) | \
 80028d8:	788e      	ldrb	r6, [r1, #2]
  while(Value >= 10U)
 80028da:	2e09      	cmp	r6, #9
                 ((uint32_t)RTC_ByteToBcd2(sDate->Month) << 8U) | \
 80028dc:	ea4f 2303 	mov.w	r3, r3, lsl #8
  while(Value >= 10U)
 80028e0:	d909      	bls.n	80028f6 <HAL_RTC_SetDate+0xee>
    Value -= 10U;
 80028e2:	f1a6 040a 	sub.w	r4, r6, #10
 80028e6:	b2e6      	uxtb	r6, r4
  while(Value >= 10U)
 80028e8:	2e09      	cmp	r6, #9
    bcdhigh++;
 80028ea:	f102 0201 	add.w	r2, r2, #1
  while(Value >= 10U)
 80028ee:	d8f8      	bhi.n	80028e2 <HAL_RTC_SetDate+0xda>
 80028f0:	ea46 1402 	orr.w	r4, r6, r2, lsl #4
 80028f4:	b2e6      	uxtb	r6, r4
                 ((uint32_t)sDate->WeekDay << 13U));
 80028f6:	780c      	ldrb	r4, [r1, #0]
   datetmpreg = (((uint32_t)RTC_ByteToBcd2(sDate->Year) << 16U) | \
 80028f8:	ea40 3444 	orr.w	r4, r0, r4, lsl #13
 80028fc:	4323      	orrs	r3, r4
 80028fe:	ea43 0406 	orr.w	r4, r3, r6
 8002902:	e797      	b.n	8002834 <HAL_RTC_SetDate+0x2c>
    hrtc->Instance->ISR = (uint32_t)RTC_INIT_MASK;
 8002904:	f04f 33ff 	mov.w	r3, #4294967295	; 0xffffffff
 8002908:	60d3      	str	r3, [r2, #12]
    tickstart = HAL_GetTick();
 800290a:	f7ff f887 	bl	8001a1c <HAL_GetTick>
 800290e:	4607      	mov	r7, r0
    while((hrtc->Instance->ISR & RTC_ISR_INITF) == (uint32_t)RESET)
 8002910:	682a      	ldr	r2, [r5, #0]
 8002912:	68d6      	ldr	r6, [r2, #12]
 8002914:	f016 0640 	ands.w	r6, r6, #64	; 0x40
 8002918:	d194      	bne.n	8002844 <HAL_RTC_SetDate+0x3c>
      if((HAL_GetTick() - tickstart ) > RTC_TIMEOUT_VALUE)
 800291a:	f7ff f87f 	bl	8001a1c <HAL_GetTick>
 800291e:	1bc0      	subs	r0, r0, r7
 8002920:	f5b0 7f7a 	cmp.w	r0, #1000	; 0x3e8
 8002924:	d9f4      	bls.n	8002910 <HAL_RTC_SetDate+0x108>
    __HAL_RTC_WRITEPROTECTION_ENABLE(hrtc);
 8002926:	682a      	ldr	r2, [r5, #0]
 8002928:	21ff      	movs	r1, #255	; 0xff
    hrtc->State = HAL_RTC_STATE_ERROR;
 800292a:	2304      	movs	r3, #4
    __HAL_RTC_WRITEPROTECTION_ENABLE(hrtc);
 800292c:	6251      	str	r1, [r2, #36]	; 0x24
    __HAL_UNLOCK(hrtc);
 800292e:	772e      	strb	r6, [r5, #28]
    hrtc->State = HAL_RTC_STATE_ERROR;
 8002930:	776b      	strb	r3, [r5, #29]
    return HAL_ERROR;
 8002932:	2001      	movs	r0, #1
}
 8002934:	bdf8      	pop	{r3, r4, r5, r6, r7, pc}
   datetmpreg = (((uint32_t)RTC_ByteToBcd2(sDate->Year) << 16U) | \
 8002936:	78cc      	ldrb	r4, [r1, #3]
  while(Value >= 10U)
 8002938:	2c09      	cmp	r4, #9
 800293a:	d8b5      	bhi.n	80028a8 <HAL_RTC_SetDate+0xa0>
 800293c:	e7be      	b.n	80028bc <HAL_RTC_SetDate+0xb4>
        __HAL_RTC_WRITEPROTECTION_ENABLE(hrtc);
 800293e:	682a      	ldr	r2, [r5, #0]
 8002940:	21ff      	movs	r1, #255	; 0xff
        hrtc->State = HAL_RTC_STATE_ERROR;
 8002942:	2304      	movs	r3, #4
        __HAL_RTC_WRITEPROTECTION_ENABLE(hrtc);
 8002944:	6251      	str	r1, [r2, #36]	; 0x24
        __HAL_UNLOCK(hrtc);
 8002946:	772c      	strb	r4, [r5, #28]
        hrtc->State = HAL_RTC_STATE_ERROR;
 8002948:	776b      	strb	r3, [r5, #29]
        return HAL_ERROR;
 800294a:	2001      	movs	r0, #1
}
 800294c:	bdf8      	pop	{r3, r4, r5, r6, r7, pc}
 __HAL_LOCK(hrtc);
 800294e:	2002      	movs	r0, #2
}
 8002950:	bdf8      	pop	{r3, r4, r5, r6, r7, pc}
   datetmpreg = (((uint32_t)RTC_ByteToBcd2(sDate->Year) << 16U) | \
 8002952:	0420      	lsls	r0, r4, #16
  while(Value >= 10U)
 8002954:	e7b6      	b.n	80028c4 <HAL_RTC_SetDate+0xbc>
 8002956:	bf00      	nop

08002958 <HAL_RTCEx_SetTimeStamp>:
  /* Check the parameters */
  assert_param(IS_TIMESTAMP_EDGE(TimeStampEdge));
  assert_param(IS_RTC_TIMESTAMP_PIN(RTC_TimeStampPin));

  /* Process Locked */
  __HAL_LOCK(hrtc);
 8002958:	7f03      	ldrb	r3, [r0, #28]
 800295a:	2b01      	cmp	r3, #1
 800295c:	d023      	beq.n	80029a6 <HAL_RTCEx_SetTimeStamp+0x4e>
{
 800295e:	b430      	push	{r4, r5}
 8002960:	4604      	mov	r4, r0

  hrtc->State = HAL_RTC_STATE_BUSY;
 8002962:	2002      	movs	r0, #2

  /* Get the RTC_CR register and clear the bits to be configured */
  tmpreg = (uint32_t)(hrtc->Instance->CR & (uint32_t)~(RTC_CR_TSEDGE | RTC_CR_TSE));
 8002964:	6823      	ldr	r3, [r4, #0]
  hrtc->State = HAL_RTC_STATE_BUSY;
 8002966:	7760      	strb	r0, [r4, #29]

  tmpreg|= TimeStampEdge;

  /* Disable the write protection for RTC registers */
  __HAL_RTC_WRITEPROTECTION_DISABLE(hrtc);
 8002968:	20ca      	movs	r0, #202	; 0xca
  tmpreg = (uint32_t)(hrtc->Instance->CR & (uint32_t)~(RTC_CR_TSEDGE | RTC_CR_TSE));
 800296a:	689d      	ldr	r5, [r3, #8]
  __HAL_RTC_WRITEPROTECTION_DISABLE(hrtc);
 800296c:	6258      	str	r0, [r3, #36]	; 0x24
 800296e:	2053      	movs	r0, #83	; 0x53
 8002970:	6258      	str	r0, [r3, #36]	; 0x24

  hrtc->Instance->TAFCR &= (uint32_t)~RTC_TAFCR_TSINSEL;
 8002972:	6c18      	ldr	r0, [r3, #64]	; 0x40
 8002974:	f420 3000 	bic.w	r0, r0, #131072	; 0x20000
 8002978:	6418      	str	r0, [r3, #64]	; 0x40
  tmpreg = (uint32_t)(hrtc->Instance->CR & (uint32_t)~(RTC_CR_TSEDGE | RTC_CR_TSE));
 800297a:	f425 6000 	bic.w	r0, r5, #2048	; 0x800
  hrtc->Instance->TAFCR |= (uint32_t)(RTC_TimeStampPin);
 800297e:	6c1d      	ldr	r5, [r3, #64]	; 0x40
  tmpreg = (uint32_t)(hrtc->Instance->CR & (uint32_t)~(RTC_CR_TSEDGE | RTC_CR_TSE));
 8002980:	f020 0008 	bic.w	r0, r0, #8
  tmpreg|= TimeStampEdge;
 8002984:	4301      	orrs	r1, r0
  hrtc->Instance->TAFCR |= (uint32_t)(RTC_TimeStampPin);
 8002986:	432a      	orrs	r2, r5
 8002988:	641a      	str	r2, [r3, #64]	; 0x40

  /* Configure the Time Stamp TSEDGE and Enable bits */
  hrtc->Instance->CR = (uint32_t)tmpreg;
 800298a:	6099      	str	r1, [r3, #8]

  __HAL_RTC_TIMESTAMP_ENABLE(hrtc);
 800298c:	689a      	ldr	r2, [r3, #8]

  /* Enable the write protection for RTC registers */
  __HAL_RTC_WRITEPROTECTION_ENABLE(hrtc);
 800298e:	20ff      	movs	r0, #255	; 0xff

  /* Change RTC state */
  hrtc->State = HAL_RTC_STATE_READY;
 8002990:	2501      	movs	r5, #1

  /* Process Unlocked */
  __HAL_UNLOCK(hrtc);
 8002992:	2100      	movs	r1, #0
  __HAL_RTC_TIMESTAMP_ENABLE(hrtc);
 8002994:	f442 6200 	orr.w	r2, r2, #2048	; 0x800
 8002998:	609a      	str	r2, [r3, #8]
  __HAL_RTC_WRITEPROTECTION_ENABLE(hrtc);
 800299a:	6258      	str	r0, [r3, #36]	; 0x24
  hrtc->State = HAL_RTC_STATE_READY;
 800299c:	7765      	strb	r5, [r4, #29]
  __HAL_UNLOCK(hrtc);
 800299e:	7721      	strb	r1, [r4, #28]

  return HAL_OK;
 80029a0:	4608      	mov	r0, r1
}
 80029a2:	bc30      	pop	{r4, r5}
 80029a4:	4770      	bx	lr
  __HAL_LOCK(hrtc);
 80029a6:	2002      	movs	r0, #2
}
 80029a8:	4770      	bx	lr
 80029aa:	bf00      	nop

080029ac <calloc>:
 80029ac:	4b02      	ldr	r3, [pc, #8]	; (80029b8 <calloc+0xc>)
 80029ae:	460a      	mov	r2, r1
 80029b0:	4601      	mov	r1, r0
 80029b2:	6818      	ldr	r0, [r3, #0]
 80029b4:	f000 b866 	b.w	8002a84 <_calloc_r>
 80029b8:	2000000c 	.word	0x2000000c

080029bc <__errno>:
 80029bc:	4b01      	ldr	r3, [pc, #4]	; (80029c4 <__errno+0x8>)
 80029be:	6818      	ldr	r0, [r3, #0]
 80029c0:	4770      	bx	lr
 80029c2:	bf00      	nop
 80029c4:	2000000c 	.word	0x2000000c

080029c8 <exit>:
 80029c8:	b508      	push	{r3, lr}
 80029ca:	4b07      	ldr	r3, [pc, #28]	; (80029e8 <exit+0x20>)
 80029cc:	4604      	mov	r4, r0
 80029ce:	b113      	cbz	r3, 80029d6 <exit+0xe>
 80029d0:	2100      	movs	r1, #0
 80029d2:	f3af 8000 	nop.w
 80029d6:	4b05      	ldr	r3, [pc, #20]	; (80029ec <exit+0x24>)
 80029d8:	6818      	ldr	r0, [r3, #0]
 80029da:	6a83      	ldr	r3, [r0, #40]	; 0x28
 80029dc:	b103      	cbz	r3, 80029e0 <exit+0x18>
 80029de:	4798      	blx	r3
 80029e0:	4620      	mov	r0, r4
 80029e2:	f7fe ff59 	bl	8001898 <_exit>
 80029e6:	bf00      	nop
 80029e8:	00000000 	.word	0x00000000
 80029ec:	08005f3c 	.word	0x08005f3c

080029f0 <__libc_init_array>:
 80029f0:	b570      	push	{r4, r5, r6, lr}
 80029f2:	4d0d      	ldr	r5, [pc, #52]	; (8002a28 <__libc_init_array+0x38>)
 80029f4:	4c0d      	ldr	r4, [pc, #52]	; (8002a2c <__libc_init_array+0x3c>)
 80029f6:	1b64      	subs	r4, r4, r5
 80029f8:	10a4      	asrs	r4, r4, #2
 80029fa:	2600      	movs	r6, #0
 80029fc:	42a6      	cmp	r6, r4
 80029fe:	d109      	bne.n	8002a14 <__libc_init_array+0x24>
 8002a00:	4d0b      	ldr	r5, [pc, #44]	; (8002a30 <__libc_init_array+0x40>)
 8002a02:	4c0c      	ldr	r4, [pc, #48]	; (8002a34 <__libc_init_array+0x44>)
 8002a04:	f002 ff94 	bl	8005930 <_init>
 8002a08:	1b64      	subs	r4, r4, r5
 8002a0a:	10a4      	asrs	r4, r4, #2
 8002a0c:	2600      	movs	r6, #0
 8002a0e:	42a6      	cmp	r6, r4
 8002a10:	d105      	bne.n	8002a1e <__libc_init_array+0x2e>
 8002a12:	bd70      	pop	{r4, r5, r6, pc}
 8002a14:	f855 3b04 	ldr.w	r3, [r5], #4
 8002a18:	4798      	blx	r3
 8002a1a:	3601      	adds	r6, #1
 8002a1c:	e7ee      	b.n	80029fc <__libc_init_array+0xc>
 8002a1e:	f855 3b04 	ldr.w	r3, [r5], #4
 8002a22:	4798      	blx	r3
 8002a24:	3601      	adds	r6, #1
 8002a26:	e7f2      	b.n	8002a0e <__libc_init_array+0x1e>
 8002a28:	08006324 	.word	0x08006324
 8002a2c:	08006324 	.word	0x08006324
 8002a30:	08006324 	.word	0x08006324
 8002a34:	08006328 	.word	0x08006328

08002a38 <malloc>:
 8002a38:	4b02      	ldr	r3, [pc, #8]	; (8002a44 <malloc+0xc>)
 8002a3a:	4601      	mov	r1, r0
 8002a3c:	6818      	ldr	r0, [r3, #0]
 8002a3e:	f000 b881 	b.w	8002b44 <_malloc_r>
 8002a42:	bf00      	nop
 8002a44:	2000000c 	.word	0x2000000c

08002a48 <free>:
 8002a48:	4b02      	ldr	r3, [pc, #8]	; (8002a54 <free+0xc>)
 8002a4a:	4601      	mov	r1, r0
 8002a4c:	6818      	ldr	r0, [r3, #0]
 8002a4e:	f000 b829 	b.w	8002aa4 <_free_r>
 8002a52:	bf00      	nop
 8002a54:	2000000c 	.word	0x2000000c

08002a58 <memcpy>:
 8002a58:	440a      	add	r2, r1
 8002a5a:	4291      	cmp	r1, r2
 8002a5c:	f100 33ff 	add.w	r3, r0, #4294967295	; 0xffffffff
 8002a60:	d100      	bne.n	8002a64 <memcpy+0xc>
 8002a62:	4770      	bx	lr
 8002a64:	b510      	push	{r4, lr}
 8002a66:	f811 4b01 	ldrb.w	r4, [r1], #1
 8002a6a:	f803 4f01 	strb.w	r4, [r3, #1]!
 8002a6e:	4291      	cmp	r1, r2
 8002a70:	d1f9      	bne.n	8002a66 <memcpy+0xe>
 8002a72:	bd10      	pop	{r4, pc}

08002a74 <memset>:
 8002a74:	4402      	add	r2, r0
 8002a76:	4603      	mov	r3, r0
 8002a78:	4293      	cmp	r3, r2
 8002a7a:	d100      	bne.n	8002a7e <memset+0xa>
 8002a7c:	4770      	bx	lr
 8002a7e:	f803 1b01 	strb.w	r1, [r3], #1
 8002a82:	e7f9      	b.n	8002a78 <memset+0x4>

08002a84 <_calloc_r>:
 8002a84:	b513      	push	{r0, r1, r4, lr}
 8002a86:	434a      	muls	r2, r1
 8002a88:	4611      	mov	r1, r2
 8002a8a:	9201      	str	r2, [sp, #4]
 8002a8c:	f000 f85a 	bl	8002b44 <_malloc_r>
 8002a90:	4604      	mov	r4, r0
 8002a92:	b118      	cbz	r0, 8002a9c <_calloc_r+0x18>
 8002a94:	9a01      	ldr	r2, [sp, #4]
 8002a96:	2100      	movs	r1, #0
 8002a98:	f7ff ffec 	bl	8002a74 <memset>
 8002a9c:	4620      	mov	r0, r4
 8002a9e:	b002      	add	sp, #8
 8002aa0:	bd10      	pop	{r4, pc}
	...

08002aa4 <_free_r>:
 8002aa4:	b537      	push	{r0, r1, r2, r4, r5, lr}
 8002aa6:	2900      	cmp	r1, #0
 8002aa8:	d048      	beq.n	8002b3c <_free_r+0x98>
 8002aaa:	f851 3c04 	ldr.w	r3, [r1, #-4]
 8002aae:	9001      	str	r0, [sp, #4]
 8002ab0:	2b00      	cmp	r3, #0
 8002ab2:	f1a1 0404 	sub.w	r4, r1, #4
 8002ab6:	bfb8      	it	lt
 8002ab8:	18e4      	addlt	r4, r4, r3
 8002aba:	f001 ff01 	bl	80048c0 <__malloc_lock>
 8002abe:	4a20      	ldr	r2, [pc, #128]	; (8002b40 <_free_r+0x9c>)
 8002ac0:	9801      	ldr	r0, [sp, #4]
 8002ac2:	6813      	ldr	r3, [r2, #0]
 8002ac4:	4615      	mov	r5, r2
 8002ac6:	b933      	cbnz	r3, 8002ad6 <_free_r+0x32>
 8002ac8:	6063      	str	r3, [r4, #4]
 8002aca:	6014      	str	r4, [r2, #0]
 8002acc:	b003      	add	sp, #12
 8002ace:	e8bd 4030 	ldmia.w	sp!, {r4, r5, lr}
 8002ad2:	f001 befb 	b.w	80048cc <__malloc_unlock>
 8002ad6:	42a3      	cmp	r3, r4
 8002ad8:	d90b      	bls.n	8002af2 <_free_r+0x4e>
 8002ada:	6821      	ldr	r1, [r4, #0]
 8002adc:	1862      	adds	r2, r4, r1
 8002ade:	4293      	cmp	r3, r2
 8002ae0:	bf04      	itt	eq
 8002ae2:	681a      	ldreq	r2, [r3, #0]
 8002ae4:	685b      	ldreq	r3, [r3, #4]
 8002ae6:	6063      	str	r3, [r4, #4]
 8002ae8:	bf04      	itt	eq
 8002aea:	1852      	addeq	r2, r2, r1
 8002aec:	6022      	streq	r2, [r4, #0]
 8002aee:	602c      	str	r4, [r5, #0]
 8002af0:	e7ec      	b.n	8002acc <_free_r+0x28>
 8002af2:	461a      	mov	r2, r3
 8002af4:	685b      	ldr	r3, [r3, #4]
 8002af6:	b10b      	cbz	r3, 8002afc <_free_r+0x58>
 8002af8:	42a3      	cmp	r3, r4
 8002afa:	d9fa      	bls.n	8002af2 <_free_r+0x4e>
 8002afc:	6811      	ldr	r1, [r2, #0]
 8002afe:	1855      	adds	r5, r2, r1
 8002b00:	42a5      	cmp	r5, r4
 8002b02:	d10b      	bne.n	8002b1c <_free_r+0x78>
 8002b04:	6824      	ldr	r4, [r4, #0]
 8002b06:	4421      	add	r1, r4
 8002b08:	1854      	adds	r4, r2, r1
 8002b0a:	42a3      	cmp	r3, r4
 8002b0c:	6011      	str	r1, [r2, #0]
 8002b0e:	d1dd      	bne.n	8002acc <_free_r+0x28>
 8002b10:	681c      	ldr	r4, [r3, #0]
 8002b12:	685b      	ldr	r3, [r3, #4]
 8002b14:	6053      	str	r3, [r2, #4]
 8002b16:	4421      	add	r1, r4
 8002b18:	6011      	str	r1, [r2, #0]
 8002b1a:	e7d7      	b.n	8002acc <_free_r+0x28>
 8002b1c:	d902      	bls.n	8002b24 <_free_r+0x80>
 8002b1e:	230c      	movs	r3, #12
 8002b20:	6003      	str	r3, [r0, #0]
 8002b22:	e7d3      	b.n	8002acc <_free_r+0x28>
 8002b24:	6825      	ldr	r5, [r4, #0]
 8002b26:	1961      	adds	r1, r4, r5
 8002b28:	428b      	cmp	r3, r1
 8002b2a:	bf04      	itt	eq
 8002b2c:	6819      	ldreq	r1, [r3, #0]
 8002b2e:	685b      	ldreq	r3, [r3, #4]
 8002b30:	6063      	str	r3, [r4, #4]
 8002b32:	bf04      	itt	eq
 8002b34:	1949      	addeq	r1, r1, r5
 8002b36:	6021      	streq	r1, [r4, #0]
 8002b38:	6054      	str	r4, [r2, #4]
 8002b3a:	e7c7      	b.n	8002acc <_free_r+0x28>
 8002b3c:	b003      	add	sp, #12
 8002b3e:	bd30      	pop	{r4, r5, pc}
 8002b40:	20000200 	.word	0x20000200

08002b44 <_malloc_r>:
 8002b44:	b5f8      	push	{r3, r4, r5, r6, r7, lr}
 8002b46:	1ccd      	adds	r5, r1, #3
 8002b48:	f025 0503 	bic.w	r5, r5, #3
 8002b4c:	3508      	adds	r5, #8
 8002b4e:	2d0c      	cmp	r5, #12
 8002b50:	bf38      	it	cc
 8002b52:	250c      	movcc	r5, #12
 8002b54:	2d00      	cmp	r5, #0
 8002b56:	4606      	mov	r6, r0
 8002b58:	db01      	blt.n	8002b5e <_malloc_r+0x1a>
 8002b5a:	42a9      	cmp	r1, r5
 8002b5c:	d903      	bls.n	8002b66 <_malloc_r+0x22>
 8002b5e:	230c      	movs	r3, #12
 8002b60:	6033      	str	r3, [r6, #0]
 8002b62:	2000      	movs	r0, #0
 8002b64:	bdf8      	pop	{r3, r4, r5, r6, r7, pc}
 8002b66:	f001 feab 	bl	80048c0 <__malloc_lock>
 8002b6a:	4921      	ldr	r1, [pc, #132]	; (8002bf0 <_malloc_r+0xac>)
 8002b6c:	680a      	ldr	r2, [r1, #0]
 8002b6e:	4614      	mov	r4, r2
 8002b70:	b99c      	cbnz	r4, 8002b9a <_malloc_r+0x56>
 8002b72:	4f20      	ldr	r7, [pc, #128]	; (8002bf4 <_malloc_r+0xb0>)
 8002b74:	683b      	ldr	r3, [r7, #0]
 8002b76:	b923      	cbnz	r3, 8002b82 <_malloc_r+0x3e>
 8002b78:	4621      	mov	r1, r4
 8002b7a:	4630      	mov	r0, r6
 8002b7c:	f000 fd34 	bl	80035e8 <_sbrk_r>
 8002b80:	6038      	str	r0, [r7, #0]
 8002b82:	4629      	mov	r1, r5
 8002b84:	4630      	mov	r0, r6
 8002b86:	f000 fd2f 	bl	80035e8 <_sbrk_r>
 8002b8a:	1c43      	adds	r3, r0, #1
 8002b8c:	d123      	bne.n	8002bd6 <_malloc_r+0x92>
 8002b8e:	230c      	movs	r3, #12
 8002b90:	6033      	str	r3, [r6, #0]
 8002b92:	4630      	mov	r0, r6
 8002b94:	f001 fe9a 	bl	80048cc <__malloc_unlock>
 8002b98:	e7e3      	b.n	8002b62 <_malloc_r+0x1e>
 8002b9a:	6823      	ldr	r3, [r4, #0]
 8002b9c:	1b5b      	subs	r3, r3, r5
 8002b9e:	d417      	bmi.n	8002bd0 <_malloc_r+0x8c>
 8002ba0:	2b0b      	cmp	r3, #11
 8002ba2:	d903      	bls.n	8002bac <_malloc_r+0x68>
 8002ba4:	6023      	str	r3, [r4, #0]
 8002ba6:	441c      	add	r4, r3
 8002ba8:	6025      	str	r5, [r4, #0]
 8002baa:	e004      	b.n	8002bb6 <_malloc_r+0x72>
 8002bac:	6863      	ldr	r3, [r4, #4]
 8002bae:	42a2      	cmp	r2, r4
 8002bb0:	bf0c      	ite	eq
 8002bb2:	600b      	streq	r3, [r1, #0]
 8002bb4:	6053      	strne	r3, [r2, #4]
 8002bb6:	4630      	mov	r0, r6
 8002bb8:	f001 fe88 	bl	80048cc <__malloc_unlock>
 8002bbc:	f104 000b 	add.w	r0, r4, #11
 8002bc0:	1d23      	adds	r3, r4, #4
 8002bc2:	f020 0007 	bic.w	r0, r0, #7
 8002bc6:	1ac2      	subs	r2, r0, r3
 8002bc8:	d0cc      	beq.n	8002b64 <_malloc_r+0x20>
 8002bca:	1a1b      	subs	r3, r3, r0
 8002bcc:	50a3      	str	r3, [r4, r2]
 8002bce:	e7c9      	b.n	8002b64 <_malloc_r+0x20>
 8002bd0:	4622      	mov	r2, r4
 8002bd2:	6864      	ldr	r4, [r4, #4]
 8002bd4:	e7cc      	b.n	8002b70 <_malloc_r+0x2c>
 8002bd6:	1cc4      	adds	r4, r0, #3
 8002bd8:	f024 0403 	bic.w	r4, r4, #3
 8002bdc:	42a0      	cmp	r0, r4
 8002bde:	d0e3      	beq.n	8002ba8 <_malloc_r+0x64>
 8002be0:	1a21      	subs	r1, r4, r0
 8002be2:	4630      	mov	r0, r6
 8002be4:	f000 fd00 	bl	80035e8 <_sbrk_r>
 8002be8:	3001      	adds	r0, #1
 8002bea:	d1dd      	bne.n	8002ba8 <_malloc_r+0x64>
 8002bec:	e7cf      	b.n	8002b8e <_malloc_r+0x4a>
 8002bee:	bf00      	nop
 8002bf0:	20000200 	.word	0x20000200
 8002bf4:	20000204 	.word	0x20000204

08002bf8 <__cvt>:
 8002bf8:	e92d 47ff 	stmdb	sp!, {r0, r1, r2, r3, r4, r5, r6, r7, r8, r9, sl, lr}
 8002bfc:	ec55 4b10 	vmov	r4, r5, d0
 8002c00:	2d00      	cmp	r5, #0
 8002c02:	460e      	mov	r6, r1
 8002c04:	4619      	mov	r1, r3
 8002c06:	462b      	mov	r3, r5
 8002c08:	bfbb      	ittet	lt
 8002c0a:	f105 4300 	addlt.w	r3, r5, #2147483648	; 0x80000000
 8002c0e:	461d      	movlt	r5, r3
 8002c10:	2300      	movge	r3, #0
 8002c12:	232d      	movlt	r3, #45	; 0x2d
 8002c14:	700b      	strb	r3, [r1, #0]
 8002c16:	9b0d      	ldr	r3, [sp, #52]	; 0x34
 8002c18:	f8dd a030 	ldr.w	sl, [sp, #48]	; 0x30
 8002c1c:	4691      	mov	r9, r2
 8002c1e:	f023 0820 	bic.w	r8, r3, #32
 8002c22:	bfbc      	itt	lt
 8002c24:	4622      	movlt	r2, r4
 8002c26:	4614      	movlt	r4, r2
 8002c28:	f1b8 0f46 	cmp.w	r8, #70	; 0x46
 8002c2c:	d005      	beq.n	8002c3a <__cvt+0x42>
 8002c2e:	f1b8 0f45 	cmp.w	r8, #69	; 0x45
 8002c32:	d100      	bne.n	8002c36 <__cvt+0x3e>
 8002c34:	3601      	adds	r6, #1
 8002c36:	2102      	movs	r1, #2
 8002c38:	e000      	b.n	8002c3c <__cvt+0x44>
 8002c3a:	2103      	movs	r1, #3
 8002c3c:	ab03      	add	r3, sp, #12
 8002c3e:	9301      	str	r3, [sp, #4]
 8002c40:	ab02      	add	r3, sp, #8
 8002c42:	9300      	str	r3, [sp, #0]
 8002c44:	ec45 4b10 	vmov	d0, r4, r5
 8002c48:	4653      	mov	r3, sl
 8002c4a:	4632      	mov	r2, r6
 8002c4c:	f000 fe28 	bl	80038a0 <_dtoa_r>
 8002c50:	f1b8 0f47 	cmp.w	r8, #71	; 0x47
 8002c54:	4607      	mov	r7, r0
 8002c56:	d102      	bne.n	8002c5e <__cvt+0x66>
 8002c58:	f019 0f01 	tst.w	r9, #1
 8002c5c:	d022      	beq.n	8002ca4 <__cvt+0xac>
 8002c5e:	f1b8 0f46 	cmp.w	r8, #70	; 0x46
 8002c62:	eb07 0906 	add.w	r9, r7, r6
 8002c66:	d110      	bne.n	8002c8a <__cvt+0x92>
 8002c68:	783b      	ldrb	r3, [r7, #0]
 8002c6a:	2b30      	cmp	r3, #48	; 0x30
 8002c6c:	d10a      	bne.n	8002c84 <__cvt+0x8c>
 8002c6e:	2200      	movs	r2, #0
 8002c70:	2300      	movs	r3, #0
 8002c72:	4620      	mov	r0, r4
 8002c74:	4629      	mov	r1, r5
 8002c76:	f7fd ff47 	bl	8000b08 <__aeabi_dcmpeq>
 8002c7a:	b918      	cbnz	r0, 8002c84 <__cvt+0x8c>
 8002c7c:	f1c6 0601 	rsb	r6, r6, #1
 8002c80:	f8ca 6000 	str.w	r6, [sl]
 8002c84:	f8da 3000 	ldr.w	r3, [sl]
 8002c88:	4499      	add	r9, r3
 8002c8a:	2200      	movs	r2, #0
 8002c8c:	2300      	movs	r3, #0
 8002c8e:	4620      	mov	r0, r4
 8002c90:	4629      	mov	r1, r5
 8002c92:	f7fd ff39 	bl	8000b08 <__aeabi_dcmpeq>
 8002c96:	b108      	cbz	r0, 8002c9c <__cvt+0xa4>
 8002c98:	f8cd 900c 	str.w	r9, [sp, #12]
 8002c9c:	2230      	movs	r2, #48	; 0x30
 8002c9e:	9b03      	ldr	r3, [sp, #12]
 8002ca0:	454b      	cmp	r3, r9
 8002ca2:	d307      	bcc.n	8002cb4 <__cvt+0xbc>
 8002ca4:	9b03      	ldr	r3, [sp, #12]
 8002ca6:	9a0e      	ldr	r2, [sp, #56]	; 0x38
 8002ca8:	1bdb      	subs	r3, r3, r7
 8002caa:	4638      	mov	r0, r7
 8002cac:	6013      	str	r3, [r2, #0]
 8002cae:	b004      	add	sp, #16
 8002cb0:	e8bd 87f0 	ldmia.w	sp!, {r4, r5, r6, r7, r8, r9, sl, pc}
 8002cb4:	1c59      	adds	r1, r3, #1
 8002cb6:	9103      	str	r1, [sp, #12]
 8002cb8:	701a      	strb	r2, [r3, #0]
 8002cba:	e7f0      	b.n	8002c9e <__cvt+0xa6>

08002cbc <__exponent>:
 8002cbc:	b5f7      	push	{r0, r1, r2, r4, r5, r6, r7, lr}
 8002cbe:	4603      	mov	r3, r0
 8002cc0:	2900      	cmp	r1, #0
 8002cc2:	bfb8      	it	lt
 8002cc4:	4249      	neglt	r1, r1
 8002cc6:	f803 2b02 	strb.w	r2, [r3], #2
 8002cca:	bfb4      	ite	lt
 8002ccc:	222d      	movlt	r2, #45	; 0x2d
 8002cce:	222b      	movge	r2, #43	; 0x2b
 8002cd0:	2909      	cmp	r1, #9
 8002cd2:	7042      	strb	r2, [r0, #1]
 8002cd4:	dd2a      	ble.n	8002d2c <__exponent+0x70>
 8002cd6:	f10d 0407 	add.w	r4, sp, #7
 8002cda:	46a4      	mov	ip, r4
 8002cdc:	270a      	movs	r7, #10
 8002cde:	46a6      	mov	lr, r4
 8002ce0:	460a      	mov	r2, r1
 8002ce2:	fb91 f6f7 	sdiv	r6, r1, r7
 8002ce6:	fb07 1516 	mls	r5, r7, r6, r1
 8002cea:	3530      	adds	r5, #48	; 0x30
 8002cec:	2a63      	cmp	r2, #99	; 0x63
 8002cee:	f104 34ff 	add.w	r4, r4, #4294967295	; 0xffffffff
 8002cf2:	f80e 5c01 	strb.w	r5, [lr, #-1]
 8002cf6:	4631      	mov	r1, r6
 8002cf8:	dcf1      	bgt.n	8002cde <__exponent+0x22>
 8002cfa:	3130      	adds	r1, #48	; 0x30
 8002cfc:	f1ae 0502 	sub.w	r5, lr, #2
 8002d00:	f804 1c01 	strb.w	r1, [r4, #-1]
 8002d04:	1c44      	adds	r4, r0, #1
 8002d06:	4629      	mov	r1, r5
 8002d08:	4561      	cmp	r1, ip
 8002d0a:	d30a      	bcc.n	8002d22 <__exponent+0x66>
 8002d0c:	f10d 0209 	add.w	r2, sp, #9
 8002d10:	eba2 020e 	sub.w	r2, r2, lr
 8002d14:	4565      	cmp	r5, ip
 8002d16:	bf88      	it	hi
 8002d18:	2200      	movhi	r2, #0
 8002d1a:	4413      	add	r3, r2
 8002d1c:	1a18      	subs	r0, r3, r0
 8002d1e:	b003      	add	sp, #12
 8002d20:	bdf0      	pop	{r4, r5, r6, r7, pc}
 8002d22:	f811 2b01 	ldrb.w	r2, [r1], #1
 8002d26:	f804 2f01 	strb.w	r2, [r4, #1]!
 8002d2a:	e7ed      	b.n	8002d08 <__exponent+0x4c>
 8002d2c:	2330      	movs	r3, #48	; 0x30
 8002d2e:	3130      	adds	r1, #48	; 0x30
 8002d30:	7083      	strb	r3, [r0, #2]
 8002d32:	70c1      	strb	r1, [r0, #3]
 8002d34:	1d03      	adds	r3, r0, #4
 8002d36:	e7f1      	b.n	8002d1c <__exponent+0x60>

08002d38 <_printf_float>:
 8002d38:	e92d 4ff0 	stmdb	sp!, {r4, r5, r6, r7, r8, r9, sl, fp, lr}
 8002d3c:	ed2d 8b02 	vpush	{d8}
 8002d40:	b08d      	sub	sp, #52	; 0x34
 8002d42:	460c      	mov	r4, r1
 8002d44:	f8dd 8060 	ldr.w	r8, [sp, #96]	; 0x60
 8002d48:	4616      	mov	r6, r2
 8002d4a:	461f      	mov	r7, r3
 8002d4c:	4605      	mov	r5, r0
 8002d4e:	f001 fd4b 	bl	80047e8 <_localeconv_r>
 8002d52:	f8d0 a000 	ldr.w	sl, [r0]
 8002d56:	4650      	mov	r0, sl
 8002d58:	f7fd fa5a 	bl	8000210 <strlen>
 8002d5c:	2300      	movs	r3, #0
 8002d5e:	930a      	str	r3, [sp, #40]	; 0x28
 8002d60:	6823      	ldr	r3, [r4, #0]
 8002d62:	9305      	str	r3, [sp, #20]
 8002d64:	f8d8 3000 	ldr.w	r3, [r8]
 8002d68:	f894 b018 	ldrb.w	fp, [r4, #24]
 8002d6c:	3307      	adds	r3, #7
 8002d6e:	f023 0307 	bic.w	r3, r3, #7
 8002d72:	f103 0208 	add.w	r2, r3, #8
 8002d76:	f8c8 2000 	str.w	r2, [r8]
 8002d7a:	e9d3 2300 	ldrd	r2, r3, [r3]
 8002d7e:	e9c4 2312 	strd	r2, r3, [r4, #72]	; 0x48
 8002d82:	e9d4 8912 	ldrd	r8, r9, [r4, #72]	; 0x48
 8002d86:	f029 4300 	bic.w	r3, r9, #2147483648	; 0x80000000
 8002d8a:	9307      	str	r3, [sp, #28]
 8002d8c:	f8cd 8018 	str.w	r8, [sp, #24]
 8002d90:	ee08 0a10 	vmov	s16, r0
 8002d94:	4b9f      	ldr	r3, [pc, #636]	; (8003014 <_printf_float+0x2dc>)
 8002d96:	e9dd 0106 	ldrd	r0, r1, [sp, #24]
 8002d9a:	f04f 32ff 	mov.w	r2, #4294967295	; 0xffffffff
 8002d9e:	f7fd fee5 	bl	8000b6c <__aeabi_dcmpun>
 8002da2:	bb88      	cbnz	r0, 8002e08 <_printf_float+0xd0>
 8002da4:	e9dd 0106 	ldrd	r0, r1, [sp, #24]
 8002da8:	4b9a      	ldr	r3, [pc, #616]	; (8003014 <_printf_float+0x2dc>)
 8002daa:	f04f 32ff 	mov.w	r2, #4294967295	; 0xffffffff
 8002dae:	f7fd febf 	bl	8000b30 <__aeabi_dcmple>
 8002db2:	bb48      	cbnz	r0, 8002e08 <_printf_float+0xd0>
 8002db4:	2200      	movs	r2, #0
 8002db6:	2300      	movs	r3, #0
 8002db8:	4640      	mov	r0, r8
 8002dba:	4649      	mov	r1, r9
 8002dbc:	f7fd feae 	bl	8000b1c <__aeabi_dcmplt>
 8002dc0:	b110      	cbz	r0, 8002dc8 <_printf_float+0x90>
 8002dc2:	232d      	movs	r3, #45	; 0x2d
 8002dc4:	f884 3043 	strb.w	r3, [r4, #67]	; 0x43
 8002dc8:	4b93      	ldr	r3, [pc, #588]	; (8003018 <_printf_float+0x2e0>)
 8002dca:	4894      	ldr	r0, [pc, #592]	; (800301c <_printf_float+0x2e4>)
 8002dcc:	f1bb 0f47 	cmp.w	fp, #71	; 0x47
 8002dd0:	bf94      	ite	ls
 8002dd2:	4698      	movls	r8, r3
 8002dd4:	4680      	movhi	r8, r0
 8002dd6:	2303      	movs	r3, #3
 8002dd8:	6123      	str	r3, [r4, #16]
 8002dda:	9b05      	ldr	r3, [sp, #20]
 8002ddc:	f023 0204 	bic.w	r2, r3, #4
 8002de0:	6022      	str	r2, [r4, #0]
 8002de2:	f04f 0900 	mov.w	r9, #0
 8002de6:	9700      	str	r7, [sp, #0]
 8002de8:	4633      	mov	r3, r6
 8002dea:	aa0b      	add	r2, sp, #44	; 0x2c
 8002dec:	4621      	mov	r1, r4
 8002dee:	4628      	mov	r0, r5
 8002df0:	f000 f9d8 	bl	80031a4 <_printf_common>
 8002df4:	3001      	adds	r0, #1
 8002df6:	f040 8090 	bne.w	8002f1a <_printf_float+0x1e2>
 8002dfa:	f04f 30ff 	mov.w	r0, #4294967295	; 0xffffffff
 8002dfe:	b00d      	add	sp, #52	; 0x34
 8002e00:	ecbd 8b02 	vpop	{d8}
 8002e04:	e8bd 8ff0 	ldmia.w	sp!, {r4, r5, r6, r7, r8, r9, sl, fp, pc}
 8002e08:	4642      	mov	r2, r8
 8002e0a:	464b      	mov	r3, r9
 8002e0c:	4640      	mov	r0, r8
 8002e0e:	4649      	mov	r1, r9
 8002e10:	f7fd feac 	bl	8000b6c <__aeabi_dcmpun>
 8002e14:	b140      	cbz	r0, 8002e28 <_printf_float+0xf0>
 8002e16:	464b      	mov	r3, r9
 8002e18:	2b00      	cmp	r3, #0
 8002e1a:	bfbc      	itt	lt
 8002e1c:	232d      	movlt	r3, #45	; 0x2d
 8002e1e:	f884 3043 	strblt.w	r3, [r4, #67]	; 0x43
 8002e22:	487f      	ldr	r0, [pc, #508]	; (8003020 <_printf_float+0x2e8>)
 8002e24:	4b7f      	ldr	r3, [pc, #508]	; (8003024 <_printf_float+0x2ec>)
 8002e26:	e7d1      	b.n	8002dcc <_printf_float+0x94>
 8002e28:	6863      	ldr	r3, [r4, #4]
 8002e2a:	f00b 02df 	and.w	r2, fp, #223	; 0xdf
 8002e2e:	9206      	str	r2, [sp, #24]
 8002e30:	1c5a      	adds	r2, r3, #1
 8002e32:	d13f      	bne.n	8002eb4 <_printf_float+0x17c>
 8002e34:	2306      	movs	r3, #6
 8002e36:	6063      	str	r3, [r4, #4]
 8002e38:	9b05      	ldr	r3, [sp, #20]
 8002e3a:	6861      	ldr	r1, [r4, #4]
 8002e3c:	f443 6280 	orr.w	r2, r3, #1024	; 0x400
 8002e40:	2300      	movs	r3, #0
 8002e42:	9303      	str	r3, [sp, #12]
 8002e44:	ab0a      	add	r3, sp, #40	; 0x28
 8002e46:	e9cd b301 	strd	fp, r3, [sp, #4]
 8002e4a:	ab09      	add	r3, sp, #36	; 0x24
 8002e4c:	ec49 8b10 	vmov	d0, r8, r9
 8002e50:	9300      	str	r3, [sp, #0]
 8002e52:	6022      	str	r2, [r4, #0]
 8002e54:	f10d 0323 	add.w	r3, sp, #35	; 0x23
 8002e58:	4628      	mov	r0, r5
 8002e5a:	f7ff fecd 	bl	8002bf8 <__cvt>
 8002e5e:	9b06      	ldr	r3, [sp, #24]
 8002e60:	9909      	ldr	r1, [sp, #36]	; 0x24
 8002e62:	2b47      	cmp	r3, #71	; 0x47
 8002e64:	4680      	mov	r8, r0
 8002e66:	d108      	bne.n	8002e7a <_printf_float+0x142>
 8002e68:	1cc8      	adds	r0, r1, #3
 8002e6a:	db02      	blt.n	8002e72 <_printf_float+0x13a>
 8002e6c:	6863      	ldr	r3, [r4, #4]
 8002e6e:	4299      	cmp	r1, r3
 8002e70:	dd41      	ble.n	8002ef6 <_printf_float+0x1be>
 8002e72:	f1ab 0b02 	sub.w	fp, fp, #2
 8002e76:	fa5f fb8b 	uxtb.w	fp, fp
 8002e7a:	f1bb 0f65 	cmp.w	fp, #101	; 0x65
 8002e7e:	d820      	bhi.n	8002ec2 <_printf_float+0x18a>
 8002e80:	3901      	subs	r1, #1
 8002e82:	465a      	mov	r2, fp
 8002e84:	f104 0050 	add.w	r0, r4, #80	; 0x50
 8002e88:	9109      	str	r1, [sp, #36]	; 0x24
 8002e8a:	f7ff ff17 	bl	8002cbc <__exponent>
 8002e8e:	9a0a      	ldr	r2, [sp, #40]	; 0x28
 8002e90:	1813      	adds	r3, r2, r0
 8002e92:	2a01      	cmp	r2, #1
 8002e94:	4681      	mov	r9, r0
 8002e96:	6123      	str	r3, [r4, #16]
 8002e98:	dc02      	bgt.n	8002ea0 <_printf_float+0x168>
 8002e9a:	6822      	ldr	r2, [r4, #0]
 8002e9c:	07d2      	lsls	r2, r2, #31
 8002e9e:	d501      	bpl.n	8002ea4 <_printf_float+0x16c>
 8002ea0:	3301      	adds	r3, #1
 8002ea2:	6123      	str	r3, [r4, #16]
 8002ea4:	f89d 3023 	ldrb.w	r3, [sp, #35]	; 0x23
 8002ea8:	2b00      	cmp	r3, #0
 8002eaa:	d09c      	beq.n	8002de6 <_printf_float+0xae>
 8002eac:	232d      	movs	r3, #45	; 0x2d
 8002eae:	f884 3043 	strb.w	r3, [r4, #67]	; 0x43
 8002eb2:	e798      	b.n	8002de6 <_printf_float+0xae>
 8002eb4:	9a06      	ldr	r2, [sp, #24]
 8002eb6:	2a47      	cmp	r2, #71	; 0x47
 8002eb8:	d1be      	bne.n	8002e38 <_printf_float+0x100>
 8002eba:	2b00      	cmp	r3, #0
 8002ebc:	d1bc      	bne.n	8002e38 <_printf_float+0x100>
 8002ebe:	2301      	movs	r3, #1
 8002ec0:	e7b9      	b.n	8002e36 <_printf_float+0xfe>
 8002ec2:	f1bb 0f66 	cmp.w	fp, #102	; 0x66
 8002ec6:	d118      	bne.n	8002efa <_printf_float+0x1c2>
 8002ec8:	2900      	cmp	r1, #0
 8002eca:	6863      	ldr	r3, [r4, #4]
 8002ecc:	dd0b      	ble.n	8002ee6 <_printf_float+0x1ae>
 8002ece:	6121      	str	r1, [r4, #16]
 8002ed0:	b913      	cbnz	r3, 8002ed8 <_printf_float+0x1a0>
 8002ed2:	6822      	ldr	r2, [r4, #0]
 8002ed4:	07d0      	lsls	r0, r2, #31
 8002ed6:	d502      	bpl.n	8002ede <_printf_float+0x1a6>
 8002ed8:	3301      	adds	r3, #1
 8002eda:	440b      	add	r3, r1
 8002edc:	6123      	str	r3, [r4, #16]
 8002ede:	65a1      	str	r1, [r4, #88]	; 0x58
 8002ee0:	f04f 0900 	mov.w	r9, #0
 8002ee4:	e7de      	b.n	8002ea4 <_printf_float+0x16c>
 8002ee6:	b913      	cbnz	r3, 8002eee <_printf_float+0x1b6>
 8002ee8:	6822      	ldr	r2, [r4, #0]
 8002eea:	07d2      	lsls	r2, r2, #31
 8002eec:	d501      	bpl.n	8002ef2 <_printf_float+0x1ba>
 8002eee:	3302      	adds	r3, #2
 8002ef0:	e7f4      	b.n	8002edc <_printf_float+0x1a4>
 8002ef2:	2301      	movs	r3, #1
 8002ef4:	e7f2      	b.n	8002edc <_printf_float+0x1a4>
 8002ef6:	f04f 0b67 	mov.w	fp, #103	; 0x67
 8002efa:	9b0a      	ldr	r3, [sp, #40]	; 0x28
 8002efc:	4299      	cmp	r1, r3
 8002efe:	db05      	blt.n	8002f0c <_printf_float+0x1d4>
 8002f00:	6823      	ldr	r3, [r4, #0]
 8002f02:	6121      	str	r1, [r4, #16]
 8002f04:	07d8      	lsls	r0, r3, #31
 8002f06:	d5ea      	bpl.n	8002ede <_printf_float+0x1a6>
 8002f08:	1c4b      	adds	r3, r1, #1
 8002f0a:	e7e7      	b.n	8002edc <_printf_float+0x1a4>
 8002f0c:	2900      	cmp	r1, #0
 8002f0e:	bfd4      	ite	le
 8002f10:	f1c1 0202 	rsble	r2, r1, #2
 8002f14:	2201      	movgt	r2, #1
 8002f16:	4413      	add	r3, r2
 8002f18:	e7e0      	b.n	8002edc <_printf_float+0x1a4>
 8002f1a:	6823      	ldr	r3, [r4, #0]
 8002f1c:	055a      	lsls	r2, r3, #21
 8002f1e:	d407      	bmi.n	8002f30 <_printf_float+0x1f8>
 8002f20:	6923      	ldr	r3, [r4, #16]
 8002f22:	4642      	mov	r2, r8
 8002f24:	4631      	mov	r1, r6
 8002f26:	4628      	mov	r0, r5
 8002f28:	47b8      	blx	r7
 8002f2a:	3001      	adds	r0, #1
 8002f2c:	d12c      	bne.n	8002f88 <_printf_float+0x250>
 8002f2e:	e764      	b.n	8002dfa <_printf_float+0xc2>
 8002f30:	f1bb 0f65 	cmp.w	fp, #101	; 0x65
 8002f34:	f240 80e0 	bls.w	80030f8 <_printf_float+0x3c0>
 8002f38:	e9d4 0112 	ldrd	r0, r1, [r4, #72]	; 0x48
 8002f3c:	2200      	movs	r2, #0
 8002f3e:	2300      	movs	r3, #0
 8002f40:	f7fd fde2 	bl	8000b08 <__aeabi_dcmpeq>
 8002f44:	2800      	cmp	r0, #0
 8002f46:	d034      	beq.n	8002fb2 <_printf_float+0x27a>
 8002f48:	4a37      	ldr	r2, [pc, #220]	; (8003028 <_printf_float+0x2f0>)
 8002f4a:	2301      	movs	r3, #1
 8002f4c:	4631      	mov	r1, r6
 8002f4e:	4628      	mov	r0, r5
 8002f50:	47b8      	blx	r7
 8002f52:	3001      	adds	r0, #1
 8002f54:	f43f af51 	beq.w	8002dfa <_printf_float+0xc2>
 8002f58:	e9dd 2309 	ldrd	r2, r3, [sp, #36]	; 0x24
 8002f5c:	429a      	cmp	r2, r3
 8002f5e:	db02      	blt.n	8002f66 <_printf_float+0x22e>
 8002f60:	6823      	ldr	r3, [r4, #0]
 8002f62:	07d8      	lsls	r0, r3, #31
 8002f64:	d510      	bpl.n	8002f88 <_printf_float+0x250>
 8002f66:	ee18 3a10 	vmov	r3, s16
 8002f6a:	4652      	mov	r2, sl
 8002f6c:	4631      	mov	r1, r6
 8002f6e:	4628      	mov	r0, r5
 8002f70:	47b8      	blx	r7
 8002f72:	3001      	adds	r0, #1
 8002f74:	f43f af41 	beq.w	8002dfa <_printf_float+0xc2>
 8002f78:	f04f 0800 	mov.w	r8, #0
 8002f7c:	f104 091a 	add.w	r9, r4, #26
 8002f80:	9b0a      	ldr	r3, [sp, #40]	; 0x28
 8002f82:	3b01      	subs	r3, #1
 8002f84:	4543      	cmp	r3, r8
 8002f86:	dc09      	bgt.n	8002f9c <_printf_float+0x264>
 8002f88:	6823      	ldr	r3, [r4, #0]
 8002f8a:	079b      	lsls	r3, r3, #30
 8002f8c:	f100 8105 	bmi.w	800319a <_printf_float+0x462>
 8002f90:	68e0      	ldr	r0, [r4, #12]
 8002f92:	9b0b      	ldr	r3, [sp, #44]	; 0x2c
 8002f94:	4298      	cmp	r0, r3
 8002f96:	bfb8      	it	lt
 8002f98:	4618      	movlt	r0, r3
 8002f9a:	e730      	b.n	8002dfe <_printf_float+0xc6>
 8002f9c:	2301      	movs	r3, #1
 8002f9e:	464a      	mov	r2, r9
 8002fa0:	4631      	mov	r1, r6
 8002fa2:	4628      	mov	r0, r5
 8002fa4:	47b8      	blx	r7
 8002fa6:	3001      	adds	r0, #1
 8002fa8:	f43f af27 	beq.w	8002dfa <_printf_float+0xc2>
 8002fac:	f108 0801 	add.w	r8, r8, #1
 8002fb0:	e7e6      	b.n	8002f80 <_printf_float+0x248>
 8002fb2:	9b09      	ldr	r3, [sp, #36]	; 0x24
 8002fb4:	2b00      	cmp	r3, #0
 8002fb6:	dc39      	bgt.n	800302c <_printf_float+0x2f4>
 8002fb8:	4a1b      	ldr	r2, [pc, #108]	; (8003028 <_printf_float+0x2f0>)
 8002fba:	2301      	movs	r3, #1
 8002fbc:	4631      	mov	r1, r6
 8002fbe:	4628      	mov	r0, r5
 8002fc0:	47b8      	blx	r7
 8002fc2:	3001      	adds	r0, #1
 8002fc4:	f43f af19 	beq.w	8002dfa <_printf_float+0xc2>
 8002fc8:	e9dd 2309 	ldrd	r2, r3, [sp, #36]	; 0x24
 8002fcc:	4313      	orrs	r3, r2
 8002fce:	d102      	bne.n	8002fd6 <_printf_float+0x29e>
 8002fd0:	6823      	ldr	r3, [r4, #0]
 8002fd2:	07d9      	lsls	r1, r3, #31
 8002fd4:	d5d8      	bpl.n	8002f88 <_printf_float+0x250>
 8002fd6:	ee18 3a10 	vmov	r3, s16
 8002fda:	4652      	mov	r2, sl
 8002fdc:	4631      	mov	r1, r6
 8002fde:	4628      	mov	r0, r5
 8002fe0:	47b8      	blx	r7
 8002fe2:	3001      	adds	r0, #1
 8002fe4:	f43f af09 	beq.w	8002dfa <_printf_float+0xc2>
 8002fe8:	f04f 0900 	mov.w	r9, #0
 8002fec:	f104 0a1a 	add.w	sl, r4, #26
 8002ff0:	9b09      	ldr	r3, [sp, #36]	; 0x24
 8002ff2:	425b      	negs	r3, r3
 8002ff4:	454b      	cmp	r3, r9
 8002ff6:	dc01      	bgt.n	8002ffc <_printf_float+0x2c4>
 8002ff8:	9b0a      	ldr	r3, [sp, #40]	; 0x28
 8002ffa:	e792      	b.n	8002f22 <_printf_float+0x1ea>
 8002ffc:	2301      	movs	r3, #1
 8002ffe:	4652      	mov	r2, sl
 8003000:	4631      	mov	r1, r6
 8003002:	4628      	mov	r0, r5
 8003004:	47b8      	blx	r7
 8003006:	3001      	adds	r0, #1
 8003008:	f43f aef7 	beq.w	8002dfa <_printf_float+0xc2>
 800300c:	f109 0901 	add.w	r9, r9, #1
 8003010:	e7ee      	b.n	8002ff0 <_printf_float+0x2b8>
 8003012:	bf00      	nop
 8003014:	7fefffff 	.word	0x7fefffff
 8003018:	08005f40 	.word	0x08005f40
 800301c:	08005f44 	.word	0x08005f44
 8003020:	08005f4c 	.word	0x08005f4c
 8003024:	08005f48 	.word	0x08005f48
 8003028:	08005f50 	.word	0x08005f50
 800302c:	9a0a      	ldr	r2, [sp, #40]	; 0x28
 800302e:	6da3      	ldr	r3, [r4, #88]	; 0x58
 8003030:	429a      	cmp	r2, r3
 8003032:	bfa8      	it	ge
 8003034:	461a      	movge	r2, r3
 8003036:	2a00      	cmp	r2, #0
 8003038:	4691      	mov	r9, r2
 800303a:	dc37      	bgt.n	80030ac <_printf_float+0x374>
 800303c:	f04f 0b00 	mov.w	fp, #0
 8003040:	ea29 79e9 	bic.w	r9, r9, r9, asr #31
 8003044:	f104 021a 	add.w	r2, r4, #26
 8003048:	6da3      	ldr	r3, [r4, #88]	; 0x58
 800304a:	9305      	str	r3, [sp, #20]
 800304c:	eba3 0309 	sub.w	r3, r3, r9
 8003050:	455b      	cmp	r3, fp
 8003052:	dc33      	bgt.n	80030bc <_printf_float+0x384>
 8003054:	e9dd 2309 	ldrd	r2, r3, [sp, #36]	; 0x24
 8003058:	429a      	cmp	r2, r3
 800305a:	db3b      	blt.n	80030d4 <_printf_float+0x39c>
 800305c:	6823      	ldr	r3, [r4, #0]
 800305e:	07da      	lsls	r2, r3, #31
 8003060:	d438      	bmi.n	80030d4 <_printf_float+0x39c>
 8003062:	9a0a      	ldr	r2, [sp, #40]	; 0x28
 8003064:	9b05      	ldr	r3, [sp, #20]
 8003066:	9909      	ldr	r1, [sp, #36]	; 0x24
 8003068:	1ad3      	subs	r3, r2, r3
 800306a:	eba2 0901 	sub.w	r9, r2, r1
 800306e:	4599      	cmp	r9, r3
 8003070:	bfa8      	it	ge
 8003072:	4699      	movge	r9, r3
 8003074:	f1b9 0f00 	cmp.w	r9, #0
 8003078:	dc35      	bgt.n	80030e6 <_printf_float+0x3ae>
 800307a:	f04f 0800 	mov.w	r8, #0
 800307e:	ea29 79e9 	bic.w	r9, r9, r9, asr #31
 8003082:	f104 0a1a 	add.w	sl, r4, #26
 8003086:	e9dd 2309 	ldrd	r2, r3, [sp, #36]	; 0x24
 800308a:	1a9b      	subs	r3, r3, r2
 800308c:	eba3 0309 	sub.w	r3, r3, r9
 8003090:	4543      	cmp	r3, r8
 8003092:	f77f af79 	ble.w	8002f88 <_printf_float+0x250>
 8003096:	2301      	movs	r3, #1
 8003098:	4652      	mov	r2, sl
 800309a:	4631      	mov	r1, r6
 800309c:	4628      	mov	r0, r5
 800309e:	47b8      	blx	r7
 80030a0:	3001      	adds	r0, #1
 80030a2:	f43f aeaa 	beq.w	8002dfa <_printf_float+0xc2>
 80030a6:	f108 0801 	add.w	r8, r8, #1
 80030aa:	e7ec      	b.n	8003086 <_printf_float+0x34e>
 80030ac:	4613      	mov	r3, r2
 80030ae:	4631      	mov	r1, r6
 80030b0:	4642      	mov	r2, r8
 80030b2:	4628      	mov	r0, r5
 80030b4:	47b8      	blx	r7
 80030b6:	3001      	adds	r0, #1
 80030b8:	d1c0      	bne.n	800303c <_printf_float+0x304>
 80030ba:	e69e      	b.n	8002dfa <_printf_float+0xc2>
 80030bc:	2301      	movs	r3, #1
 80030be:	4631      	mov	r1, r6
 80030c0:	4628      	mov	r0, r5
 80030c2:	9205      	str	r2, [sp, #20]
 80030c4:	47b8      	blx	r7
 80030c6:	3001      	adds	r0, #1
 80030c8:	f43f ae97 	beq.w	8002dfa <_printf_float+0xc2>
 80030cc:	9a05      	ldr	r2, [sp, #20]
 80030ce:	f10b 0b01 	add.w	fp, fp, #1
 80030d2:	e7b9      	b.n	8003048 <_printf_float+0x310>
 80030d4:	ee18 3a10 	vmov	r3, s16
 80030d8:	4652      	mov	r2, sl
 80030da:	4631      	mov	r1, r6
 80030dc:	4628      	mov	r0, r5
 80030de:	47b8      	blx	r7
 80030e0:	3001      	adds	r0, #1
 80030e2:	d1be      	bne.n	8003062 <_printf_float+0x32a>
 80030e4:	e689      	b.n	8002dfa <_printf_float+0xc2>
 80030e6:	9a05      	ldr	r2, [sp, #20]
 80030e8:	464b      	mov	r3, r9
 80030ea:	4442      	add	r2, r8
 80030ec:	4631      	mov	r1, r6
 80030ee:	4628      	mov	r0, r5
 80030f0:	47b8      	blx	r7
 80030f2:	3001      	adds	r0, #1
 80030f4:	d1c1      	bne.n	800307a <_printf_float+0x342>
 80030f6:	e680      	b.n	8002dfa <_printf_float+0xc2>
 80030f8:	9a0a      	ldr	r2, [sp, #40]	; 0x28
 80030fa:	2a01      	cmp	r2, #1
 80030fc:	dc01      	bgt.n	8003102 <_printf_float+0x3ca>
 80030fe:	07db      	lsls	r3, r3, #31
 8003100:	d538      	bpl.n	8003174 <_printf_float+0x43c>
 8003102:	2301      	movs	r3, #1
 8003104:	4642      	mov	r2, r8
 8003106:	4631      	mov	r1, r6
 8003108:	4628      	mov	r0, r5
 800310a:	47b8      	blx	r7
 800310c:	3001      	adds	r0, #1
 800310e:	f43f ae74 	beq.w	8002dfa <_printf_float+0xc2>
 8003112:	ee18 3a10 	vmov	r3, s16
 8003116:	4652      	mov	r2, sl
 8003118:	4631      	mov	r1, r6
 800311a:	4628      	mov	r0, r5
 800311c:	47b8      	blx	r7
 800311e:	3001      	adds	r0, #1
 8003120:	f43f ae6b 	beq.w	8002dfa <_printf_float+0xc2>
 8003124:	e9d4 0112 	ldrd	r0, r1, [r4, #72]	; 0x48
 8003128:	2200      	movs	r2, #0
 800312a:	2300      	movs	r3, #0
 800312c:	f7fd fcec 	bl	8000b08 <__aeabi_dcmpeq>
 8003130:	b9d8      	cbnz	r0, 800316a <_printf_float+0x432>
 8003132:	9b0a      	ldr	r3, [sp, #40]	; 0x28
 8003134:	f108 0201 	add.w	r2, r8, #1
 8003138:	3b01      	subs	r3, #1
 800313a:	4631      	mov	r1, r6
 800313c:	4628      	mov	r0, r5
 800313e:	47b8      	blx	r7
 8003140:	3001      	adds	r0, #1
 8003142:	d10e      	bne.n	8003162 <_printf_float+0x42a>
 8003144:	e659      	b.n	8002dfa <_printf_float+0xc2>
 8003146:	2301      	movs	r3, #1
 8003148:	4652      	mov	r2, sl
 800314a:	4631      	mov	r1, r6
 800314c:	4628      	mov	r0, r5
 800314e:	47b8      	blx	r7
 8003150:	3001      	adds	r0, #1
 8003152:	f43f ae52 	beq.w	8002dfa <_printf_float+0xc2>
 8003156:	f108 0801 	add.w	r8, r8, #1
 800315a:	9b0a      	ldr	r3, [sp, #40]	; 0x28
 800315c:	3b01      	subs	r3, #1
 800315e:	4543      	cmp	r3, r8
 8003160:	dcf1      	bgt.n	8003146 <_printf_float+0x40e>
 8003162:	464b      	mov	r3, r9
 8003164:	f104 0250 	add.w	r2, r4, #80	; 0x50
 8003168:	e6dc      	b.n	8002f24 <_printf_float+0x1ec>
 800316a:	f04f 0800 	mov.w	r8, #0
 800316e:	f104 0a1a 	add.w	sl, r4, #26
 8003172:	e7f2      	b.n	800315a <_printf_float+0x422>
 8003174:	2301      	movs	r3, #1
 8003176:	4642      	mov	r2, r8
 8003178:	e7df      	b.n	800313a <_printf_float+0x402>
 800317a:	2301      	movs	r3, #1
 800317c:	464a      	mov	r2, r9
 800317e:	4631      	mov	r1, r6
 8003180:	4628      	mov	r0, r5
 8003182:	47b8      	blx	r7
 8003184:	3001      	adds	r0, #1
 8003186:	f43f ae38 	beq.w	8002dfa <_printf_float+0xc2>
 800318a:	f108 0801 	add.w	r8, r8, #1
 800318e:	68e3      	ldr	r3, [r4, #12]
 8003190:	990b      	ldr	r1, [sp, #44]	; 0x2c
 8003192:	1a5b      	subs	r3, r3, r1
 8003194:	4543      	cmp	r3, r8
 8003196:	dcf0      	bgt.n	800317a <_printf_float+0x442>
 8003198:	e6fa      	b.n	8002f90 <_printf_float+0x258>
 800319a:	f04f 0800 	mov.w	r8, #0
 800319e:	f104 0919 	add.w	r9, r4, #25
 80031a2:	e7f4      	b.n	800318e <_printf_float+0x456>

080031a4 <_printf_common>:
 80031a4:	e92d 47f0 	stmdb	sp!, {r4, r5, r6, r7, r8, r9, sl, lr}
 80031a8:	4616      	mov	r6, r2
 80031aa:	4699      	mov	r9, r3
 80031ac:	688a      	ldr	r2, [r1, #8]
 80031ae:	690b      	ldr	r3, [r1, #16]
 80031b0:	f8dd 8020 	ldr.w	r8, [sp, #32]
 80031b4:	4293      	cmp	r3, r2
 80031b6:	bfb8      	it	lt
 80031b8:	4613      	movlt	r3, r2
 80031ba:	6033      	str	r3, [r6, #0]
 80031bc:	f891 2043 	ldrb.w	r2, [r1, #67]	; 0x43
 80031c0:	4607      	mov	r7, r0
 80031c2:	460c      	mov	r4, r1
 80031c4:	b10a      	cbz	r2, 80031ca <_printf_common+0x26>
 80031c6:	3301      	adds	r3, #1
 80031c8:	6033      	str	r3, [r6, #0]
 80031ca:	6823      	ldr	r3, [r4, #0]
 80031cc:	0699      	lsls	r1, r3, #26
 80031ce:	bf42      	ittt	mi
 80031d0:	6833      	ldrmi	r3, [r6, #0]
 80031d2:	3302      	addmi	r3, #2
 80031d4:	6033      	strmi	r3, [r6, #0]
 80031d6:	6825      	ldr	r5, [r4, #0]
 80031d8:	f015 0506 	ands.w	r5, r5, #6
 80031dc:	d106      	bne.n	80031ec <_printf_common+0x48>
 80031de:	f104 0a19 	add.w	sl, r4, #25
 80031e2:	68e3      	ldr	r3, [r4, #12]
 80031e4:	6832      	ldr	r2, [r6, #0]
 80031e6:	1a9b      	subs	r3, r3, r2
 80031e8:	42ab      	cmp	r3, r5
 80031ea:	dc26      	bgt.n	800323a <_printf_common+0x96>
 80031ec:	f894 2043 	ldrb.w	r2, [r4, #67]	; 0x43
 80031f0:	1e13      	subs	r3, r2, #0
 80031f2:	6822      	ldr	r2, [r4, #0]
 80031f4:	bf18      	it	ne
 80031f6:	2301      	movne	r3, #1
 80031f8:	0692      	lsls	r2, r2, #26
 80031fa:	d42b      	bmi.n	8003254 <_printf_common+0xb0>
 80031fc:	f104 0243 	add.w	r2, r4, #67	; 0x43
 8003200:	4649      	mov	r1, r9
 8003202:	4638      	mov	r0, r7
 8003204:	47c0      	blx	r8
 8003206:	3001      	adds	r0, #1
 8003208:	d01e      	beq.n	8003248 <_printf_common+0xa4>
 800320a:	6823      	ldr	r3, [r4, #0]
 800320c:	68e5      	ldr	r5, [r4, #12]
 800320e:	6832      	ldr	r2, [r6, #0]
 8003210:	f003 0306 	and.w	r3, r3, #6
 8003214:	2b04      	cmp	r3, #4
 8003216:	bf08      	it	eq
 8003218:	1aad      	subeq	r5, r5, r2
 800321a:	68a3      	ldr	r3, [r4, #8]
 800321c:	6922      	ldr	r2, [r4, #16]
 800321e:	bf0c      	ite	eq
 8003220:	ea25 75e5 	biceq.w	r5, r5, r5, asr #31
 8003224:	2500      	movne	r5, #0
 8003226:	4293      	cmp	r3, r2
 8003228:	bfc4      	itt	gt
 800322a:	1a9b      	subgt	r3, r3, r2
 800322c:	18ed      	addgt	r5, r5, r3
 800322e:	2600      	movs	r6, #0
 8003230:	341a      	adds	r4, #26
 8003232:	42b5      	cmp	r5, r6
 8003234:	d11a      	bne.n	800326c <_printf_common+0xc8>
 8003236:	2000      	movs	r0, #0
 8003238:	e008      	b.n	800324c <_printf_common+0xa8>
 800323a:	2301      	movs	r3, #1
 800323c:	4652      	mov	r2, sl
 800323e:	4649      	mov	r1, r9
 8003240:	4638      	mov	r0, r7
 8003242:	47c0      	blx	r8
 8003244:	3001      	adds	r0, #1
 8003246:	d103      	bne.n	8003250 <_printf_common+0xac>
 8003248:	f04f 30ff 	mov.w	r0, #4294967295	; 0xffffffff
 800324c:	e8bd 87f0 	ldmia.w	sp!, {r4, r5, r6, r7, r8, r9, sl, pc}
 8003250:	3501      	adds	r5, #1
 8003252:	e7c6      	b.n	80031e2 <_printf_common+0x3e>
 8003254:	18e1      	adds	r1, r4, r3
 8003256:	1c5a      	adds	r2, r3, #1
 8003258:	2030      	movs	r0, #48	; 0x30
 800325a:	f881 0043 	strb.w	r0, [r1, #67]	; 0x43
 800325e:	4422      	add	r2, r4
 8003260:	f894 1045 	ldrb.w	r1, [r4, #69]	; 0x45
 8003264:	f882 1043 	strb.w	r1, [r2, #67]	; 0x43
 8003268:	3302      	adds	r3, #2
 800326a:	e7c7      	b.n	80031fc <_printf_common+0x58>
 800326c:	2301      	movs	r3, #1
 800326e:	4622      	mov	r2, r4
 8003270:	4649      	mov	r1, r9
 8003272:	4638      	mov	r0, r7
 8003274:	47c0      	blx	r8
 8003276:	3001      	adds	r0, #1
 8003278:	d0e6      	beq.n	8003248 <_printf_common+0xa4>
 800327a:	3601      	adds	r6, #1
 800327c:	e7d9      	b.n	8003232 <_printf_common+0x8e>
	...

08003280 <_printf_i>:
 8003280:	e92d 47ff 	stmdb	sp!, {r0, r1, r2, r3, r4, r5, r6, r7, r8, r9, sl, lr}
 8003284:	460c      	mov	r4, r1
 8003286:	4691      	mov	r9, r2
 8003288:	7e27      	ldrb	r7, [r4, #24]
 800328a:	990c      	ldr	r1, [sp, #48]	; 0x30
 800328c:	2f78      	cmp	r7, #120	; 0x78
 800328e:	4680      	mov	r8, r0
 8003290:	469a      	mov	sl, r3
 8003292:	f104 0243 	add.w	r2, r4, #67	; 0x43
 8003296:	d807      	bhi.n	80032a8 <_printf_i+0x28>
 8003298:	2f62      	cmp	r7, #98	; 0x62
 800329a:	d80a      	bhi.n	80032b2 <_printf_i+0x32>
 800329c:	2f00      	cmp	r7, #0
 800329e:	f000 80d8 	beq.w	8003452 <_printf_i+0x1d2>
 80032a2:	2f58      	cmp	r7, #88	; 0x58
 80032a4:	f000 80a3 	beq.w	80033ee <_printf_i+0x16e>
 80032a8:	f104 0642 	add.w	r6, r4, #66	; 0x42
 80032ac:	f884 7042 	strb.w	r7, [r4, #66]	; 0x42
 80032b0:	e03a      	b.n	8003328 <_printf_i+0xa8>
 80032b2:	f1a7 0363 	sub.w	r3, r7, #99	; 0x63
 80032b6:	2b15      	cmp	r3, #21
 80032b8:	d8f6      	bhi.n	80032a8 <_printf_i+0x28>
 80032ba:	a001      	add	r0, pc, #4	; (adr r0, 80032c0 <_printf_i+0x40>)
 80032bc:	f850 f023 	ldr.w	pc, [r0, r3, lsl #2]
 80032c0:	08003319 	.word	0x08003319
 80032c4:	0800332d 	.word	0x0800332d
 80032c8:	080032a9 	.word	0x080032a9
 80032cc:	080032a9 	.word	0x080032a9
 80032d0:	080032a9 	.word	0x080032a9
 80032d4:	080032a9 	.word	0x080032a9
 80032d8:	0800332d 	.word	0x0800332d
 80032dc:	080032a9 	.word	0x080032a9
 80032e0:	080032a9 	.word	0x080032a9
 80032e4:	080032a9 	.word	0x080032a9
 80032e8:	080032a9 	.word	0x080032a9
 80032ec:	08003439 	.word	0x08003439
 80032f0:	0800335d 	.word	0x0800335d
 80032f4:	0800341b 	.word	0x0800341b
 80032f8:	080032a9 	.word	0x080032a9
 80032fc:	080032a9 	.word	0x080032a9
 8003300:	0800345b 	.word	0x0800345b
 8003304:	080032a9 	.word	0x080032a9
 8003308:	0800335d 	.word	0x0800335d
 800330c:	080032a9 	.word	0x080032a9
 8003310:	080032a9 	.word	0x080032a9
 8003314:	08003423 	.word	0x08003423
 8003318:	680b      	ldr	r3, [r1, #0]
 800331a:	1d1a      	adds	r2, r3, #4
 800331c:	681b      	ldr	r3, [r3, #0]
 800331e:	600a      	str	r2, [r1, #0]
 8003320:	f104 0642 	add.w	r6, r4, #66	; 0x42
 8003324:	f884 3042 	strb.w	r3, [r4, #66]	; 0x42
 8003328:	2301      	movs	r3, #1
 800332a:	e0a3      	b.n	8003474 <_printf_i+0x1f4>
 800332c:	6825      	ldr	r5, [r4, #0]
 800332e:	6808      	ldr	r0, [r1, #0]
 8003330:	062e      	lsls	r6, r5, #24
 8003332:	f100 0304 	add.w	r3, r0, #4
 8003336:	d50a      	bpl.n	800334e <_printf_i+0xce>
 8003338:	6805      	ldr	r5, [r0, #0]
 800333a:	600b      	str	r3, [r1, #0]
 800333c:	2d00      	cmp	r5, #0
 800333e:	da03      	bge.n	8003348 <_printf_i+0xc8>
 8003340:	232d      	movs	r3, #45	; 0x2d
 8003342:	426d      	negs	r5, r5
 8003344:	f884 3043 	strb.w	r3, [r4, #67]	; 0x43
 8003348:	485e      	ldr	r0, [pc, #376]	; (80034c4 <_printf_i+0x244>)
 800334a:	230a      	movs	r3, #10
 800334c:	e019      	b.n	8003382 <_printf_i+0x102>
 800334e:	f015 0f40 	tst.w	r5, #64	; 0x40
 8003352:	6805      	ldr	r5, [r0, #0]
 8003354:	600b      	str	r3, [r1, #0]
 8003356:	bf18      	it	ne
 8003358:	b22d      	sxthne	r5, r5
 800335a:	e7ef      	b.n	800333c <_printf_i+0xbc>
 800335c:	680b      	ldr	r3, [r1, #0]
 800335e:	6825      	ldr	r5, [r4, #0]
 8003360:	1d18      	adds	r0, r3, #4
 8003362:	6008      	str	r0, [r1, #0]
 8003364:	0628      	lsls	r0, r5, #24
 8003366:	d501      	bpl.n	800336c <_printf_i+0xec>
 8003368:	681d      	ldr	r5, [r3, #0]
 800336a:	e002      	b.n	8003372 <_printf_i+0xf2>
 800336c:	0669      	lsls	r1, r5, #25
 800336e:	d5fb      	bpl.n	8003368 <_printf_i+0xe8>
 8003370:	881d      	ldrh	r5, [r3, #0]
 8003372:	4854      	ldr	r0, [pc, #336]	; (80034c4 <_printf_i+0x244>)
 8003374:	2f6f      	cmp	r7, #111	; 0x6f
 8003376:	bf0c      	ite	eq
 8003378:	2308      	moveq	r3, #8
 800337a:	230a      	movne	r3, #10
 800337c:	2100      	movs	r1, #0
 800337e:	f884 1043 	strb.w	r1, [r4, #67]	; 0x43
 8003382:	6866      	ldr	r6, [r4, #4]
 8003384:	60a6      	str	r6, [r4, #8]
 8003386:	2e00      	cmp	r6, #0
 8003388:	bfa2      	ittt	ge
 800338a:	6821      	ldrge	r1, [r4, #0]
 800338c:	f021 0104 	bicge.w	r1, r1, #4
 8003390:	6021      	strge	r1, [r4, #0]
 8003392:	b90d      	cbnz	r5, 8003398 <_printf_i+0x118>
 8003394:	2e00      	cmp	r6, #0
 8003396:	d04d      	beq.n	8003434 <_printf_i+0x1b4>
 8003398:	4616      	mov	r6, r2
 800339a:	fbb5 f1f3 	udiv	r1, r5, r3
 800339e:	fb03 5711 	mls	r7, r3, r1, r5
 80033a2:	5dc7      	ldrb	r7, [r0, r7]
 80033a4:	f806 7d01 	strb.w	r7, [r6, #-1]!
 80033a8:	462f      	mov	r7, r5
 80033aa:	42bb      	cmp	r3, r7
 80033ac:	460d      	mov	r5, r1
 80033ae:	d9f4      	bls.n	800339a <_printf_i+0x11a>
 80033b0:	2b08      	cmp	r3, #8
 80033b2:	d10b      	bne.n	80033cc <_printf_i+0x14c>
 80033b4:	6823      	ldr	r3, [r4, #0]
 80033b6:	07df      	lsls	r7, r3, #31
 80033b8:	d508      	bpl.n	80033cc <_printf_i+0x14c>
 80033ba:	6923      	ldr	r3, [r4, #16]
 80033bc:	6861      	ldr	r1, [r4, #4]
 80033be:	4299      	cmp	r1, r3
 80033c0:	bfde      	ittt	le
 80033c2:	2330      	movle	r3, #48	; 0x30
 80033c4:	f806 3c01 	strble.w	r3, [r6, #-1]
 80033c8:	f106 36ff 	addle.w	r6, r6, #4294967295	; 0xffffffff
 80033cc:	1b92      	subs	r2, r2, r6
 80033ce:	6122      	str	r2, [r4, #16]
 80033d0:	f8cd a000 	str.w	sl, [sp]
 80033d4:	464b      	mov	r3, r9
 80033d6:	aa03      	add	r2, sp, #12
 80033d8:	4621      	mov	r1, r4
 80033da:	4640      	mov	r0, r8
 80033dc:	f7ff fee2 	bl	80031a4 <_printf_common>
 80033e0:	3001      	adds	r0, #1
 80033e2:	d14c      	bne.n	800347e <_printf_i+0x1fe>
 80033e4:	f04f 30ff 	mov.w	r0, #4294967295	; 0xffffffff
 80033e8:	b004      	add	sp, #16
 80033ea:	e8bd 87f0 	ldmia.w	sp!, {r4, r5, r6, r7, r8, r9, sl, pc}
 80033ee:	4835      	ldr	r0, [pc, #212]	; (80034c4 <_printf_i+0x244>)
 80033f0:	f884 7045 	strb.w	r7, [r4, #69]	; 0x45
 80033f4:	6823      	ldr	r3, [r4, #0]
 80033f6:	680e      	ldr	r6, [r1, #0]
 80033f8:	061f      	lsls	r7, r3, #24
 80033fa:	f856 5b04 	ldr.w	r5, [r6], #4
 80033fe:	600e      	str	r6, [r1, #0]
 8003400:	d514      	bpl.n	800342c <_printf_i+0x1ac>
 8003402:	07d9      	lsls	r1, r3, #31
 8003404:	bf44      	itt	mi
 8003406:	f043 0320 	orrmi.w	r3, r3, #32
 800340a:	6023      	strmi	r3, [r4, #0]
 800340c:	b91d      	cbnz	r5, 8003416 <_printf_i+0x196>
 800340e:	6823      	ldr	r3, [r4, #0]
 8003410:	f023 0320 	bic.w	r3, r3, #32
 8003414:	6023      	str	r3, [r4, #0]
 8003416:	2310      	movs	r3, #16
 8003418:	e7b0      	b.n	800337c <_printf_i+0xfc>
 800341a:	6823      	ldr	r3, [r4, #0]
 800341c:	f043 0320 	orr.w	r3, r3, #32
 8003420:	6023      	str	r3, [r4, #0]
 8003422:	2378      	movs	r3, #120	; 0x78
 8003424:	4828      	ldr	r0, [pc, #160]	; (80034c8 <_printf_i+0x248>)
 8003426:	f884 3045 	strb.w	r3, [r4, #69]	; 0x45
 800342a:	e7e3      	b.n	80033f4 <_printf_i+0x174>
 800342c:	065e      	lsls	r6, r3, #25
 800342e:	bf48      	it	mi
 8003430:	b2ad      	uxthmi	r5, r5
 8003432:	e7e6      	b.n	8003402 <_printf_i+0x182>
 8003434:	4616      	mov	r6, r2
 8003436:	e7bb      	b.n	80033b0 <_printf_i+0x130>
 8003438:	680b      	ldr	r3, [r1, #0]
 800343a:	6826      	ldr	r6, [r4, #0]
 800343c:	6960      	ldr	r0, [r4, #20]
 800343e:	1d1d      	adds	r5, r3, #4
 8003440:	600d      	str	r5, [r1, #0]
 8003442:	0635      	lsls	r5, r6, #24
 8003444:	681b      	ldr	r3, [r3, #0]
 8003446:	d501      	bpl.n	800344c <_printf_i+0x1cc>
 8003448:	6018      	str	r0, [r3, #0]
 800344a:	e002      	b.n	8003452 <_printf_i+0x1d2>
 800344c:	0671      	lsls	r1, r6, #25
 800344e:	d5fb      	bpl.n	8003448 <_printf_i+0x1c8>
 8003450:	8018      	strh	r0, [r3, #0]
 8003452:	2300      	movs	r3, #0
 8003454:	6123      	str	r3, [r4, #16]
 8003456:	4616      	mov	r6, r2
 8003458:	e7ba      	b.n	80033d0 <_printf_i+0x150>
 800345a:	680b      	ldr	r3, [r1, #0]
 800345c:	1d1a      	adds	r2, r3, #4
 800345e:	600a      	str	r2, [r1, #0]
 8003460:	681e      	ldr	r6, [r3, #0]
 8003462:	6862      	ldr	r2, [r4, #4]
 8003464:	2100      	movs	r1, #0
 8003466:	4630      	mov	r0, r6
 8003468:	f7fc feda 	bl	8000220 <memchr>
 800346c:	b108      	cbz	r0, 8003472 <_printf_i+0x1f2>
 800346e:	1b80      	subs	r0, r0, r6
 8003470:	6060      	str	r0, [r4, #4]
 8003472:	6863      	ldr	r3, [r4, #4]
 8003474:	6123      	str	r3, [r4, #16]
 8003476:	2300      	movs	r3, #0
 8003478:	f884 3043 	strb.w	r3, [r4, #67]	; 0x43
 800347c:	e7a8      	b.n	80033d0 <_printf_i+0x150>
 800347e:	6923      	ldr	r3, [r4, #16]
 8003480:	4632      	mov	r2, r6
 8003482:	4649      	mov	r1, r9
 8003484:	4640      	mov	r0, r8
 8003486:	47d0      	blx	sl
 8003488:	3001      	adds	r0, #1
 800348a:	d0ab      	beq.n	80033e4 <_printf_i+0x164>
 800348c:	6823      	ldr	r3, [r4, #0]
 800348e:	079b      	lsls	r3, r3, #30
 8003490:	d413      	bmi.n	80034ba <_printf_i+0x23a>
 8003492:	68e0      	ldr	r0, [r4, #12]
 8003494:	9b03      	ldr	r3, [sp, #12]
 8003496:	4298      	cmp	r0, r3
 8003498:	bfb8      	it	lt
 800349a:	4618      	movlt	r0, r3
 800349c:	e7a4      	b.n	80033e8 <_printf_i+0x168>
 800349e:	2301      	movs	r3, #1
 80034a0:	4632      	mov	r2, r6
 80034a2:	4649      	mov	r1, r9
 80034a4:	4640      	mov	r0, r8
 80034a6:	47d0      	blx	sl
 80034a8:	3001      	adds	r0, #1
 80034aa:	d09b      	beq.n	80033e4 <_printf_i+0x164>
 80034ac:	3501      	adds	r5, #1
 80034ae:	68e3      	ldr	r3, [r4, #12]
 80034b0:	9903      	ldr	r1, [sp, #12]
 80034b2:	1a5b      	subs	r3, r3, r1
 80034b4:	42ab      	cmp	r3, r5
 80034b6:	dcf2      	bgt.n	800349e <_printf_i+0x21e>
 80034b8:	e7eb      	b.n	8003492 <_printf_i+0x212>
 80034ba:	2500      	movs	r5, #0
 80034bc:	f104 0619 	add.w	r6, r4, #25
 80034c0:	e7f5      	b.n	80034ae <_printf_i+0x22e>
 80034c2:	bf00      	nop
 80034c4:	08005f52 	.word	0x08005f52
 80034c8:	08005f63 	.word	0x08005f63

080034cc <iprintf>:
 80034cc:	b40f      	push	{r0, r1, r2, r3}
 80034ce:	4b0a      	ldr	r3, [pc, #40]	; (80034f8 <iprintf+0x2c>)
 80034d0:	b513      	push	{r0, r1, r4, lr}
 80034d2:	681c      	ldr	r4, [r3, #0]
 80034d4:	b124      	cbz	r4, 80034e0 <iprintf+0x14>
 80034d6:	69a3      	ldr	r3, [r4, #24]
 80034d8:	b913      	cbnz	r3, 80034e0 <iprintf+0x14>
 80034da:	4620      	mov	r0, r4
 80034dc:	f001 f8e6 	bl	80046ac <__sinit>
 80034e0:	ab05      	add	r3, sp, #20
 80034e2:	9a04      	ldr	r2, [sp, #16]
 80034e4:	68a1      	ldr	r1, [r4, #8]
 80034e6:	9301      	str	r3, [sp, #4]
 80034e8:	4620      	mov	r0, r4
 80034ea:	f001 fd9d 	bl	8005028 <_vfiprintf_r>
 80034ee:	b002      	add	sp, #8
 80034f0:	e8bd 4010 	ldmia.w	sp!, {r4, lr}
 80034f4:	b004      	add	sp, #16
 80034f6:	4770      	bx	lr
 80034f8:	2000000c 	.word	0x2000000c

080034fc <_puts_r>:
 80034fc:	b570      	push	{r4, r5, r6, lr}
 80034fe:	460e      	mov	r6, r1
 8003500:	4605      	mov	r5, r0
 8003502:	b118      	cbz	r0, 800350c <_puts_r+0x10>
 8003504:	6983      	ldr	r3, [r0, #24]
 8003506:	b90b      	cbnz	r3, 800350c <_puts_r+0x10>
 8003508:	f001 f8d0 	bl	80046ac <__sinit>
 800350c:	69ab      	ldr	r3, [r5, #24]
 800350e:	68ac      	ldr	r4, [r5, #8]
 8003510:	b913      	cbnz	r3, 8003518 <_puts_r+0x1c>
 8003512:	4628      	mov	r0, r5
 8003514:	f001 f8ca 	bl	80046ac <__sinit>
 8003518:	4b2c      	ldr	r3, [pc, #176]	; (80035cc <_puts_r+0xd0>)
 800351a:	429c      	cmp	r4, r3
 800351c:	d120      	bne.n	8003560 <_puts_r+0x64>
 800351e:	686c      	ldr	r4, [r5, #4]
 8003520:	6e63      	ldr	r3, [r4, #100]	; 0x64
 8003522:	07db      	lsls	r3, r3, #31
 8003524:	d405      	bmi.n	8003532 <_puts_r+0x36>
 8003526:	89a3      	ldrh	r3, [r4, #12]
 8003528:	0598      	lsls	r0, r3, #22
 800352a:	d402      	bmi.n	8003532 <_puts_r+0x36>
 800352c:	6da0      	ldr	r0, [r4, #88]	; 0x58
 800352e:	f001 f960 	bl	80047f2 <__retarget_lock_acquire_recursive>
 8003532:	89a3      	ldrh	r3, [r4, #12]
 8003534:	0719      	lsls	r1, r3, #28
 8003536:	d51d      	bpl.n	8003574 <_puts_r+0x78>
 8003538:	6923      	ldr	r3, [r4, #16]
 800353a:	b1db      	cbz	r3, 8003574 <_puts_r+0x78>
 800353c:	3e01      	subs	r6, #1
 800353e:	68a3      	ldr	r3, [r4, #8]
 8003540:	f816 1f01 	ldrb.w	r1, [r6, #1]!
 8003544:	3b01      	subs	r3, #1
 8003546:	60a3      	str	r3, [r4, #8]
 8003548:	bb39      	cbnz	r1, 800359a <_puts_r+0x9e>
 800354a:	2b00      	cmp	r3, #0
 800354c:	da38      	bge.n	80035c0 <_puts_r+0xc4>
 800354e:	4622      	mov	r2, r4
 8003550:	210a      	movs	r1, #10
 8003552:	4628      	mov	r0, r5
 8003554:	f000 f858 	bl	8003608 <__swbuf_r>
 8003558:	3001      	adds	r0, #1
 800355a:	d011      	beq.n	8003580 <_puts_r+0x84>
 800355c:	250a      	movs	r5, #10
 800355e:	e011      	b.n	8003584 <_puts_r+0x88>
 8003560:	4b1b      	ldr	r3, [pc, #108]	; (80035d0 <_puts_r+0xd4>)
 8003562:	429c      	cmp	r4, r3
 8003564:	d101      	bne.n	800356a <_puts_r+0x6e>
 8003566:	68ac      	ldr	r4, [r5, #8]
 8003568:	e7da      	b.n	8003520 <_puts_r+0x24>
 800356a:	4b1a      	ldr	r3, [pc, #104]	; (80035d4 <_puts_r+0xd8>)
 800356c:	429c      	cmp	r4, r3
 800356e:	bf08      	it	eq
 8003570:	68ec      	ldreq	r4, [r5, #12]
 8003572:	e7d5      	b.n	8003520 <_puts_r+0x24>
 8003574:	4621      	mov	r1, r4
 8003576:	4628      	mov	r0, r5
 8003578:	f000 f898 	bl	80036ac <__swsetup_r>
 800357c:	2800      	cmp	r0, #0
 800357e:	d0dd      	beq.n	800353c <_puts_r+0x40>
 8003580:	f04f 35ff 	mov.w	r5, #4294967295	; 0xffffffff
 8003584:	6e63      	ldr	r3, [r4, #100]	; 0x64
 8003586:	07da      	lsls	r2, r3, #31
 8003588:	d405      	bmi.n	8003596 <_puts_r+0x9a>
 800358a:	89a3      	ldrh	r3, [r4, #12]
 800358c:	059b      	lsls	r3, r3, #22
 800358e:	d402      	bmi.n	8003596 <_puts_r+0x9a>
 8003590:	6da0      	ldr	r0, [r4, #88]	; 0x58
 8003592:	f001 f92f 	bl	80047f4 <__retarget_lock_release_recursive>
 8003596:	4628      	mov	r0, r5
 8003598:	bd70      	pop	{r4, r5, r6, pc}
 800359a:	2b00      	cmp	r3, #0
 800359c:	da04      	bge.n	80035a8 <_puts_r+0xac>
 800359e:	69a2      	ldr	r2, [r4, #24]
 80035a0:	429a      	cmp	r2, r3
 80035a2:	dc06      	bgt.n	80035b2 <_puts_r+0xb6>
 80035a4:	290a      	cmp	r1, #10
 80035a6:	d004      	beq.n	80035b2 <_puts_r+0xb6>
 80035a8:	6823      	ldr	r3, [r4, #0]
 80035aa:	1c5a      	adds	r2, r3, #1
 80035ac:	6022      	str	r2, [r4, #0]
 80035ae:	7019      	strb	r1, [r3, #0]
 80035b0:	e7c5      	b.n	800353e <_puts_r+0x42>
 80035b2:	4622      	mov	r2, r4
 80035b4:	4628      	mov	r0, r5
 80035b6:	f000 f827 	bl	8003608 <__swbuf_r>
 80035ba:	3001      	adds	r0, #1
 80035bc:	d1bf      	bne.n	800353e <_puts_r+0x42>
 80035be:	e7df      	b.n	8003580 <_puts_r+0x84>
 80035c0:	6823      	ldr	r3, [r4, #0]
 80035c2:	250a      	movs	r5, #10
 80035c4:	1c5a      	adds	r2, r3, #1
 80035c6:	6022      	str	r2, [r4, #0]
 80035c8:	701d      	strb	r5, [r3, #0]
 80035ca:	e7db      	b.n	8003584 <_puts_r+0x88>
 80035cc:	08006028 	.word	0x08006028
 80035d0:	08006048 	.word	0x08006048
 80035d4:	08006008 	.word	0x08006008

080035d8 <puts>:
 80035d8:	4b02      	ldr	r3, [pc, #8]	; (80035e4 <puts+0xc>)
 80035da:	4601      	mov	r1, r0
 80035dc:	6818      	ldr	r0, [r3, #0]
 80035de:	f7ff bf8d 	b.w	80034fc <_puts_r>
 80035e2:	bf00      	nop
 80035e4:	2000000c 	.word	0x2000000c

080035e8 <_sbrk_r>:
 80035e8:	b538      	push	{r3, r4, r5, lr}
 80035ea:	4d06      	ldr	r5, [pc, #24]	; (8003604 <_sbrk_r+0x1c>)
 80035ec:	2300      	movs	r3, #0
 80035ee:	4604      	mov	r4, r0
 80035f0:	4608      	mov	r0, r1
 80035f2:	602b      	str	r3, [r5, #0]
 80035f4:	f7fe f972 	bl	80018dc <_sbrk>
 80035f8:	1c43      	adds	r3, r0, #1
 80035fa:	d102      	bne.n	8003602 <_sbrk_r+0x1a>
 80035fc:	682b      	ldr	r3, [r5, #0]
 80035fe:	b103      	cbz	r3, 8003602 <_sbrk_r+0x1a>
 8003600:	6023      	str	r3, [r4, #0]
 8003602:	bd38      	pop	{r3, r4, r5, pc}
 8003604:	20000238 	.word	0x20000238

08003608 <__swbuf_r>:
 8003608:	b5f8      	push	{r3, r4, r5, r6, r7, lr}
 800360a:	460e      	mov	r6, r1
 800360c:	4614      	mov	r4, r2
 800360e:	4605      	mov	r5, r0
 8003610:	b118      	cbz	r0, 800361a <__swbuf_r+0x12>
 8003612:	6983      	ldr	r3, [r0, #24]
 8003614:	b90b      	cbnz	r3, 800361a <__swbuf_r+0x12>
 8003616:	f001 f849 	bl	80046ac <__sinit>
 800361a:	4b21      	ldr	r3, [pc, #132]	; (80036a0 <__swbuf_r+0x98>)
 800361c:	429c      	cmp	r4, r3
 800361e:	d12b      	bne.n	8003678 <__swbuf_r+0x70>
 8003620:	686c      	ldr	r4, [r5, #4]
 8003622:	69a3      	ldr	r3, [r4, #24]
 8003624:	60a3      	str	r3, [r4, #8]
 8003626:	89a3      	ldrh	r3, [r4, #12]
 8003628:	071a      	lsls	r2, r3, #28
 800362a:	d52f      	bpl.n	800368c <__swbuf_r+0x84>
 800362c:	6923      	ldr	r3, [r4, #16]
 800362e:	b36b      	cbz	r3, 800368c <__swbuf_r+0x84>
 8003630:	6923      	ldr	r3, [r4, #16]
 8003632:	6820      	ldr	r0, [r4, #0]
 8003634:	1ac0      	subs	r0, r0, r3
 8003636:	6963      	ldr	r3, [r4, #20]
 8003638:	b2f6      	uxtb	r6, r6
 800363a:	4283      	cmp	r3, r0
 800363c:	4637      	mov	r7, r6
 800363e:	dc04      	bgt.n	800364a <__swbuf_r+0x42>
 8003640:	4621      	mov	r1, r4
 8003642:	4628      	mov	r0, r5
 8003644:	f000 ff9e 	bl	8004584 <_fflush_r>
 8003648:	bb30      	cbnz	r0, 8003698 <__swbuf_r+0x90>
 800364a:	68a3      	ldr	r3, [r4, #8]
 800364c:	3b01      	subs	r3, #1
 800364e:	60a3      	str	r3, [r4, #8]
 8003650:	6823      	ldr	r3, [r4, #0]
 8003652:	1c5a      	adds	r2, r3, #1
 8003654:	6022      	str	r2, [r4, #0]
 8003656:	701e      	strb	r6, [r3, #0]
 8003658:	6963      	ldr	r3, [r4, #20]
 800365a:	3001      	adds	r0, #1
 800365c:	4283      	cmp	r3, r0
 800365e:	d004      	beq.n	800366a <__swbuf_r+0x62>
 8003660:	89a3      	ldrh	r3, [r4, #12]
 8003662:	07db      	lsls	r3, r3, #31
 8003664:	d506      	bpl.n	8003674 <__swbuf_r+0x6c>
 8003666:	2e0a      	cmp	r6, #10
 8003668:	d104      	bne.n	8003674 <__swbuf_r+0x6c>
 800366a:	4621      	mov	r1, r4
 800366c:	4628      	mov	r0, r5
 800366e:	f000 ff89 	bl	8004584 <_fflush_r>
 8003672:	b988      	cbnz	r0, 8003698 <__swbuf_r+0x90>
 8003674:	4638      	mov	r0, r7
 8003676:	bdf8      	pop	{r3, r4, r5, r6, r7, pc}
 8003678:	4b0a      	ldr	r3, [pc, #40]	; (80036a4 <__swbuf_r+0x9c>)
 800367a:	429c      	cmp	r4, r3
 800367c:	d101      	bne.n	8003682 <__swbuf_r+0x7a>
 800367e:	68ac      	ldr	r4, [r5, #8]
 8003680:	e7cf      	b.n	8003622 <__swbuf_r+0x1a>
 8003682:	4b09      	ldr	r3, [pc, #36]	; (80036a8 <__swbuf_r+0xa0>)
 8003684:	429c      	cmp	r4, r3
 8003686:	bf08      	it	eq
 8003688:	68ec      	ldreq	r4, [r5, #12]
 800368a:	e7ca      	b.n	8003622 <__swbuf_r+0x1a>
 800368c:	4621      	mov	r1, r4
 800368e:	4628      	mov	r0, r5
 8003690:	f000 f80c 	bl	80036ac <__swsetup_r>
 8003694:	2800      	cmp	r0, #0
 8003696:	d0cb      	beq.n	8003630 <__swbuf_r+0x28>
 8003698:	f04f 37ff 	mov.w	r7, #4294967295	; 0xffffffff
 800369c:	e7ea      	b.n	8003674 <__swbuf_r+0x6c>
 800369e:	bf00      	nop
 80036a0:	08006028 	.word	0x08006028
 80036a4:	08006048 	.word	0x08006048
 80036a8:	08006008 	.word	0x08006008

080036ac <__swsetup_r>:
 80036ac:	4b32      	ldr	r3, [pc, #200]	; (8003778 <__swsetup_r+0xcc>)
 80036ae:	b570      	push	{r4, r5, r6, lr}
 80036b0:	681d      	ldr	r5, [r3, #0]
 80036b2:	4606      	mov	r6, r0
 80036b4:	460c      	mov	r4, r1
 80036b6:	b125      	cbz	r5, 80036c2 <__swsetup_r+0x16>
 80036b8:	69ab      	ldr	r3, [r5, #24]
 80036ba:	b913      	cbnz	r3, 80036c2 <__swsetup_r+0x16>
 80036bc:	4628      	mov	r0, r5
 80036be:	f000 fff5 	bl	80046ac <__sinit>
 80036c2:	4b2e      	ldr	r3, [pc, #184]	; (800377c <__swsetup_r+0xd0>)
 80036c4:	429c      	cmp	r4, r3
 80036c6:	d10f      	bne.n	80036e8 <__swsetup_r+0x3c>
 80036c8:	686c      	ldr	r4, [r5, #4]
 80036ca:	89a3      	ldrh	r3, [r4, #12]
 80036cc:	f9b4 200c 	ldrsh.w	r2, [r4, #12]
 80036d0:	0719      	lsls	r1, r3, #28
 80036d2:	d42c      	bmi.n	800372e <__swsetup_r+0x82>
 80036d4:	06dd      	lsls	r5, r3, #27
 80036d6:	d411      	bmi.n	80036fc <__swsetup_r+0x50>
 80036d8:	2309      	movs	r3, #9
 80036da:	6033      	str	r3, [r6, #0]
 80036dc:	f042 0340 	orr.w	r3, r2, #64	; 0x40
 80036e0:	81a3      	strh	r3, [r4, #12]
 80036e2:	f04f 30ff 	mov.w	r0, #4294967295	; 0xffffffff
 80036e6:	e03e      	b.n	8003766 <__swsetup_r+0xba>
 80036e8:	4b25      	ldr	r3, [pc, #148]	; (8003780 <__swsetup_r+0xd4>)
 80036ea:	429c      	cmp	r4, r3
 80036ec:	d101      	bne.n	80036f2 <__swsetup_r+0x46>
 80036ee:	68ac      	ldr	r4, [r5, #8]
 80036f0:	e7eb      	b.n	80036ca <__swsetup_r+0x1e>
 80036f2:	4b24      	ldr	r3, [pc, #144]	; (8003784 <__swsetup_r+0xd8>)
 80036f4:	429c      	cmp	r4, r3
 80036f6:	bf08      	it	eq
 80036f8:	68ec      	ldreq	r4, [r5, #12]
 80036fa:	e7e6      	b.n	80036ca <__swsetup_r+0x1e>
 80036fc:	0758      	lsls	r0, r3, #29
 80036fe:	d512      	bpl.n	8003726 <__swsetup_r+0x7a>
 8003700:	6b61      	ldr	r1, [r4, #52]	; 0x34
 8003702:	b141      	cbz	r1, 8003716 <__swsetup_r+0x6a>
 8003704:	f104 0344 	add.w	r3, r4, #68	; 0x44
 8003708:	4299      	cmp	r1, r3
 800370a:	d002      	beq.n	8003712 <__swsetup_r+0x66>
 800370c:	4630      	mov	r0, r6
 800370e:	f7ff f9c9 	bl	8002aa4 <_free_r>
 8003712:	2300      	movs	r3, #0
 8003714:	6363      	str	r3, [r4, #52]	; 0x34
 8003716:	89a3      	ldrh	r3, [r4, #12]
 8003718:	f023 0324 	bic.w	r3, r3, #36	; 0x24
 800371c:	81a3      	strh	r3, [r4, #12]
 800371e:	2300      	movs	r3, #0
 8003720:	6063      	str	r3, [r4, #4]
 8003722:	6923      	ldr	r3, [r4, #16]
 8003724:	6023      	str	r3, [r4, #0]
 8003726:	89a3      	ldrh	r3, [r4, #12]
 8003728:	f043 0308 	orr.w	r3, r3, #8
 800372c:	81a3      	strh	r3, [r4, #12]
 800372e:	6923      	ldr	r3, [r4, #16]
 8003730:	b94b      	cbnz	r3, 8003746 <__swsetup_r+0x9a>
 8003732:	89a3      	ldrh	r3, [r4, #12]
 8003734:	f403 7320 	and.w	r3, r3, #640	; 0x280
 8003738:	f5b3 7f00 	cmp.w	r3, #512	; 0x200
 800373c:	d003      	beq.n	8003746 <__swsetup_r+0x9a>
 800373e:	4621      	mov	r1, r4
 8003740:	4630      	mov	r0, r6
 8003742:	f001 f87d 	bl	8004840 <__smakebuf_r>
 8003746:	89a0      	ldrh	r0, [r4, #12]
 8003748:	f9b4 200c 	ldrsh.w	r2, [r4, #12]
 800374c:	f010 0301 	ands.w	r3, r0, #1
 8003750:	d00a      	beq.n	8003768 <__swsetup_r+0xbc>
 8003752:	2300      	movs	r3, #0
 8003754:	60a3      	str	r3, [r4, #8]
 8003756:	6963      	ldr	r3, [r4, #20]
 8003758:	425b      	negs	r3, r3
 800375a:	61a3      	str	r3, [r4, #24]
 800375c:	6923      	ldr	r3, [r4, #16]
 800375e:	b943      	cbnz	r3, 8003772 <__swsetup_r+0xc6>
 8003760:	f010 0080 	ands.w	r0, r0, #128	; 0x80
 8003764:	d1ba      	bne.n	80036dc <__swsetup_r+0x30>
 8003766:	bd70      	pop	{r4, r5, r6, pc}
 8003768:	0781      	lsls	r1, r0, #30
 800376a:	bf58      	it	pl
 800376c:	6963      	ldrpl	r3, [r4, #20]
 800376e:	60a3      	str	r3, [r4, #8]
 8003770:	e7f4      	b.n	800375c <__swsetup_r+0xb0>
 8003772:	2000      	movs	r0, #0
 8003774:	e7f7      	b.n	8003766 <__swsetup_r+0xba>
 8003776:	bf00      	nop
 8003778:	2000000c 	.word	0x2000000c
 800377c:	08006028 	.word	0x08006028
 8003780:	08006048 	.word	0x08006048
 8003784:	08006008 	.word	0x08006008

08003788 <quorem>:
 8003788:	e92d 4ff7 	stmdb	sp!, {r0, r1, r2, r4, r5, r6, r7, r8, r9, sl, fp, lr}
 800378c:	6903      	ldr	r3, [r0, #16]
 800378e:	690c      	ldr	r4, [r1, #16]
 8003790:	42a3      	cmp	r3, r4
 8003792:	4607      	mov	r7, r0
 8003794:	f2c0 8081 	blt.w	800389a <quorem+0x112>
 8003798:	3c01      	subs	r4, #1
 800379a:	f101 0814 	add.w	r8, r1, #20
 800379e:	f100 0514 	add.w	r5, r0, #20
 80037a2:	eb05 0384 	add.w	r3, r5, r4, lsl #2
 80037a6:	9301      	str	r3, [sp, #4]
 80037a8:	f858 3024 	ldr.w	r3, [r8, r4, lsl #2]
 80037ac:	f855 2024 	ldr.w	r2, [r5, r4, lsl #2]
 80037b0:	3301      	adds	r3, #1
 80037b2:	429a      	cmp	r2, r3
 80037b4:	ea4f 0b84 	mov.w	fp, r4, lsl #2
 80037b8:	eb08 0984 	add.w	r9, r8, r4, lsl #2
 80037bc:	fbb2 f6f3 	udiv	r6, r2, r3
 80037c0:	d331      	bcc.n	8003826 <quorem+0x9e>
 80037c2:	f04f 0e00 	mov.w	lr, #0
 80037c6:	4640      	mov	r0, r8
 80037c8:	46ac      	mov	ip, r5
 80037ca:	46f2      	mov	sl, lr
 80037cc:	f850 2b04 	ldr.w	r2, [r0], #4
 80037d0:	b293      	uxth	r3, r2
 80037d2:	fb06 e303 	mla	r3, r6, r3, lr
 80037d6:	ea4f 4e13 	mov.w	lr, r3, lsr #16
 80037da:	b29b      	uxth	r3, r3
 80037dc:	ebaa 0303 	sub.w	r3, sl, r3
 80037e0:	0c12      	lsrs	r2, r2, #16
 80037e2:	f8dc a000 	ldr.w	sl, [ip]
 80037e6:	fb06 e202 	mla	r2, r6, r2, lr
 80037ea:	fa13 f38a 	uxtah	r3, r3, sl
 80037ee:	ea4f 4e12 	mov.w	lr, r2, lsr #16
 80037f2:	fa1f fa82 	uxth.w	sl, r2
 80037f6:	f8dc 2000 	ldr.w	r2, [ip]
 80037fa:	ebca 4212 	rsb	r2, sl, r2, lsr #16
 80037fe:	eb02 4223 	add.w	r2, r2, r3, asr #16
 8003802:	b29b      	uxth	r3, r3
 8003804:	ea43 4302 	orr.w	r3, r3, r2, lsl #16
 8003808:	4581      	cmp	r9, r0
 800380a:	f84c 3b04 	str.w	r3, [ip], #4
 800380e:	ea4f 4a22 	mov.w	sl, r2, asr #16
 8003812:	d2db      	bcs.n	80037cc <quorem+0x44>
 8003814:	f855 300b 	ldr.w	r3, [r5, fp]
 8003818:	b92b      	cbnz	r3, 8003826 <quorem+0x9e>
 800381a:	9b01      	ldr	r3, [sp, #4]
 800381c:	3b04      	subs	r3, #4
 800381e:	429d      	cmp	r5, r3
 8003820:	461a      	mov	r2, r3
 8003822:	d32e      	bcc.n	8003882 <quorem+0xfa>
 8003824:	613c      	str	r4, [r7, #16]
 8003826:	4638      	mov	r0, r7
 8003828:	f001 fad4 	bl	8004dd4 <__mcmp>
 800382c:	2800      	cmp	r0, #0
 800382e:	db24      	blt.n	800387a <quorem+0xf2>
 8003830:	3601      	adds	r6, #1
 8003832:	4628      	mov	r0, r5
 8003834:	f04f 0c00 	mov.w	ip, #0
 8003838:	f858 2b04 	ldr.w	r2, [r8], #4
 800383c:	f8d0 e000 	ldr.w	lr, [r0]
 8003840:	b293      	uxth	r3, r2
 8003842:	ebac 0303 	sub.w	r3, ip, r3
 8003846:	0c12      	lsrs	r2, r2, #16
 8003848:	fa13 f38e 	uxtah	r3, r3, lr
 800384c:	ebc2 421e 	rsb	r2, r2, lr, lsr #16
 8003850:	eb02 4223 	add.w	r2, r2, r3, asr #16
 8003854:	b29b      	uxth	r3, r3
 8003856:	ea43 4302 	orr.w	r3, r3, r2, lsl #16
 800385a:	45c1      	cmp	r9, r8
 800385c:	f840 3b04 	str.w	r3, [r0], #4
 8003860:	ea4f 4c22 	mov.w	ip, r2, asr #16
 8003864:	d2e8      	bcs.n	8003838 <quorem+0xb0>
 8003866:	f855 2024 	ldr.w	r2, [r5, r4, lsl #2]
 800386a:	eb05 0384 	add.w	r3, r5, r4, lsl #2
 800386e:	b922      	cbnz	r2, 800387a <quorem+0xf2>
 8003870:	3b04      	subs	r3, #4
 8003872:	429d      	cmp	r5, r3
 8003874:	461a      	mov	r2, r3
 8003876:	d30a      	bcc.n	800388e <quorem+0x106>
 8003878:	613c      	str	r4, [r7, #16]
 800387a:	4630      	mov	r0, r6
 800387c:	b003      	add	sp, #12
 800387e:	e8bd 8ff0 	ldmia.w	sp!, {r4, r5, r6, r7, r8, r9, sl, fp, pc}
 8003882:	6812      	ldr	r2, [r2, #0]
 8003884:	3b04      	subs	r3, #4
 8003886:	2a00      	cmp	r2, #0
 8003888:	d1cc      	bne.n	8003824 <quorem+0x9c>
 800388a:	3c01      	subs	r4, #1
 800388c:	e7c7      	b.n	800381e <quorem+0x96>
 800388e:	6812      	ldr	r2, [r2, #0]
 8003890:	3b04      	subs	r3, #4
 8003892:	2a00      	cmp	r2, #0
 8003894:	d1f0      	bne.n	8003878 <quorem+0xf0>
 8003896:	3c01      	subs	r4, #1
 8003898:	e7eb      	b.n	8003872 <quorem+0xea>
 800389a:	2000      	movs	r0, #0
 800389c:	e7ee      	b.n	800387c <quorem+0xf4>
	...

080038a0 <_dtoa_r>:
 80038a0:	e92d 4ff0 	stmdb	sp!, {r4, r5, r6, r7, r8, r9, sl, fp, lr}
 80038a4:	ed2d 8b02 	vpush	{d8}
 80038a8:	ec57 6b10 	vmov	r6, r7, d0
 80038ac:	b095      	sub	sp, #84	; 0x54
 80038ae:	6a45      	ldr	r5, [r0, #36]	; 0x24
 80038b0:	f8dd 8080 	ldr.w	r8, [sp, #128]	; 0x80
 80038b4:	9105      	str	r1, [sp, #20]
 80038b6:	e9cd 6702 	strd	r6, r7, [sp, #8]
 80038ba:	4604      	mov	r4, r0
 80038bc:	9209      	str	r2, [sp, #36]	; 0x24
 80038be:	930f      	str	r3, [sp, #60]	; 0x3c
 80038c0:	b975      	cbnz	r5, 80038e0 <_dtoa_r+0x40>
 80038c2:	2010      	movs	r0, #16
 80038c4:	f7ff f8b8 	bl	8002a38 <malloc>
 80038c8:	4602      	mov	r2, r0
 80038ca:	6260      	str	r0, [r4, #36]	; 0x24
 80038cc:	b920      	cbnz	r0, 80038d8 <_dtoa_r+0x38>
 80038ce:	4bb2      	ldr	r3, [pc, #712]	; (8003b98 <_dtoa_r+0x2f8>)
 80038d0:	21ea      	movs	r1, #234	; 0xea
 80038d2:	48b2      	ldr	r0, [pc, #712]	; (8003b9c <_dtoa_r+0x2fc>)
 80038d4:	f001 fd2e 	bl	8005334 <__assert_func>
 80038d8:	e9c0 5501 	strd	r5, r5, [r0, #4]
 80038dc:	6005      	str	r5, [r0, #0]
 80038de:	60c5      	str	r5, [r0, #12]
 80038e0:	6a63      	ldr	r3, [r4, #36]	; 0x24
 80038e2:	6819      	ldr	r1, [r3, #0]
 80038e4:	b151      	cbz	r1, 80038fc <_dtoa_r+0x5c>
 80038e6:	685a      	ldr	r2, [r3, #4]
 80038e8:	604a      	str	r2, [r1, #4]
 80038ea:	2301      	movs	r3, #1
 80038ec:	4093      	lsls	r3, r2
 80038ee:	608b      	str	r3, [r1, #8]
 80038f0:	4620      	mov	r0, r4
 80038f2:	f001 f831 	bl	8004958 <_Bfree>
 80038f6:	6a63      	ldr	r3, [r4, #36]	; 0x24
 80038f8:	2200      	movs	r2, #0
 80038fa:	601a      	str	r2, [r3, #0]
 80038fc:	1e3b      	subs	r3, r7, #0
 80038fe:	bfb9      	ittee	lt
 8003900:	f023 4300 	biclt.w	r3, r3, #2147483648	; 0x80000000
 8003904:	9303      	strlt	r3, [sp, #12]
 8003906:	2300      	movge	r3, #0
 8003908:	f8c8 3000 	strge.w	r3, [r8]
 800390c:	f8dd 900c 	ldr.w	r9, [sp, #12]
 8003910:	4ba3      	ldr	r3, [pc, #652]	; (8003ba0 <_dtoa_r+0x300>)
 8003912:	bfbc      	itt	lt
 8003914:	2201      	movlt	r2, #1
 8003916:	f8c8 2000 	strlt.w	r2, [r8]
 800391a:	ea33 0309 	bics.w	r3, r3, r9
 800391e:	d11b      	bne.n	8003958 <_dtoa_r+0xb8>
 8003920:	9a0f      	ldr	r2, [sp, #60]	; 0x3c
 8003922:	f242 730f 	movw	r3, #9999	; 0x270f
 8003926:	6013      	str	r3, [r2, #0]
 8003928:	f3c9 0313 	ubfx	r3, r9, #0, #20
 800392c:	4333      	orrs	r3, r6
 800392e:	f000 857a 	beq.w	8004426 <_dtoa_r+0xb86>
 8003932:	9b21      	ldr	r3, [sp, #132]	; 0x84
 8003934:	b963      	cbnz	r3, 8003950 <_dtoa_r+0xb0>
 8003936:	4b9b      	ldr	r3, [pc, #620]	; (8003ba4 <_dtoa_r+0x304>)
 8003938:	e024      	b.n	8003984 <_dtoa_r+0xe4>
 800393a:	4b9b      	ldr	r3, [pc, #620]	; (8003ba8 <_dtoa_r+0x308>)
 800393c:	9300      	str	r3, [sp, #0]
 800393e:	3308      	adds	r3, #8
 8003940:	9a21      	ldr	r2, [sp, #132]	; 0x84
 8003942:	6013      	str	r3, [r2, #0]
 8003944:	9800      	ldr	r0, [sp, #0]
 8003946:	b015      	add	sp, #84	; 0x54
 8003948:	ecbd 8b02 	vpop	{d8}
 800394c:	e8bd 8ff0 	ldmia.w	sp!, {r4, r5, r6, r7, r8, r9, sl, fp, pc}
 8003950:	4b94      	ldr	r3, [pc, #592]	; (8003ba4 <_dtoa_r+0x304>)
 8003952:	9300      	str	r3, [sp, #0]
 8003954:	3303      	adds	r3, #3
 8003956:	e7f3      	b.n	8003940 <_dtoa_r+0xa0>
 8003958:	ed9d 7b02 	vldr	d7, [sp, #8]
 800395c:	2200      	movs	r2, #0
 800395e:	ec51 0b17 	vmov	r0, r1, d7
 8003962:	2300      	movs	r3, #0
 8003964:	ed8d 7b0a 	vstr	d7, [sp, #40]	; 0x28
 8003968:	f7fd f8ce 	bl	8000b08 <__aeabi_dcmpeq>
 800396c:	4680      	mov	r8, r0
 800396e:	b158      	cbz	r0, 8003988 <_dtoa_r+0xe8>
 8003970:	9a0f      	ldr	r2, [sp, #60]	; 0x3c
 8003972:	2301      	movs	r3, #1
 8003974:	6013      	str	r3, [r2, #0]
 8003976:	9b21      	ldr	r3, [sp, #132]	; 0x84
 8003978:	2b00      	cmp	r3, #0
 800397a:	f000 8551 	beq.w	8004420 <_dtoa_r+0xb80>
 800397e:	488b      	ldr	r0, [pc, #556]	; (8003bac <_dtoa_r+0x30c>)
 8003980:	6018      	str	r0, [r3, #0]
 8003982:	1e43      	subs	r3, r0, #1
 8003984:	9300      	str	r3, [sp, #0]
 8003986:	e7dd      	b.n	8003944 <_dtoa_r+0xa4>
 8003988:	ed9d 0b0a 	vldr	d0, [sp, #40]	; 0x28
 800398c:	aa12      	add	r2, sp, #72	; 0x48
 800398e:	a913      	add	r1, sp, #76	; 0x4c
 8003990:	4620      	mov	r0, r4
 8003992:	f001 fac3 	bl	8004f1c <__d2b>
 8003996:	f3c9 550a 	ubfx	r5, r9, #20, #11
 800399a:	4683      	mov	fp, r0
 800399c:	2d00      	cmp	r5, #0
 800399e:	d07c      	beq.n	8003a9a <_dtoa_r+0x1fa>
 80039a0:	9b0b      	ldr	r3, [sp, #44]	; 0x2c
 80039a2:	f8cd 8040 	str.w	r8, [sp, #64]	; 0x40
 80039a6:	f3c3 0313 	ubfx	r3, r3, #0, #20
 80039aa:	e9dd 670a 	ldrd	r6, r7, [sp, #40]	; 0x28
 80039ae:	f043 577f 	orr.w	r7, r3, #1069547520	; 0x3fc00000
 80039b2:	f447 1740 	orr.w	r7, r7, #3145728	; 0x300000
 80039b6:	f2a5 35ff 	subw	r5, r5, #1023	; 0x3ff
 80039ba:	4b7d      	ldr	r3, [pc, #500]	; (8003bb0 <_dtoa_r+0x310>)
 80039bc:	2200      	movs	r2, #0
 80039be:	4630      	mov	r0, r6
 80039c0:	4639      	mov	r1, r7
 80039c2:	f7fc fc81 	bl	80002c8 <__aeabi_dsub>
 80039c6:	a36e      	add	r3, pc, #440	; (adr r3, 8003b80 <_dtoa_r+0x2e0>)
 80039c8:	e9d3 2300 	ldrd	r2, r3, [r3]
 80039cc:	f7fc fe34 	bl	8000638 <__aeabi_dmul>
 80039d0:	a36d      	add	r3, pc, #436	; (adr r3, 8003b88 <_dtoa_r+0x2e8>)
 80039d2:	e9d3 2300 	ldrd	r2, r3, [r3]
 80039d6:	f7fc fc79 	bl	80002cc <__adddf3>
 80039da:	4606      	mov	r6, r0
 80039dc:	4628      	mov	r0, r5
 80039de:	460f      	mov	r7, r1
 80039e0:	f7fc fdc0 	bl	8000564 <__aeabi_i2d>
 80039e4:	a36a      	add	r3, pc, #424	; (adr r3, 8003b90 <_dtoa_r+0x2f0>)
 80039e6:	e9d3 2300 	ldrd	r2, r3, [r3]
 80039ea:	f7fc fe25 	bl	8000638 <__aeabi_dmul>
 80039ee:	4602      	mov	r2, r0
 80039f0:	460b      	mov	r3, r1
 80039f2:	4630      	mov	r0, r6
 80039f4:	4639      	mov	r1, r7
 80039f6:	f7fc fc69 	bl	80002cc <__adddf3>
 80039fa:	4606      	mov	r6, r0
 80039fc:	460f      	mov	r7, r1
 80039fe:	f7fd f8cb 	bl	8000b98 <__aeabi_d2iz>
 8003a02:	2200      	movs	r2, #0
 8003a04:	4682      	mov	sl, r0
 8003a06:	2300      	movs	r3, #0
 8003a08:	4630      	mov	r0, r6
 8003a0a:	4639      	mov	r1, r7
 8003a0c:	f7fd f886 	bl	8000b1c <__aeabi_dcmplt>
 8003a10:	b148      	cbz	r0, 8003a26 <_dtoa_r+0x186>
 8003a12:	4650      	mov	r0, sl
 8003a14:	f7fc fda6 	bl	8000564 <__aeabi_i2d>
 8003a18:	4632      	mov	r2, r6
 8003a1a:	463b      	mov	r3, r7
 8003a1c:	f7fd f874 	bl	8000b08 <__aeabi_dcmpeq>
 8003a20:	b908      	cbnz	r0, 8003a26 <_dtoa_r+0x186>
 8003a22:	f10a 3aff 	add.w	sl, sl, #4294967295	; 0xffffffff
 8003a26:	f1ba 0f16 	cmp.w	sl, #22
 8003a2a:	d854      	bhi.n	8003ad6 <_dtoa_r+0x236>
 8003a2c:	4b61      	ldr	r3, [pc, #388]	; (8003bb4 <_dtoa_r+0x314>)
 8003a2e:	eb03 03ca 	add.w	r3, r3, sl, lsl #3
 8003a32:	e9d3 2300 	ldrd	r2, r3, [r3]
 8003a36:	e9dd 010a 	ldrd	r0, r1, [sp, #40]	; 0x28
 8003a3a:	f7fd f86f 	bl	8000b1c <__aeabi_dcmplt>
 8003a3e:	2800      	cmp	r0, #0
 8003a40:	d04b      	beq.n	8003ada <_dtoa_r+0x23a>
 8003a42:	f10a 3aff 	add.w	sl, sl, #4294967295	; 0xffffffff
 8003a46:	2300      	movs	r3, #0
 8003a48:	930e      	str	r3, [sp, #56]	; 0x38
 8003a4a:	9b12      	ldr	r3, [sp, #72]	; 0x48
 8003a4c:	1b5d      	subs	r5, r3, r5
 8003a4e:	1e6b      	subs	r3, r5, #1
 8003a50:	9304      	str	r3, [sp, #16]
 8003a52:	bf43      	ittte	mi
 8003a54:	2300      	movmi	r3, #0
 8003a56:	f1c5 0801 	rsbmi	r8, r5, #1
 8003a5a:	9304      	strmi	r3, [sp, #16]
 8003a5c:	f04f 0800 	movpl.w	r8, #0
 8003a60:	f1ba 0f00 	cmp.w	sl, #0
 8003a64:	db3b      	blt.n	8003ade <_dtoa_r+0x23e>
 8003a66:	9b04      	ldr	r3, [sp, #16]
 8003a68:	f8cd a034 	str.w	sl, [sp, #52]	; 0x34
 8003a6c:	4453      	add	r3, sl
 8003a6e:	9304      	str	r3, [sp, #16]
 8003a70:	2300      	movs	r3, #0
 8003a72:	9306      	str	r3, [sp, #24]
 8003a74:	9b05      	ldr	r3, [sp, #20]
 8003a76:	2b09      	cmp	r3, #9
 8003a78:	d869      	bhi.n	8003b4e <_dtoa_r+0x2ae>
 8003a7a:	2b05      	cmp	r3, #5
 8003a7c:	bfc4      	itt	gt
 8003a7e:	3b04      	subgt	r3, #4
 8003a80:	9305      	strgt	r3, [sp, #20]
 8003a82:	9b05      	ldr	r3, [sp, #20]
 8003a84:	f1a3 0302 	sub.w	r3, r3, #2
 8003a88:	bfcc      	ite	gt
 8003a8a:	2500      	movgt	r5, #0
 8003a8c:	2501      	movle	r5, #1
 8003a8e:	2b03      	cmp	r3, #3
 8003a90:	d869      	bhi.n	8003b66 <_dtoa_r+0x2c6>
 8003a92:	e8df f003 	tbb	[pc, r3]
 8003a96:	4e2c      	.short	0x4e2c
 8003a98:	5a4c      	.short	0x5a4c
 8003a9a:	e9dd 5312 	ldrd	r5, r3, [sp, #72]	; 0x48
 8003a9e:	441d      	add	r5, r3
 8003aa0:	f205 4332 	addw	r3, r5, #1074	; 0x432
 8003aa4:	2b20      	cmp	r3, #32
 8003aa6:	bfc1      	itttt	gt
 8003aa8:	f1c3 0340 	rsbgt	r3, r3, #64	; 0x40
 8003aac:	f205 4012 	addwgt	r0, r5, #1042	; 0x412
 8003ab0:	fa09 f303 	lslgt.w	r3, r9, r3
 8003ab4:	fa26 f000 	lsrgt.w	r0, r6, r0
 8003ab8:	bfda      	itte	le
 8003aba:	f1c3 0320 	rsble	r3, r3, #32
 8003abe:	fa06 f003 	lslle.w	r0, r6, r3
 8003ac2:	4318      	orrgt	r0, r3
 8003ac4:	f7fc fd3e 	bl	8000544 <__aeabi_ui2d>
 8003ac8:	2301      	movs	r3, #1
 8003aca:	4606      	mov	r6, r0
 8003acc:	f1a1 77f8 	sub.w	r7, r1, #32505856	; 0x1f00000
 8003ad0:	3d01      	subs	r5, #1
 8003ad2:	9310      	str	r3, [sp, #64]	; 0x40
 8003ad4:	e771      	b.n	80039ba <_dtoa_r+0x11a>
 8003ad6:	2301      	movs	r3, #1
 8003ad8:	e7b6      	b.n	8003a48 <_dtoa_r+0x1a8>
 8003ada:	900e      	str	r0, [sp, #56]	; 0x38
 8003adc:	e7b5      	b.n	8003a4a <_dtoa_r+0x1aa>
 8003ade:	f1ca 0300 	rsb	r3, sl, #0
 8003ae2:	9306      	str	r3, [sp, #24]
 8003ae4:	2300      	movs	r3, #0
 8003ae6:	eba8 080a 	sub.w	r8, r8, sl
 8003aea:	930d      	str	r3, [sp, #52]	; 0x34
 8003aec:	e7c2      	b.n	8003a74 <_dtoa_r+0x1d4>
 8003aee:	2300      	movs	r3, #0
 8003af0:	9308      	str	r3, [sp, #32]
 8003af2:	9b09      	ldr	r3, [sp, #36]	; 0x24
 8003af4:	2b00      	cmp	r3, #0
 8003af6:	dc39      	bgt.n	8003b6c <_dtoa_r+0x2cc>
 8003af8:	f04f 0901 	mov.w	r9, #1
 8003afc:	f8cd 9004 	str.w	r9, [sp, #4]
 8003b00:	464b      	mov	r3, r9
 8003b02:	f8cd 9024 	str.w	r9, [sp, #36]	; 0x24
 8003b06:	6a60      	ldr	r0, [r4, #36]	; 0x24
 8003b08:	2200      	movs	r2, #0
 8003b0a:	6042      	str	r2, [r0, #4]
 8003b0c:	2204      	movs	r2, #4
 8003b0e:	f102 0614 	add.w	r6, r2, #20
 8003b12:	429e      	cmp	r6, r3
 8003b14:	6841      	ldr	r1, [r0, #4]
 8003b16:	d92f      	bls.n	8003b78 <_dtoa_r+0x2d8>
 8003b18:	4620      	mov	r0, r4
 8003b1a:	f000 fedd 	bl	80048d8 <_Balloc>
 8003b1e:	9000      	str	r0, [sp, #0]
 8003b20:	2800      	cmp	r0, #0
 8003b22:	d14b      	bne.n	8003bbc <_dtoa_r+0x31c>
 8003b24:	4b24      	ldr	r3, [pc, #144]	; (8003bb8 <_dtoa_r+0x318>)
 8003b26:	4602      	mov	r2, r0
 8003b28:	f44f 71d5 	mov.w	r1, #426	; 0x1aa
 8003b2c:	e6d1      	b.n	80038d2 <_dtoa_r+0x32>
 8003b2e:	2301      	movs	r3, #1
 8003b30:	e7de      	b.n	8003af0 <_dtoa_r+0x250>
 8003b32:	2300      	movs	r3, #0
 8003b34:	9308      	str	r3, [sp, #32]
 8003b36:	9b09      	ldr	r3, [sp, #36]	; 0x24
 8003b38:	eb0a 0903 	add.w	r9, sl, r3
 8003b3c:	f109 0301 	add.w	r3, r9, #1
 8003b40:	2b01      	cmp	r3, #1
 8003b42:	9301      	str	r3, [sp, #4]
 8003b44:	bfb8      	it	lt
 8003b46:	2301      	movlt	r3, #1
 8003b48:	e7dd      	b.n	8003b06 <_dtoa_r+0x266>
 8003b4a:	2301      	movs	r3, #1
 8003b4c:	e7f2      	b.n	8003b34 <_dtoa_r+0x294>
 8003b4e:	2501      	movs	r5, #1
 8003b50:	2300      	movs	r3, #0
 8003b52:	9305      	str	r3, [sp, #20]
 8003b54:	9508      	str	r5, [sp, #32]
 8003b56:	f04f 39ff 	mov.w	r9, #4294967295	; 0xffffffff
 8003b5a:	2200      	movs	r2, #0
 8003b5c:	f8cd 9004 	str.w	r9, [sp, #4]
 8003b60:	2312      	movs	r3, #18
 8003b62:	9209      	str	r2, [sp, #36]	; 0x24
 8003b64:	e7cf      	b.n	8003b06 <_dtoa_r+0x266>
 8003b66:	2301      	movs	r3, #1
 8003b68:	9308      	str	r3, [sp, #32]
 8003b6a:	e7f4      	b.n	8003b56 <_dtoa_r+0x2b6>
 8003b6c:	f8dd 9024 	ldr.w	r9, [sp, #36]	; 0x24
 8003b70:	f8cd 9004 	str.w	r9, [sp, #4]
 8003b74:	464b      	mov	r3, r9
 8003b76:	e7c6      	b.n	8003b06 <_dtoa_r+0x266>
 8003b78:	3101      	adds	r1, #1
 8003b7a:	6041      	str	r1, [r0, #4]
 8003b7c:	0052      	lsls	r2, r2, #1
 8003b7e:	e7c6      	b.n	8003b0e <_dtoa_r+0x26e>
 8003b80:	636f4361 	.word	0x636f4361
 8003b84:	3fd287a7 	.word	0x3fd287a7
 8003b88:	8b60c8b3 	.word	0x8b60c8b3
 8003b8c:	3fc68a28 	.word	0x3fc68a28
 8003b90:	509f79fb 	.word	0x509f79fb
 8003b94:	3fd34413 	.word	0x3fd34413
 8003b98:	08005f81 	.word	0x08005f81
 8003b9c:	08005f98 	.word	0x08005f98
 8003ba0:	7ff00000 	.word	0x7ff00000
 8003ba4:	08005f7d 	.word	0x08005f7d
 8003ba8:	08005f74 	.word	0x08005f74
 8003bac:	08005f51 	.word	0x08005f51
 8003bb0:	3ff80000 	.word	0x3ff80000
 8003bb4:	080060f0 	.word	0x080060f0
 8003bb8:	08005ff7 	.word	0x08005ff7
 8003bbc:	6a63      	ldr	r3, [r4, #36]	; 0x24
 8003bbe:	9a00      	ldr	r2, [sp, #0]
 8003bc0:	601a      	str	r2, [r3, #0]
 8003bc2:	9b01      	ldr	r3, [sp, #4]
 8003bc4:	2b0e      	cmp	r3, #14
 8003bc6:	f200 80ad 	bhi.w	8003d24 <_dtoa_r+0x484>
 8003bca:	2d00      	cmp	r5, #0
 8003bcc:	f000 80aa 	beq.w	8003d24 <_dtoa_r+0x484>
 8003bd0:	f1ba 0f00 	cmp.w	sl, #0
 8003bd4:	dd36      	ble.n	8003c44 <_dtoa_r+0x3a4>
 8003bd6:	4ac3      	ldr	r2, [pc, #780]	; (8003ee4 <_dtoa_r+0x644>)
 8003bd8:	f00a 030f 	and.w	r3, sl, #15
 8003bdc:	eb02 03c3 	add.w	r3, r2, r3, lsl #3
 8003be0:	ed93 7b00 	vldr	d7, [r3]
 8003be4:	f41a 7f80 	tst.w	sl, #256	; 0x100
 8003be8:	ea4f 172a 	mov.w	r7, sl, asr #4
 8003bec:	eeb0 8a47 	vmov.f32	s16, s14
 8003bf0:	eef0 8a67 	vmov.f32	s17, s15
 8003bf4:	d016      	beq.n	8003c24 <_dtoa_r+0x384>
 8003bf6:	4bbc      	ldr	r3, [pc, #752]	; (8003ee8 <_dtoa_r+0x648>)
 8003bf8:	e9dd 010a 	ldrd	r0, r1, [sp, #40]	; 0x28
 8003bfc:	e9d3 2308 	ldrd	r2, r3, [r3, #32]
 8003c00:	f7fc fe44 	bl	800088c <__aeabi_ddiv>
 8003c04:	e9cd 0102 	strd	r0, r1, [sp, #8]
 8003c08:	f007 070f 	and.w	r7, r7, #15
 8003c0c:	2503      	movs	r5, #3
 8003c0e:	4eb6      	ldr	r6, [pc, #728]	; (8003ee8 <_dtoa_r+0x648>)
 8003c10:	b957      	cbnz	r7, 8003c28 <_dtoa_r+0x388>
 8003c12:	e9dd 0102 	ldrd	r0, r1, [sp, #8]
 8003c16:	ec53 2b18 	vmov	r2, r3, d8
 8003c1a:	f7fc fe37 	bl	800088c <__aeabi_ddiv>
 8003c1e:	e9cd 0102 	strd	r0, r1, [sp, #8]
 8003c22:	e029      	b.n	8003c78 <_dtoa_r+0x3d8>
 8003c24:	2502      	movs	r5, #2
 8003c26:	e7f2      	b.n	8003c0e <_dtoa_r+0x36e>
 8003c28:	07f9      	lsls	r1, r7, #31
 8003c2a:	d508      	bpl.n	8003c3e <_dtoa_r+0x39e>
 8003c2c:	ec51 0b18 	vmov	r0, r1, d8
 8003c30:	e9d6 2300 	ldrd	r2, r3, [r6]
 8003c34:	f7fc fd00 	bl	8000638 <__aeabi_dmul>
 8003c38:	ec41 0b18 	vmov	d8, r0, r1
 8003c3c:	3501      	adds	r5, #1
 8003c3e:	107f      	asrs	r7, r7, #1
 8003c40:	3608      	adds	r6, #8
 8003c42:	e7e5      	b.n	8003c10 <_dtoa_r+0x370>
 8003c44:	f000 80a6 	beq.w	8003d94 <_dtoa_r+0x4f4>
 8003c48:	f1ca 0600 	rsb	r6, sl, #0
 8003c4c:	4ba5      	ldr	r3, [pc, #660]	; (8003ee4 <_dtoa_r+0x644>)
 8003c4e:	4fa6      	ldr	r7, [pc, #664]	; (8003ee8 <_dtoa_r+0x648>)
 8003c50:	f006 020f 	and.w	r2, r6, #15
 8003c54:	eb03 03c2 	add.w	r3, r3, r2, lsl #3
 8003c58:	e9d3 2300 	ldrd	r2, r3, [r3]
 8003c5c:	e9dd 010a 	ldrd	r0, r1, [sp, #40]	; 0x28
 8003c60:	f7fc fcea 	bl	8000638 <__aeabi_dmul>
 8003c64:	e9cd 0102 	strd	r0, r1, [sp, #8]
 8003c68:	1136      	asrs	r6, r6, #4
 8003c6a:	2300      	movs	r3, #0
 8003c6c:	2502      	movs	r5, #2
 8003c6e:	2e00      	cmp	r6, #0
 8003c70:	f040 8085 	bne.w	8003d7e <_dtoa_r+0x4de>
 8003c74:	2b00      	cmp	r3, #0
 8003c76:	d1d2      	bne.n	8003c1e <_dtoa_r+0x37e>
 8003c78:	9b0e      	ldr	r3, [sp, #56]	; 0x38
 8003c7a:	2b00      	cmp	r3, #0
 8003c7c:	f000 808c 	beq.w	8003d98 <_dtoa_r+0x4f8>
 8003c80:	e9dd 6702 	ldrd	r6, r7, [sp, #8]
 8003c84:	4b99      	ldr	r3, [pc, #612]	; (8003eec <_dtoa_r+0x64c>)
 8003c86:	2200      	movs	r2, #0
 8003c88:	4630      	mov	r0, r6
 8003c8a:	4639      	mov	r1, r7
 8003c8c:	f7fc ff46 	bl	8000b1c <__aeabi_dcmplt>
 8003c90:	2800      	cmp	r0, #0
 8003c92:	f000 8081 	beq.w	8003d98 <_dtoa_r+0x4f8>
 8003c96:	9b01      	ldr	r3, [sp, #4]
 8003c98:	2b00      	cmp	r3, #0
 8003c9a:	d07d      	beq.n	8003d98 <_dtoa_r+0x4f8>
 8003c9c:	f1b9 0f00 	cmp.w	r9, #0
 8003ca0:	dd3c      	ble.n	8003d1c <_dtoa_r+0x47c>
 8003ca2:	f10a 33ff 	add.w	r3, sl, #4294967295	; 0xffffffff
 8003ca6:	9307      	str	r3, [sp, #28]
 8003ca8:	2200      	movs	r2, #0
 8003caa:	4b91      	ldr	r3, [pc, #580]	; (8003ef0 <_dtoa_r+0x650>)
 8003cac:	4630      	mov	r0, r6
 8003cae:	4639      	mov	r1, r7
 8003cb0:	f7fc fcc2 	bl	8000638 <__aeabi_dmul>
 8003cb4:	e9cd 0102 	strd	r0, r1, [sp, #8]
 8003cb8:	3501      	adds	r5, #1
 8003cba:	f8cd 9030 	str.w	r9, [sp, #48]	; 0x30
 8003cbe:	e9dd 6702 	ldrd	r6, r7, [sp, #8]
 8003cc2:	4628      	mov	r0, r5
 8003cc4:	f7fc fc4e 	bl	8000564 <__aeabi_i2d>
 8003cc8:	4632      	mov	r2, r6
 8003cca:	463b      	mov	r3, r7
 8003ccc:	f7fc fcb4 	bl	8000638 <__aeabi_dmul>
 8003cd0:	4b88      	ldr	r3, [pc, #544]	; (8003ef4 <_dtoa_r+0x654>)
 8003cd2:	2200      	movs	r2, #0
 8003cd4:	f7fc fafa 	bl	80002cc <__adddf3>
 8003cd8:	f1a1 7350 	sub.w	r3, r1, #54525952	; 0x3400000
 8003cdc:	e9cd 0102 	strd	r0, r1, [sp, #8]
 8003ce0:	9303      	str	r3, [sp, #12]
 8003ce2:	9b0c      	ldr	r3, [sp, #48]	; 0x30
 8003ce4:	2b00      	cmp	r3, #0
 8003ce6:	d15c      	bne.n	8003da2 <_dtoa_r+0x502>
 8003ce8:	4b83      	ldr	r3, [pc, #524]	; (8003ef8 <_dtoa_r+0x658>)
 8003cea:	2200      	movs	r2, #0
 8003cec:	4630      	mov	r0, r6
 8003cee:	4639      	mov	r1, r7
 8003cf0:	f7fc faea 	bl	80002c8 <__aeabi_dsub>
 8003cf4:	e9dd 2302 	ldrd	r2, r3, [sp, #8]
 8003cf8:	4606      	mov	r6, r0
 8003cfa:	460f      	mov	r7, r1
 8003cfc:	f7fc ff2c 	bl	8000b58 <__aeabi_dcmpgt>
 8003d00:	2800      	cmp	r0, #0
 8003d02:	f040 8296 	bne.w	8004232 <_dtoa_r+0x992>
 8003d06:	e9dd 2102 	ldrd	r2, r1, [sp, #8]
 8003d0a:	4630      	mov	r0, r6
 8003d0c:	f101 4300 	add.w	r3, r1, #2147483648	; 0x80000000
 8003d10:	4639      	mov	r1, r7
 8003d12:	f7fc ff03 	bl	8000b1c <__aeabi_dcmplt>
 8003d16:	2800      	cmp	r0, #0
 8003d18:	f040 8288 	bne.w	800422c <_dtoa_r+0x98c>
 8003d1c:	e9dd 230a 	ldrd	r2, r3, [sp, #40]	; 0x28
 8003d20:	e9cd 2302 	strd	r2, r3, [sp, #8]
 8003d24:	9b13      	ldr	r3, [sp, #76]	; 0x4c
 8003d26:	2b00      	cmp	r3, #0
 8003d28:	f2c0 8158 	blt.w	8003fdc <_dtoa_r+0x73c>
 8003d2c:	f1ba 0f0e 	cmp.w	sl, #14
 8003d30:	f300 8154 	bgt.w	8003fdc <_dtoa_r+0x73c>
 8003d34:	4b6b      	ldr	r3, [pc, #428]	; (8003ee4 <_dtoa_r+0x644>)
 8003d36:	eb03 03ca 	add.w	r3, r3, sl, lsl #3
 8003d3a:	e9d3 8900 	ldrd	r8, r9, [r3]
 8003d3e:	9b09      	ldr	r3, [sp, #36]	; 0x24
 8003d40:	2b00      	cmp	r3, #0
 8003d42:	f280 80e3 	bge.w	8003f0c <_dtoa_r+0x66c>
 8003d46:	9b01      	ldr	r3, [sp, #4]
 8003d48:	2b00      	cmp	r3, #0
 8003d4a:	f300 80df 	bgt.w	8003f0c <_dtoa_r+0x66c>
 8003d4e:	f040 826d 	bne.w	800422c <_dtoa_r+0x98c>
 8003d52:	4b69      	ldr	r3, [pc, #420]	; (8003ef8 <_dtoa_r+0x658>)
 8003d54:	2200      	movs	r2, #0
 8003d56:	4640      	mov	r0, r8
 8003d58:	4649      	mov	r1, r9
 8003d5a:	f7fc fc6d 	bl	8000638 <__aeabi_dmul>
 8003d5e:	e9dd 2302 	ldrd	r2, r3, [sp, #8]
 8003d62:	f7fc feef 	bl	8000b44 <__aeabi_dcmpge>
 8003d66:	9e01      	ldr	r6, [sp, #4]
 8003d68:	4637      	mov	r7, r6
 8003d6a:	2800      	cmp	r0, #0
 8003d6c:	f040 8243 	bne.w	80041f6 <_dtoa_r+0x956>
 8003d70:	9d00      	ldr	r5, [sp, #0]
 8003d72:	2331      	movs	r3, #49	; 0x31
 8003d74:	f805 3b01 	strb.w	r3, [r5], #1
 8003d78:	f10a 0a01 	add.w	sl, sl, #1
 8003d7c:	e23f      	b.n	80041fe <_dtoa_r+0x95e>
 8003d7e:	07f2      	lsls	r2, r6, #31
 8003d80:	d505      	bpl.n	8003d8e <_dtoa_r+0x4ee>
 8003d82:	e9d7 2300 	ldrd	r2, r3, [r7]
 8003d86:	f7fc fc57 	bl	8000638 <__aeabi_dmul>
 8003d8a:	3501      	adds	r5, #1
 8003d8c:	2301      	movs	r3, #1
 8003d8e:	1076      	asrs	r6, r6, #1
 8003d90:	3708      	adds	r7, #8
 8003d92:	e76c      	b.n	8003c6e <_dtoa_r+0x3ce>
 8003d94:	2502      	movs	r5, #2
 8003d96:	e76f      	b.n	8003c78 <_dtoa_r+0x3d8>
 8003d98:	9b01      	ldr	r3, [sp, #4]
 8003d9a:	f8cd a01c 	str.w	sl, [sp, #28]
 8003d9e:	930c      	str	r3, [sp, #48]	; 0x30
 8003da0:	e78d      	b.n	8003cbe <_dtoa_r+0x41e>
 8003da2:	9900      	ldr	r1, [sp, #0]
 8003da4:	980c      	ldr	r0, [sp, #48]	; 0x30
 8003da6:	9a0c      	ldr	r2, [sp, #48]	; 0x30
 8003da8:	4b4e      	ldr	r3, [pc, #312]	; (8003ee4 <_dtoa_r+0x644>)
 8003daa:	ed9d 7b02 	vldr	d7, [sp, #8]
 8003dae:	4401      	add	r1, r0
 8003db0:	9102      	str	r1, [sp, #8]
 8003db2:	9908      	ldr	r1, [sp, #32]
 8003db4:	eeb0 8a47 	vmov.f32	s16, s14
 8003db8:	eef0 8a67 	vmov.f32	s17, s15
 8003dbc:	eb03 03c2 	add.w	r3, r3, r2, lsl #3
 8003dc0:	e953 2302 	ldrd	r2, r3, [r3, #-8]
 8003dc4:	2900      	cmp	r1, #0
 8003dc6:	d045      	beq.n	8003e54 <_dtoa_r+0x5b4>
 8003dc8:	494c      	ldr	r1, [pc, #304]	; (8003efc <_dtoa_r+0x65c>)
 8003dca:	2000      	movs	r0, #0
 8003dcc:	f7fc fd5e 	bl	800088c <__aeabi_ddiv>
 8003dd0:	ec53 2b18 	vmov	r2, r3, d8
 8003dd4:	f7fc fa78 	bl	80002c8 <__aeabi_dsub>
 8003dd8:	9d00      	ldr	r5, [sp, #0]
 8003dda:	ec41 0b18 	vmov	d8, r0, r1
 8003dde:	4639      	mov	r1, r7
 8003de0:	4630      	mov	r0, r6
 8003de2:	f7fc fed9 	bl	8000b98 <__aeabi_d2iz>
 8003de6:	900c      	str	r0, [sp, #48]	; 0x30
 8003de8:	f7fc fbbc 	bl	8000564 <__aeabi_i2d>
 8003dec:	4602      	mov	r2, r0
 8003dee:	460b      	mov	r3, r1
 8003df0:	4630      	mov	r0, r6
 8003df2:	4639      	mov	r1, r7
 8003df4:	f7fc fa68 	bl	80002c8 <__aeabi_dsub>
 8003df8:	9b0c      	ldr	r3, [sp, #48]	; 0x30
 8003dfa:	3330      	adds	r3, #48	; 0x30
 8003dfc:	f805 3b01 	strb.w	r3, [r5], #1
 8003e00:	ec53 2b18 	vmov	r2, r3, d8
 8003e04:	4606      	mov	r6, r0
 8003e06:	460f      	mov	r7, r1
 8003e08:	f7fc fe88 	bl	8000b1c <__aeabi_dcmplt>
 8003e0c:	2800      	cmp	r0, #0
 8003e0e:	d165      	bne.n	8003edc <_dtoa_r+0x63c>
 8003e10:	4632      	mov	r2, r6
 8003e12:	463b      	mov	r3, r7
 8003e14:	4935      	ldr	r1, [pc, #212]	; (8003eec <_dtoa_r+0x64c>)
 8003e16:	2000      	movs	r0, #0
 8003e18:	f7fc fa56 	bl	80002c8 <__aeabi_dsub>
 8003e1c:	ec53 2b18 	vmov	r2, r3, d8
 8003e20:	f7fc fe7c 	bl	8000b1c <__aeabi_dcmplt>
 8003e24:	2800      	cmp	r0, #0
 8003e26:	f040 80b9 	bne.w	8003f9c <_dtoa_r+0x6fc>
 8003e2a:	9b02      	ldr	r3, [sp, #8]
 8003e2c:	429d      	cmp	r5, r3
 8003e2e:	f43f af75 	beq.w	8003d1c <_dtoa_r+0x47c>
 8003e32:	4b2f      	ldr	r3, [pc, #188]	; (8003ef0 <_dtoa_r+0x650>)
 8003e34:	ec51 0b18 	vmov	r0, r1, d8
 8003e38:	2200      	movs	r2, #0
 8003e3a:	f7fc fbfd 	bl	8000638 <__aeabi_dmul>
 8003e3e:	4b2c      	ldr	r3, [pc, #176]	; (8003ef0 <_dtoa_r+0x650>)
 8003e40:	ec41 0b18 	vmov	d8, r0, r1
 8003e44:	2200      	movs	r2, #0
 8003e46:	4630      	mov	r0, r6
 8003e48:	4639      	mov	r1, r7
 8003e4a:	f7fc fbf5 	bl	8000638 <__aeabi_dmul>
 8003e4e:	4606      	mov	r6, r0
 8003e50:	460f      	mov	r7, r1
 8003e52:	e7c4      	b.n	8003dde <_dtoa_r+0x53e>
 8003e54:	ec51 0b17 	vmov	r0, r1, d7
 8003e58:	f7fc fbee 	bl	8000638 <__aeabi_dmul>
 8003e5c:	9b02      	ldr	r3, [sp, #8]
 8003e5e:	9d00      	ldr	r5, [sp, #0]
 8003e60:	930c      	str	r3, [sp, #48]	; 0x30
 8003e62:	ec41 0b18 	vmov	d8, r0, r1
 8003e66:	4639      	mov	r1, r7
 8003e68:	4630      	mov	r0, r6
 8003e6a:	f7fc fe95 	bl	8000b98 <__aeabi_d2iz>
 8003e6e:	9011      	str	r0, [sp, #68]	; 0x44
 8003e70:	f7fc fb78 	bl	8000564 <__aeabi_i2d>
 8003e74:	4602      	mov	r2, r0
 8003e76:	460b      	mov	r3, r1
 8003e78:	4630      	mov	r0, r6
 8003e7a:	4639      	mov	r1, r7
 8003e7c:	f7fc fa24 	bl	80002c8 <__aeabi_dsub>
 8003e80:	9b11      	ldr	r3, [sp, #68]	; 0x44
 8003e82:	3330      	adds	r3, #48	; 0x30
 8003e84:	f805 3b01 	strb.w	r3, [r5], #1
 8003e88:	9b02      	ldr	r3, [sp, #8]
 8003e8a:	429d      	cmp	r5, r3
 8003e8c:	4606      	mov	r6, r0
 8003e8e:	460f      	mov	r7, r1
 8003e90:	f04f 0200 	mov.w	r2, #0
 8003e94:	d134      	bne.n	8003f00 <_dtoa_r+0x660>
 8003e96:	4b19      	ldr	r3, [pc, #100]	; (8003efc <_dtoa_r+0x65c>)
 8003e98:	ec51 0b18 	vmov	r0, r1, d8
 8003e9c:	f7fc fa16 	bl	80002cc <__adddf3>
 8003ea0:	4602      	mov	r2, r0
 8003ea2:	460b      	mov	r3, r1
 8003ea4:	4630      	mov	r0, r6
 8003ea6:	4639      	mov	r1, r7
 8003ea8:	f7fc fe56 	bl	8000b58 <__aeabi_dcmpgt>
 8003eac:	2800      	cmp	r0, #0
 8003eae:	d175      	bne.n	8003f9c <_dtoa_r+0x6fc>
 8003eb0:	ec53 2b18 	vmov	r2, r3, d8
 8003eb4:	4911      	ldr	r1, [pc, #68]	; (8003efc <_dtoa_r+0x65c>)
 8003eb6:	2000      	movs	r0, #0
 8003eb8:	f7fc fa06 	bl	80002c8 <__aeabi_dsub>
 8003ebc:	4602      	mov	r2, r0
 8003ebe:	460b      	mov	r3, r1
 8003ec0:	4630      	mov	r0, r6
 8003ec2:	4639      	mov	r1, r7
 8003ec4:	f7fc fe2a 	bl	8000b1c <__aeabi_dcmplt>
 8003ec8:	2800      	cmp	r0, #0
 8003eca:	f43f af27 	beq.w	8003d1c <_dtoa_r+0x47c>
 8003ece:	9d0c      	ldr	r5, [sp, #48]	; 0x30
 8003ed0:	1e6b      	subs	r3, r5, #1
 8003ed2:	930c      	str	r3, [sp, #48]	; 0x30
 8003ed4:	f815 3c01 	ldrb.w	r3, [r5, #-1]
 8003ed8:	2b30      	cmp	r3, #48	; 0x30
 8003eda:	d0f8      	beq.n	8003ece <_dtoa_r+0x62e>
 8003edc:	f8dd a01c 	ldr.w	sl, [sp, #28]
 8003ee0:	e04a      	b.n	8003f78 <_dtoa_r+0x6d8>
 8003ee2:	bf00      	nop
 8003ee4:	080060f0 	.word	0x080060f0
 8003ee8:	080060c8 	.word	0x080060c8
 8003eec:	3ff00000 	.word	0x3ff00000
 8003ef0:	40240000 	.word	0x40240000
 8003ef4:	401c0000 	.word	0x401c0000
 8003ef8:	40140000 	.word	0x40140000
 8003efc:	3fe00000 	.word	0x3fe00000
 8003f00:	4baf      	ldr	r3, [pc, #700]	; (80041c0 <_dtoa_r+0x920>)
 8003f02:	f7fc fb99 	bl	8000638 <__aeabi_dmul>
 8003f06:	4606      	mov	r6, r0
 8003f08:	460f      	mov	r7, r1
 8003f0a:	e7ac      	b.n	8003e66 <_dtoa_r+0x5c6>
 8003f0c:	e9dd 6702 	ldrd	r6, r7, [sp, #8]
 8003f10:	9d00      	ldr	r5, [sp, #0]
 8003f12:	4642      	mov	r2, r8
 8003f14:	464b      	mov	r3, r9
 8003f16:	4630      	mov	r0, r6
 8003f18:	4639      	mov	r1, r7
 8003f1a:	f7fc fcb7 	bl	800088c <__aeabi_ddiv>
 8003f1e:	f7fc fe3b 	bl	8000b98 <__aeabi_d2iz>
 8003f22:	9002      	str	r0, [sp, #8]
 8003f24:	f7fc fb1e 	bl	8000564 <__aeabi_i2d>
 8003f28:	4642      	mov	r2, r8
 8003f2a:	464b      	mov	r3, r9
 8003f2c:	f7fc fb84 	bl	8000638 <__aeabi_dmul>
 8003f30:	4602      	mov	r2, r0
 8003f32:	460b      	mov	r3, r1
 8003f34:	4630      	mov	r0, r6
 8003f36:	4639      	mov	r1, r7
 8003f38:	f7fc f9c6 	bl	80002c8 <__aeabi_dsub>
 8003f3c:	9e02      	ldr	r6, [sp, #8]
 8003f3e:	9f01      	ldr	r7, [sp, #4]
 8003f40:	3630      	adds	r6, #48	; 0x30
 8003f42:	f805 6b01 	strb.w	r6, [r5], #1
 8003f46:	9e00      	ldr	r6, [sp, #0]
 8003f48:	1bae      	subs	r6, r5, r6
 8003f4a:	42b7      	cmp	r7, r6
 8003f4c:	4602      	mov	r2, r0
 8003f4e:	460b      	mov	r3, r1
 8003f50:	d137      	bne.n	8003fc2 <_dtoa_r+0x722>
 8003f52:	f7fc f9bb 	bl	80002cc <__adddf3>
 8003f56:	4642      	mov	r2, r8
 8003f58:	464b      	mov	r3, r9
 8003f5a:	4606      	mov	r6, r0
 8003f5c:	460f      	mov	r7, r1
 8003f5e:	f7fc fdfb 	bl	8000b58 <__aeabi_dcmpgt>
 8003f62:	b9c8      	cbnz	r0, 8003f98 <_dtoa_r+0x6f8>
 8003f64:	4642      	mov	r2, r8
 8003f66:	464b      	mov	r3, r9
 8003f68:	4630      	mov	r0, r6
 8003f6a:	4639      	mov	r1, r7
 8003f6c:	f7fc fdcc 	bl	8000b08 <__aeabi_dcmpeq>
 8003f70:	b110      	cbz	r0, 8003f78 <_dtoa_r+0x6d8>
 8003f72:	9b02      	ldr	r3, [sp, #8]
 8003f74:	07d9      	lsls	r1, r3, #31
 8003f76:	d40f      	bmi.n	8003f98 <_dtoa_r+0x6f8>
 8003f78:	4620      	mov	r0, r4
 8003f7a:	4659      	mov	r1, fp
 8003f7c:	f000 fcec 	bl	8004958 <_Bfree>
 8003f80:	2300      	movs	r3, #0
 8003f82:	702b      	strb	r3, [r5, #0]
 8003f84:	9b0f      	ldr	r3, [sp, #60]	; 0x3c
 8003f86:	f10a 0001 	add.w	r0, sl, #1
 8003f8a:	6018      	str	r0, [r3, #0]
 8003f8c:	9b21      	ldr	r3, [sp, #132]	; 0x84
 8003f8e:	2b00      	cmp	r3, #0
 8003f90:	f43f acd8 	beq.w	8003944 <_dtoa_r+0xa4>
 8003f94:	601d      	str	r5, [r3, #0]
 8003f96:	e4d5      	b.n	8003944 <_dtoa_r+0xa4>
 8003f98:	f8cd a01c 	str.w	sl, [sp, #28]
 8003f9c:	462b      	mov	r3, r5
 8003f9e:	461d      	mov	r5, r3
 8003fa0:	f813 2d01 	ldrb.w	r2, [r3, #-1]!
 8003fa4:	2a39      	cmp	r2, #57	; 0x39
 8003fa6:	d108      	bne.n	8003fba <_dtoa_r+0x71a>
 8003fa8:	9a00      	ldr	r2, [sp, #0]
 8003faa:	429a      	cmp	r2, r3
 8003fac:	d1f7      	bne.n	8003f9e <_dtoa_r+0x6fe>
 8003fae:	9a07      	ldr	r2, [sp, #28]
 8003fb0:	9900      	ldr	r1, [sp, #0]
 8003fb2:	3201      	adds	r2, #1
 8003fb4:	9207      	str	r2, [sp, #28]
 8003fb6:	2230      	movs	r2, #48	; 0x30
 8003fb8:	700a      	strb	r2, [r1, #0]
 8003fba:	781a      	ldrb	r2, [r3, #0]
 8003fbc:	3201      	adds	r2, #1
 8003fbe:	701a      	strb	r2, [r3, #0]
 8003fc0:	e78c      	b.n	8003edc <_dtoa_r+0x63c>
 8003fc2:	4b7f      	ldr	r3, [pc, #508]	; (80041c0 <_dtoa_r+0x920>)
 8003fc4:	2200      	movs	r2, #0
 8003fc6:	f7fc fb37 	bl	8000638 <__aeabi_dmul>
 8003fca:	2200      	movs	r2, #0
 8003fcc:	2300      	movs	r3, #0
 8003fce:	4606      	mov	r6, r0
 8003fd0:	460f      	mov	r7, r1
 8003fd2:	f7fc fd99 	bl	8000b08 <__aeabi_dcmpeq>
 8003fd6:	2800      	cmp	r0, #0
 8003fd8:	d09b      	beq.n	8003f12 <_dtoa_r+0x672>
 8003fda:	e7cd      	b.n	8003f78 <_dtoa_r+0x6d8>
 8003fdc:	9a08      	ldr	r2, [sp, #32]
 8003fde:	2a00      	cmp	r2, #0
 8003fe0:	f000 80c4 	beq.w	800416c <_dtoa_r+0x8cc>
 8003fe4:	9a05      	ldr	r2, [sp, #20]
 8003fe6:	2a01      	cmp	r2, #1
 8003fe8:	f300 80a8 	bgt.w	800413c <_dtoa_r+0x89c>
 8003fec:	9a10      	ldr	r2, [sp, #64]	; 0x40
 8003fee:	2a00      	cmp	r2, #0
 8003ff0:	f000 80a0 	beq.w	8004134 <_dtoa_r+0x894>
 8003ff4:	f203 4333 	addw	r3, r3, #1075	; 0x433
 8003ff8:	9e06      	ldr	r6, [sp, #24]
 8003ffa:	4645      	mov	r5, r8
 8003ffc:	9a04      	ldr	r2, [sp, #16]
 8003ffe:	2101      	movs	r1, #1
 8004000:	441a      	add	r2, r3
 8004002:	4620      	mov	r0, r4
 8004004:	4498      	add	r8, r3
 8004006:	9204      	str	r2, [sp, #16]
 8004008:	f000 fd62 	bl	8004ad0 <__i2b>
 800400c:	4607      	mov	r7, r0
 800400e:	2d00      	cmp	r5, #0
 8004010:	dd0b      	ble.n	800402a <_dtoa_r+0x78a>
 8004012:	9b04      	ldr	r3, [sp, #16]
 8004014:	2b00      	cmp	r3, #0
 8004016:	dd08      	ble.n	800402a <_dtoa_r+0x78a>
 8004018:	42ab      	cmp	r3, r5
 800401a:	9a04      	ldr	r2, [sp, #16]
 800401c:	bfa8      	it	ge
 800401e:	462b      	movge	r3, r5
 8004020:	eba8 0803 	sub.w	r8, r8, r3
 8004024:	1aed      	subs	r5, r5, r3
 8004026:	1ad3      	subs	r3, r2, r3
 8004028:	9304      	str	r3, [sp, #16]
 800402a:	9b06      	ldr	r3, [sp, #24]
 800402c:	b1fb      	cbz	r3, 800406e <_dtoa_r+0x7ce>
 800402e:	9b08      	ldr	r3, [sp, #32]
 8004030:	2b00      	cmp	r3, #0
 8004032:	f000 809f 	beq.w	8004174 <_dtoa_r+0x8d4>
 8004036:	2e00      	cmp	r6, #0
 8004038:	dd11      	ble.n	800405e <_dtoa_r+0x7be>
 800403a:	4639      	mov	r1, r7
 800403c:	4632      	mov	r2, r6
 800403e:	4620      	mov	r0, r4
 8004040:	f000 fe02 	bl	8004c48 <__pow5mult>
 8004044:	465a      	mov	r2, fp
 8004046:	4601      	mov	r1, r0
 8004048:	4607      	mov	r7, r0
 800404a:	4620      	mov	r0, r4
 800404c:	f000 fd56 	bl	8004afc <__multiply>
 8004050:	4659      	mov	r1, fp
 8004052:	9007      	str	r0, [sp, #28]
 8004054:	4620      	mov	r0, r4
 8004056:	f000 fc7f 	bl	8004958 <_Bfree>
 800405a:	9b07      	ldr	r3, [sp, #28]
 800405c:	469b      	mov	fp, r3
 800405e:	9b06      	ldr	r3, [sp, #24]
 8004060:	1b9a      	subs	r2, r3, r6
 8004062:	d004      	beq.n	800406e <_dtoa_r+0x7ce>
 8004064:	4659      	mov	r1, fp
 8004066:	4620      	mov	r0, r4
 8004068:	f000 fdee 	bl	8004c48 <__pow5mult>
 800406c:	4683      	mov	fp, r0
 800406e:	2101      	movs	r1, #1
 8004070:	4620      	mov	r0, r4
 8004072:	f000 fd2d 	bl	8004ad0 <__i2b>
 8004076:	9b0d      	ldr	r3, [sp, #52]	; 0x34
 8004078:	2b00      	cmp	r3, #0
 800407a:	4606      	mov	r6, r0
 800407c:	dd7c      	ble.n	8004178 <_dtoa_r+0x8d8>
 800407e:	461a      	mov	r2, r3
 8004080:	4601      	mov	r1, r0
 8004082:	4620      	mov	r0, r4
 8004084:	f000 fde0 	bl	8004c48 <__pow5mult>
 8004088:	9b05      	ldr	r3, [sp, #20]
 800408a:	2b01      	cmp	r3, #1
 800408c:	4606      	mov	r6, r0
 800408e:	dd76      	ble.n	800417e <_dtoa_r+0x8de>
 8004090:	2300      	movs	r3, #0
 8004092:	9306      	str	r3, [sp, #24]
 8004094:	6933      	ldr	r3, [r6, #16]
 8004096:	eb06 0383 	add.w	r3, r6, r3, lsl #2
 800409a:	6918      	ldr	r0, [r3, #16]
 800409c:	f000 fcc8 	bl	8004a30 <__hi0bits>
 80040a0:	f1c0 0020 	rsb	r0, r0, #32
 80040a4:	9b04      	ldr	r3, [sp, #16]
 80040a6:	4418      	add	r0, r3
 80040a8:	f010 001f 	ands.w	r0, r0, #31
 80040ac:	f000 8086 	beq.w	80041bc <_dtoa_r+0x91c>
 80040b0:	f1c0 0320 	rsb	r3, r0, #32
 80040b4:	2b04      	cmp	r3, #4
 80040b6:	dd7f      	ble.n	80041b8 <_dtoa_r+0x918>
 80040b8:	f1c0 001c 	rsb	r0, r0, #28
 80040bc:	9b04      	ldr	r3, [sp, #16]
 80040be:	4403      	add	r3, r0
 80040c0:	4480      	add	r8, r0
 80040c2:	4405      	add	r5, r0
 80040c4:	9304      	str	r3, [sp, #16]
 80040c6:	f1b8 0f00 	cmp.w	r8, #0
 80040ca:	dd05      	ble.n	80040d8 <_dtoa_r+0x838>
 80040cc:	4659      	mov	r1, fp
 80040ce:	4642      	mov	r2, r8
 80040d0:	4620      	mov	r0, r4
 80040d2:	f000 fe13 	bl	8004cfc <__lshift>
 80040d6:	4683      	mov	fp, r0
 80040d8:	9b04      	ldr	r3, [sp, #16]
 80040da:	2b00      	cmp	r3, #0
 80040dc:	dd05      	ble.n	80040ea <_dtoa_r+0x84a>
 80040de:	4631      	mov	r1, r6
 80040e0:	461a      	mov	r2, r3
 80040e2:	4620      	mov	r0, r4
 80040e4:	f000 fe0a 	bl	8004cfc <__lshift>
 80040e8:	4606      	mov	r6, r0
 80040ea:	9b0e      	ldr	r3, [sp, #56]	; 0x38
 80040ec:	2b00      	cmp	r3, #0
 80040ee:	d069      	beq.n	80041c4 <_dtoa_r+0x924>
 80040f0:	4631      	mov	r1, r6
 80040f2:	4658      	mov	r0, fp
 80040f4:	f000 fe6e 	bl	8004dd4 <__mcmp>
 80040f8:	2800      	cmp	r0, #0
 80040fa:	da63      	bge.n	80041c4 <_dtoa_r+0x924>
 80040fc:	2300      	movs	r3, #0
 80040fe:	4659      	mov	r1, fp
 8004100:	220a      	movs	r2, #10
 8004102:	4620      	mov	r0, r4
 8004104:	f000 fc4a 	bl	800499c <__multadd>
 8004108:	9b08      	ldr	r3, [sp, #32]
 800410a:	f10a 3aff 	add.w	sl, sl, #4294967295	; 0xffffffff
 800410e:	4683      	mov	fp, r0
 8004110:	2b00      	cmp	r3, #0
 8004112:	f000 818f 	beq.w	8004434 <_dtoa_r+0xb94>
 8004116:	4639      	mov	r1, r7
 8004118:	2300      	movs	r3, #0
 800411a:	220a      	movs	r2, #10
 800411c:	4620      	mov	r0, r4
 800411e:	f000 fc3d 	bl	800499c <__multadd>
 8004122:	f1b9 0f00 	cmp.w	r9, #0
 8004126:	4607      	mov	r7, r0
 8004128:	f300 808e 	bgt.w	8004248 <_dtoa_r+0x9a8>
 800412c:	9b05      	ldr	r3, [sp, #20]
 800412e:	2b02      	cmp	r3, #2
 8004130:	dc50      	bgt.n	80041d4 <_dtoa_r+0x934>
 8004132:	e089      	b.n	8004248 <_dtoa_r+0x9a8>
 8004134:	9b12      	ldr	r3, [sp, #72]	; 0x48
 8004136:	f1c3 0336 	rsb	r3, r3, #54	; 0x36
 800413a:	e75d      	b.n	8003ff8 <_dtoa_r+0x758>
 800413c:	9b01      	ldr	r3, [sp, #4]
 800413e:	1e5e      	subs	r6, r3, #1
 8004140:	9b06      	ldr	r3, [sp, #24]
 8004142:	42b3      	cmp	r3, r6
 8004144:	bfbf      	itttt	lt
 8004146:	9b06      	ldrlt	r3, [sp, #24]
 8004148:	9606      	strlt	r6, [sp, #24]
 800414a:	1af2      	sublt	r2, r6, r3
 800414c:	9b0d      	ldrlt	r3, [sp, #52]	; 0x34
 800414e:	bfb6      	itet	lt
 8004150:	189b      	addlt	r3, r3, r2
 8004152:	1b9e      	subge	r6, r3, r6
 8004154:	930d      	strlt	r3, [sp, #52]	; 0x34
 8004156:	9b01      	ldr	r3, [sp, #4]
 8004158:	bfb8      	it	lt
 800415a:	2600      	movlt	r6, #0
 800415c:	2b00      	cmp	r3, #0
 800415e:	bfb5      	itete	lt
 8004160:	eba8 0503 	sublt.w	r5, r8, r3
 8004164:	9b01      	ldrge	r3, [sp, #4]
 8004166:	2300      	movlt	r3, #0
 8004168:	4645      	movge	r5, r8
 800416a:	e747      	b.n	8003ffc <_dtoa_r+0x75c>
 800416c:	9e06      	ldr	r6, [sp, #24]
 800416e:	9f08      	ldr	r7, [sp, #32]
 8004170:	4645      	mov	r5, r8
 8004172:	e74c      	b.n	800400e <_dtoa_r+0x76e>
 8004174:	9a06      	ldr	r2, [sp, #24]
 8004176:	e775      	b.n	8004064 <_dtoa_r+0x7c4>
 8004178:	9b05      	ldr	r3, [sp, #20]
 800417a:	2b01      	cmp	r3, #1
 800417c:	dc18      	bgt.n	80041b0 <_dtoa_r+0x910>
 800417e:	9b02      	ldr	r3, [sp, #8]
 8004180:	b9b3      	cbnz	r3, 80041b0 <_dtoa_r+0x910>
 8004182:	9b03      	ldr	r3, [sp, #12]
 8004184:	f3c3 0313 	ubfx	r3, r3, #0, #20
 8004188:	b9a3      	cbnz	r3, 80041b4 <_dtoa_r+0x914>
 800418a:	9b03      	ldr	r3, [sp, #12]
 800418c:	f023 4300 	bic.w	r3, r3, #2147483648	; 0x80000000
 8004190:	0d1b      	lsrs	r3, r3, #20
 8004192:	051b      	lsls	r3, r3, #20
 8004194:	b12b      	cbz	r3, 80041a2 <_dtoa_r+0x902>
 8004196:	9b04      	ldr	r3, [sp, #16]
 8004198:	3301      	adds	r3, #1
 800419a:	9304      	str	r3, [sp, #16]
 800419c:	f108 0801 	add.w	r8, r8, #1
 80041a0:	2301      	movs	r3, #1
 80041a2:	9306      	str	r3, [sp, #24]
 80041a4:	9b0d      	ldr	r3, [sp, #52]	; 0x34
 80041a6:	2b00      	cmp	r3, #0
 80041a8:	f47f af74 	bne.w	8004094 <_dtoa_r+0x7f4>
 80041ac:	2001      	movs	r0, #1
 80041ae:	e779      	b.n	80040a4 <_dtoa_r+0x804>
 80041b0:	2300      	movs	r3, #0
 80041b2:	e7f6      	b.n	80041a2 <_dtoa_r+0x902>
 80041b4:	9b02      	ldr	r3, [sp, #8]
 80041b6:	e7f4      	b.n	80041a2 <_dtoa_r+0x902>
 80041b8:	d085      	beq.n	80040c6 <_dtoa_r+0x826>
 80041ba:	4618      	mov	r0, r3
 80041bc:	301c      	adds	r0, #28
 80041be:	e77d      	b.n	80040bc <_dtoa_r+0x81c>
 80041c0:	40240000 	.word	0x40240000
 80041c4:	9b01      	ldr	r3, [sp, #4]
 80041c6:	2b00      	cmp	r3, #0
 80041c8:	dc38      	bgt.n	800423c <_dtoa_r+0x99c>
 80041ca:	9b05      	ldr	r3, [sp, #20]
 80041cc:	2b02      	cmp	r3, #2
 80041ce:	dd35      	ble.n	800423c <_dtoa_r+0x99c>
 80041d0:	f8dd 9004 	ldr.w	r9, [sp, #4]
 80041d4:	f1b9 0f00 	cmp.w	r9, #0
 80041d8:	d10d      	bne.n	80041f6 <_dtoa_r+0x956>
 80041da:	4631      	mov	r1, r6
 80041dc:	464b      	mov	r3, r9
 80041de:	2205      	movs	r2, #5
 80041e0:	4620      	mov	r0, r4
 80041e2:	f000 fbdb 	bl	800499c <__multadd>
 80041e6:	4601      	mov	r1, r0
 80041e8:	4606      	mov	r6, r0
 80041ea:	4658      	mov	r0, fp
 80041ec:	f000 fdf2 	bl	8004dd4 <__mcmp>
 80041f0:	2800      	cmp	r0, #0
 80041f2:	f73f adbd 	bgt.w	8003d70 <_dtoa_r+0x4d0>
 80041f6:	9b09      	ldr	r3, [sp, #36]	; 0x24
 80041f8:	9d00      	ldr	r5, [sp, #0]
 80041fa:	ea6f 0a03 	mvn.w	sl, r3
 80041fe:	f04f 0800 	mov.w	r8, #0
 8004202:	4631      	mov	r1, r6
 8004204:	4620      	mov	r0, r4
 8004206:	f000 fba7 	bl	8004958 <_Bfree>
 800420a:	2f00      	cmp	r7, #0
 800420c:	f43f aeb4 	beq.w	8003f78 <_dtoa_r+0x6d8>
 8004210:	f1b8 0f00 	cmp.w	r8, #0
 8004214:	d005      	beq.n	8004222 <_dtoa_r+0x982>
 8004216:	45b8      	cmp	r8, r7
 8004218:	d003      	beq.n	8004222 <_dtoa_r+0x982>
 800421a:	4641      	mov	r1, r8
 800421c:	4620      	mov	r0, r4
 800421e:	f000 fb9b 	bl	8004958 <_Bfree>
 8004222:	4639      	mov	r1, r7
 8004224:	4620      	mov	r0, r4
 8004226:	f000 fb97 	bl	8004958 <_Bfree>
 800422a:	e6a5      	b.n	8003f78 <_dtoa_r+0x6d8>
 800422c:	2600      	movs	r6, #0
 800422e:	4637      	mov	r7, r6
 8004230:	e7e1      	b.n	80041f6 <_dtoa_r+0x956>
 8004232:	9e0c      	ldr	r6, [sp, #48]	; 0x30
 8004234:	f8dd a01c 	ldr.w	sl, [sp, #28]
 8004238:	4637      	mov	r7, r6
 800423a:	e599      	b.n	8003d70 <_dtoa_r+0x4d0>
 800423c:	9b08      	ldr	r3, [sp, #32]
 800423e:	f8dd 9004 	ldr.w	r9, [sp, #4]
 8004242:	2b00      	cmp	r3, #0
 8004244:	f000 80fd 	beq.w	8004442 <_dtoa_r+0xba2>
 8004248:	2d00      	cmp	r5, #0
 800424a:	dd05      	ble.n	8004258 <_dtoa_r+0x9b8>
 800424c:	4639      	mov	r1, r7
 800424e:	462a      	mov	r2, r5
 8004250:	4620      	mov	r0, r4
 8004252:	f000 fd53 	bl	8004cfc <__lshift>
 8004256:	4607      	mov	r7, r0
 8004258:	9b06      	ldr	r3, [sp, #24]
 800425a:	2b00      	cmp	r3, #0
 800425c:	d05c      	beq.n	8004318 <_dtoa_r+0xa78>
 800425e:	6879      	ldr	r1, [r7, #4]
 8004260:	4620      	mov	r0, r4
 8004262:	f000 fb39 	bl	80048d8 <_Balloc>
 8004266:	4605      	mov	r5, r0
 8004268:	b928      	cbnz	r0, 8004276 <_dtoa_r+0x9d6>
 800426a:	4b80      	ldr	r3, [pc, #512]	; (800446c <_dtoa_r+0xbcc>)
 800426c:	4602      	mov	r2, r0
 800426e:	f240 21ea 	movw	r1, #746	; 0x2ea
 8004272:	f7ff bb2e 	b.w	80038d2 <_dtoa_r+0x32>
 8004276:	693a      	ldr	r2, [r7, #16]
 8004278:	3202      	adds	r2, #2
 800427a:	0092      	lsls	r2, r2, #2
 800427c:	f107 010c 	add.w	r1, r7, #12
 8004280:	300c      	adds	r0, #12
 8004282:	f7fe fbe9 	bl	8002a58 <memcpy>
 8004286:	2201      	movs	r2, #1
 8004288:	4629      	mov	r1, r5
 800428a:	4620      	mov	r0, r4
 800428c:	f000 fd36 	bl	8004cfc <__lshift>
 8004290:	9b00      	ldr	r3, [sp, #0]
 8004292:	3301      	adds	r3, #1
 8004294:	9301      	str	r3, [sp, #4]
 8004296:	9b00      	ldr	r3, [sp, #0]
 8004298:	444b      	add	r3, r9
 800429a:	9307      	str	r3, [sp, #28]
 800429c:	9b02      	ldr	r3, [sp, #8]
 800429e:	f003 0301 	and.w	r3, r3, #1
 80042a2:	46b8      	mov	r8, r7
 80042a4:	9306      	str	r3, [sp, #24]
 80042a6:	4607      	mov	r7, r0
 80042a8:	9b01      	ldr	r3, [sp, #4]
 80042aa:	4631      	mov	r1, r6
 80042ac:	3b01      	subs	r3, #1
 80042ae:	4658      	mov	r0, fp
 80042b0:	9302      	str	r3, [sp, #8]
 80042b2:	f7ff fa69 	bl	8003788 <quorem>
 80042b6:	4603      	mov	r3, r0
 80042b8:	3330      	adds	r3, #48	; 0x30
 80042ba:	9004      	str	r0, [sp, #16]
 80042bc:	4641      	mov	r1, r8
 80042be:	4658      	mov	r0, fp
 80042c0:	9308      	str	r3, [sp, #32]
 80042c2:	f000 fd87 	bl	8004dd4 <__mcmp>
 80042c6:	463a      	mov	r2, r7
 80042c8:	4681      	mov	r9, r0
 80042ca:	4631      	mov	r1, r6
 80042cc:	4620      	mov	r0, r4
 80042ce:	f000 fd9d 	bl	8004e0c <__mdiff>
 80042d2:	68c2      	ldr	r2, [r0, #12]
 80042d4:	9b08      	ldr	r3, [sp, #32]
 80042d6:	4605      	mov	r5, r0
 80042d8:	bb02      	cbnz	r2, 800431c <_dtoa_r+0xa7c>
 80042da:	4601      	mov	r1, r0
 80042dc:	4658      	mov	r0, fp
 80042de:	f000 fd79 	bl	8004dd4 <__mcmp>
 80042e2:	9b08      	ldr	r3, [sp, #32]
 80042e4:	4602      	mov	r2, r0
 80042e6:	4629      	mov	r1, r5
 80042e8:	4620      	mov	r0, r4
 80042ea:	e9cd 3208 	strd	r3, r2, [sp, #32]
 80042ee:	f000 fb33 	bl	8004958 <_Bfree>
 80042f2:	9b05      	ldr	r3, [sp, #20]
 80042f4:	9a09      	ldr	r2, [sp, #36]	; 0x24
 80042f6:	9d01      	ldr	r5, [sp, #4]
 80042f8:	ea43 0102 	orr.w	r1, r3, r2
 80042fc:	9b06      	ldr	r3, [sp, #24]
 80042fe:	430b      	orrs	r3, r1
 8004300:	9b08      	ldr	r3, [sp, #32]
 8004302:	d10d      	bne.n	8004320 <_dtoa_r+0xa80>
 8004304:	2b39      	cmp	r3, #57	; 0x39
 8004306:	d029      	beq.n	800435c <_dtoa_r+0xabc>
 8004308:	f1b9 0f00 	cmp.w	r9, #0
 800430c:	dd01      	ble.n	8004312 <_dtoa_r+0xa72>
 800430e:	9b04      	ldr	r3, [sp, #16]
 8004310:	3331      	adds	r3, #49	; 0x31
 8004312:	9a02      	ldr	r2, [sp, #8]
 8004314:	7013      	strb	r3, [r2, #0]
 8004316:	e774      	b.n	8004202 <_dtoa_r+0x962>
 8004318:	4638      	mov	r0, r7
 800431a:	e7b9      	b.n	8004290 <_dtoa_r+0x9f0>
 800431c:	2201      	movs	r2, #1
 800431e:	e7e2      	b.n	80042e6 <_dtoa_r+0xa46>
 8004320:	f1b9 0f00 	cmp.w	r9, #0
 8004324:	db06      	blt.n	8004334 <_dtoa_r+0xa94>
 8004326:	9905      	ldr	r1, [sp, #20]
 8004328:	ea41 0909 	orr.w	r9, r1, r9
 800432c:	9906      	ldr	r1, [sp, #24]
 800432e:	ea59 0101 	orrs.w	r1, r9, r1
 8004332:	d120      	bne.n	8004376 <_dtoa_r+0xad6>
 8004334:	2a00      	cmp	r2, #0
 8004336:	ddec      	ble.n	8004312 <_dtoa_r+0xa72>
 8004338:	4659      	mov	r1, fp
 800433a:	2201      	movs	r2, #1
 800433c:	4620      	mov	r0, r4
 800433e:	9301      	str	r3, [sp, #4]
 8004340:	f000 fcdc 	bl	8004cfc <__lshift>
 8004344:	4631      	mov	r1, r6
 8004346:	4683      	mov	fp, r0
 8004348:	f000 fd44 	bl	8004dd4 <__mcmp>
 800434c:	2800      	cmp	r0, #0
 800434e:	9b01      	ldr	r3, [sp, #4]
 8004350:	dc02      	bgt.n	8004358 <_dtoa_r+0xab8>
 8004352:	d1de      	bne.n	8004312 <_dtoa_r+0xa72>
 8004354:	07da      	lsls	r2, r3, #31
 8004356:	d5dc      	bpl.n	8004312 <_dtoa_r+0xa72>
 8004358:	2b39      	cmp	r3, #57	; 0x39
 800435a:	d1d8      	bne.n	800430e <_dtoa_r+0xa6e>
 800435c:	9a02      	ldr	r2, [sp, #8]
 800435e:	2339      	movs	r3, #57	; 0x39
 8004360:	7013      	strb	r3, [r2, #0]
 8004362:	462b      	mov	r3, r5
 8004364:	461d      	mov	r5, r3
 8004366:	3b01      	subs	r3, #1
 8004368:	f815 2c01 	ldrb.w	r2, [r5, #-1]
 800436c:	2a39      	cmp	r2, #57	; 0x39
 800436e:	d050      	beq.n	8004412 <_dtoa_r+0xb72>
 8004370:	3201      	adds	r2, #1
 8004372:	701a      	strb	r2, [r3, #0]
 8004374:	e745      	b.n	8004202 <_dtoa_r+0x962>
 8004376:	2a00      	cmp	r2, #0
 8004378:	dd03      	ble.n	8004382 <_dtoa_r+0xae2>
 800437a:	2b39      	cmp	r3, #57	; 0x39
 800437c:	d0ee      	beq.n	800435c <_dtoa_r+0xabc>
 800437e:	3301      	adds	r3, #1
 8004380:	e7c7      	b.n	8004312 <_dtoa_r+0xa72>
 8004382:	9a01      	ldr	r2, [sp, #4]
 8004384:	9907      	ldr	r1, [sp, #28]
 8004386:	f802 3c01 	strb.w	r3, [r2, #-1]
 800438a:	428a      	cmp	r2, r1
 800438c:	d02a      	beq.n	80043e4 <_dtoa_r+0xb44>
 800438e:	4659      	mov	r1, fp
 8004390:	2300      	movs	r3, #0
 8004392:	220a      	movs	r2, #10
 8004394:	4620      	mov	r0, r4
 8004396:	f000 fb01 	bl	800499c <__multadd>
 800439a:	45b8      	cmp	r8, r7
 800439c:	4683      	mov	fp, r0
 800439e:	f04f 0300 	mov.w	r3, #0
 80043a2:	f04f 020a 	mov.w	r2, #10
 80043a6:	4641      	mov	r1, r8
 80043a8:	4620      	mov	r0, r4
 80043aa:	d107      	bne.n	80043bc <_dtoa_r+0xb1c>
 80043ac:	f000 faf6 	bl	800499c <__multadd>
 80043b0:	4680      	mov	r8, r0
 80043b2:	4607      	mov	r7, r0
 80043b4:	9b01      	ldr	r3, [sp, #4]
 80043b6:	3301      	adds	r3, #1
 80043b8:	9301      	str	r3, [sp, #4]
 80043ba:	e775      	b.n	80042a8 <_dtoa_r+0xa08>
 80043bc:	f000 faee 	bl	800499c <__multadd>
 80043c0:	4639      	mov	r1, r7
 80043c2:	4680      	mov	r8, r0
 80043c4:	2300      	movs	r3, #0
 80043c6:	220a      	movs	r2, #10
 80043c8:	4620      	mov	r0, r4
 80043ca:	f000 fae7 	bl	800499c <__multadd>
 80043ce:	4607      	mov	r7, r0
 80043d0:	e7f0      	b.n	80043b4 <_dtoa_r+0xb14>
 80043d2:	f1b9 0f00 	cmp.w	r9, #0
 80043d6:	9a00      	ldr	r2, [sp, #0]
 80043d8:	bfcc      	ite	gt
 80043da:	464d      	movgt	r5, r9
 80043dc:	2501      	movle	r5, #1
 80043de:	4415      	add	r5, r2
 80043e0:	f04f 0800 	mov.w	r8, #0
 80043e4:	4659      	mov	r1, fp
 80043e6:	2201      	movs	r2, #1
 80043e8:	4620      	mov	r0, r4
 80043ea:	9301      	str	r3, [sp, #4]
 80043ec:	f000 fc86 	bl	8004cfc <__lshift>
 80043f0:	4631      	mov	r1, r6
 80043f2:	4683      	mov	fp, r0
 80043f4:	f000 fcee 	bl	8004dd4 <__mcmp>
 80043f8:	2800      	cmp	r0, #0
 80043fa:	dcb2      	bgt.n	8004362 <_dtoa_r+0xac2>
 80043fc:	d102      	bne.n	8004404 <_dtoa_r+0xb64>
 80043fe:	9b01      	ldr	r3, [sp, #4]
 8004400:	07db      	lsls	r3, r3, #31
 8004402:	d4ae      	bmi.n	8004362 <_dtoa_r+0xac2>
 8004404:	462b      	mov	r3, r5
 8004406:	461d      	mov	r5, r3
 8004408:	f813 2d01 	ldrb.w	r2, [r3, #-1]!
 800440c:	2a30      	cmp	r2, #48	; 0x30
 800440e:	d0fa      	beq.n	8004406 <_dtoa_r+0xb66>
 8004410:	e6f7      	b.n	8004202 <_dtoa_r+0x962>
 8004412:	9a00      	ldr	r2, [sp, #0]
 8004414:	429a      	cmp	r2, r3
 8004416:	d1a5      	bne.n	8004364 <_dtoa_r+0xac4>
 8004418:	f10a 0a01 	add.w	sl, sl, #1
 800441c:	2331      	movs	r3, #49	; 0x31
 800441e:	e779      	b.n	8004314 <_dtoa_r+0xa74>
 8004420:	4b13      	ldr	r3, [pc, #76]	; (8004470 <_dtoa_r+0xbd0>)
 8004422:	f7ff baaf 	b.w	8003984 <_dtoa_r+0xe4>
 8004426:	9b21      	ldr	r3, [sp, #132]	; 0x84
 8004428:	2b00      	cmp	r3, #0
 800442a:	f47f aa86 	bne.w	800393a <_dtoa_r+0x9a>
 800442e:	4b11      	ldr	r3, [pc, #68]	; (8004474 <_dtoa_r+0xbd4>)
 8004430:	f7ff baa8 	b.w	8003984 <_dtoa_r+0xe4>
 8004434:	f1b9 0f00 	cmp.w	r9, #0
 8004438:	dc03      	bgt.n	8004442 <_dtoa_r+0xba2>
 800443a:	9b05      	ldr	r3, [sp, #20]
 800443c:	2b02      	cmp	r3, #2
 800443e:	f73f aec9 	bgt.w	80041d4 <_dtoa_r+0x934>
 8004442:	9d00      	ldr	r5, [sp, #0]
 8004444:	4631      	mov	r1, r6
 8004446:	4658      	mov	r0, fp
 8004448:	f7ff f99e 	bl	8003788 <quorem>
 800444c:	f100 0330 	add.w	r3, r0, #48	; 0x30
 8004450:	f805 3b01 	strb.w	r3, [r5], #1
 8004454:	9a00      	ldr	r2, [sp, #0]
 8004456:	1aaa      	subs	r2, r5, r2
 8004458:	4591      	cmp	r9, r2
 800445a:	ddba      	ble.n	80043d2 <_dtoa_r+0xb32>
 800445c:	4659      	mov	r1, fp
 800445e:	2300      	movs	r3, #0
 8004460:	220a      	movs	r2, #10
 8004462:	4620      	mov	r0, r4
 8004464:	f000 fa9a 	bl	800499c <__multadd>
 8004468:	4683      	mov	fp, r0
 800446a:	e7eb      	b.n	8004444 <_dtoa_r+0xba4>
 800446c:	08005ff7 	.word	0x08005ff7
 8004470:	08005f50 	.word	0x08005f50
 8004474:	08005f74 	.word	0x08005f74

08004478 <__sflush_r>:
 8004478:	898a      	ldrh	r2, [r1, #12]
 800447a:	e92d 41f0 	stmdb	sp!, {r4, r5, r6, r7, r8, lr}
 800447e:	4605      	mov	r5, r0
 8004480:	0710      	lsls	r0, r2, #28
 8004482:	460c      	mov	r4, r1
 8004484:	d458      	bmi.n	8004538 <__sflush_r+0xc0>
 8004486:	684b      	ldr	r3, [r1, #4]
 8004488:	2b00      	cmp	r3, #0
 800448a:	dc05      	bgt.n	8004498 <__sflush_r+0x20>
 800448c:	6c0b      	ldr	r3, [r1, #64]	; 0x40
 800448e:	2b00      	cmp	r3, #0
 8004490:	dc02      	bgt.n	8004498 <__sflush_r+0x20>
 8004492:	2000      	movs	r0, #0
 8004494:	e8bd 81f0 	ldmia.w	sp!, {r4, r5, r6, r7, r8, pc}
 8004498:	6ae6      	ldr	r6, [r4, #44]	; 0x2c
 800449a:	2e00      	cmp	r6, #0
 800449c:	d0f9      	beq.n	8004492 <__sflush_r+0x1a>
 800449e:	2300      	movs	r3, #0
 80044a0:	f412 5280 	ands.w	r2, r2, #4096	; 0x1000
 80044a4:	682f      	ldr	r7, [r5, #0]
 80044a6:	602b      	str	r3, [r5, #0]
 80044a8:	d032      	beq.n	8004510 <__sflush_r+0x98>
 80044aa:	6d60      	ldr	r0, [r4, #84]	; 0x54
 80044ac:	89a3      	ldrh	r3, [r4, #12]
 80044ae:	075a      	lsls	r2, r3, #29
 80044b0:	d505      	bpl.n	80044be <__sflush_r+0x46>
 80044b2:	6863      	ldr	r3, [r4, #4]
 80044b4:	1ac0      	subs	r0, r0, r3
 80044b6:	6b63      	ldr	r3, [r4, #52]	; 0x34
 80044b8:	b10b      	cbz	r3, 80044be <__sflush_r+0x46>
 80044ba:	6c23      	ldr	r3, [r4, #64]	; 0x40
 80044bc:	1ac0      	subs	r0, r0, r3
 80044be:	2300      	movs	r3, #0
 80044c0:	4602      	mov	r2, r0
 80044c2:	6ae6      	ldr	r6, [r4, #44]	; 0x2c
 80044c4:	6a21      	ldr	r1, [r4, #32]
 80044c6:	4628      	mov	r0, r5
 80044c8:	47b0      	blx	r6
 80044ca:	1c43      	adds	r3, r0, #1
 80044cc:	89a3      	ldrh	r3, [r4, #12]
 80044ce:	d106      	bne.n	80044de <__sflush_r+0x66>
 80044d0:	6829      	ldr	r1, [r5, #0]
 80044d2:	291d      	cmp	r1, #29
 80044d4:	d82c      	bhi.n	8004530 <__sflush_r+0xb8>
 80044d6:	4a2a      	ldr	r2, [pc, #168]	; (8004580 <__sflush_r+0x108>)
 80044d8:	40ca      	lsrs	r2, r1
 80044da:	07d6      	lsls	r6, r2, #31
 80044dc:	d528      	bpl.n	8004530 <__sflush_r+0xb8>
 80044de:	2200      	movs	r2, #0
 80044e0:	6062      	str	r2, [r4, #4]
 80044e2:	04d9      	lsls	r1, r3, #19
 80044e4:	6922      	ldr	r2, [r4, #16]
 80044e6:	6022      	str	r2, [r4, #0]
 80044e8:	d504      	bpl.n	80044f4 <__sflush_r+0x7c>
 80044ea:	1c42      	adds	r2, r0, #1
 80044ec:	d101      	bne.n	80044f2 <__sflush_r+0x7a>
 80044ee:	682b      	ldr	r3, [r5, #0]
 80044f0:	b903      	cbnz	r3, 80044f4 <__sflush_r+0x7c>
 80044f2:	6560      	str	r0, [r4, #84]	; 0x54
 80044f4:	6b61      	ldr	r1, [r4, #52]	; 0x34
 80044f6:	602f      	str	r7, [r5, #0]
 80044f8:	2900      	cmp	r1, #0
 80044fa:	d0ca      	beq.n	8004492 <__sflush_r+0x1a>
 80044fc:	f104 0344 	add.w	r3, r4, #68	; 0x44
 8004500:	4299      	cmp	r1, r3
 8004502:	d002      	beq.n	800450a <__sflush_r+0x92>
 8004504:	4628      	mov	r0, r5
 8004506:	f7fe facd 	bl	8002aa4 <_free_r>
 800450a:	2000      	movs	r0, #0
 800450c:	6360      	str	r0, [r4, #52]	; 0x34
 800450e:	e7c1      	b.n	8004494 <__sflush_r+0x1c>
 8004510:	6a21      	ldr	r1, [r4, #32]
 8004512:	2301      	movs	r3, #1
 8004514:	4628      	mov	r0, r5
 8004516:	47b0      	blx	r6
 8004518:	1c41      	adds	r1, r0, #1
 800451a:	d1c7      	bne.n	80044ac <__sflush_r+0x34>
 800451c:	682b      	ldr	r3, [r5, #0]
 800451e:	2b00      	cmp	r3, #0
 8004520:	d0c4      	beq.n	80044ac <__sflush_r+0x34>
 8004522:	2b1d      	cmp	r3, #29
 8004524:	d001      	beq.n	800452a <__sflush_r+0xb2>
 8004526:	2b16      	cmp	r3, #22
 8004528:	d101      	bne.n	800452e <__sflush_r+0xb6>
 800452a:	602f      	str	r7, [r5, #0]
 800452c:	e7b1      	b.n	8004492 <__sflush_r+0x1a>
 800452e:	89a3      	ldrh	r3, [r4, #12]
 8004530:	f043 0340 	orr.w	r3, r3, #64	; 0x40
 8004534:	81a3      	strh	r3, [r4, #12]
 8004536:	e7ad      	b.n	8004494 <__sflush_r+0x1c>
 8004538:	690f      	ldr	r7, [r1, #16]
 800453a:	2f00      	cmp	r7, #0
 800453c:	d0a9      	beq.n	8004492 <__sflush_r+0x1a>
 800453e:	0793      	lsls	r3, r2, #30
 8004540:	680e      	ldr	r6, [r1, #0]
 8004542:	bf08      	it	eq
 8004544:	694b      	ldreq	r3, [r1, #20]
 8004546:	600f      	str	r7, [r1, #0]
 8004548:	bf18      	it	ne
 800454a:	2300      	movne	r3, #0
 800454c:	eba6 0807 	sub.w	r8, r6, r7
 8004550:	608b      	str	r3, [r1, #8]
 8004552:	f1b8 0f00 	cmp.w	r8, #0
 8004556:	dd9c      	ble.n	8004492 <__sflush_r+0x1a>
 8004558:	6a21      	ldr	r1, [r4, #32]
 800455a:	6aa6      	ldr	r6, [r4, #40]	; 0x28
 800455c:	4643      	mov	r3, r8
 800455e:	463a      	mov	r2, r7
 8004560:	4628      	mov	r0, r5
 8004562:	47b0      	blx	r6
 8004564:	2800      	cmp	r0, #0
 8004566:	dc06      	bgt.n	8004576 <__sflush_r+0xfe>
 8004568:	89a3      	ldrh	r3, [r4, #12]
 800456a:	f043 0340 	orr.w	r3, r3, #64	; 0x40
 800456e:	81a3      	strh	r3, [r4, #12]
 8004570:	f04f 30ff 	mov.w	r0, #4294967295	; 0xffffffff
 8004574:	e78e      	b.n	8004494 <__sflush_r+0x1c>
 8004576:	4407      	add	r7, r0
 8004578:	eba8 0800 	sub.w	r8, r8, r0
 800457c:	e7e9      	b.n	8004552 <__sflush_r+0xda>
 800457e:	bf00      	nop
 8004580:	20400001 	.word	0x20400001

08004584 <_fflush_r>:
 8004584:	b538      	push	{r3, r4, r5, lr}
 8004586:	690b      	ldr	r3, [r1, #16]
 8004588:	4605      	mov	r5, r0
 800458a:	460c      	mov	r4, r1
 800458c:	b913      	cbnz	r3, 8004594 <_fflush_r+0x10>
 800458e:	2500      	movs	r5, #0
 8004590:	4628      	mov	r0, r5
 8004592:	bd38      	pop	{r3, r4, r5, pc}
 8004594:	b118      	cbz	r0, 800459e <_fflush_r+0x1a>
 8004596:	6983      	ldr	r3, [r0, #24]
 8004598:	b90b      	cbnz	r3, 800459e <_fflush_r+0x1a>
 800459a:	f000 f887 	bl	80046ac <__sinit>
 800459e:	4b14      	ldr	r3, [pc, #80]	; (80045f0 <_fflush_r+0x6c>)
 80045a0:	429c      	cmp	r4, r3
 80045a2:	d11b      	bne.n	80045dc <_fflush_r+0x58>
 80045a4:	686c      	ldr	r4, [r5, #4]
 80045a6:	f9b4 300c 	ldrsh.w	r3, [r4, #12]
 80045aa:	2b00      	cmp	r3, #0
 80045ac:	d0ef      	beq.n	800458e <_fflush_r+0xa>
 80045ae:	6e62      	ldr	r2, [r4, #100]	; 0x64
 80045b0:	07d0      	lsls	r0, r2, #31
 80045b2:	d404      	bmi.n	80045be <_fflush_r+0x3a>
 80045b4:	0599      	lsls	r1, r3, #22
 80045b6:	d402      	bmi.n	80045be <_fflush_r+0x3a>
 80045b8:	6da0      	ldr	r0, [r4, #88]	; 0x58
 80045ba:	f000 f91a 	bl	80047f2 <__retarget_lock_acquire_recursive>
 80045be:	4628      	mov	r0, r5
 80045c0:	4621      	mov	r1, r4
 80045c2:	f7ff ff59 	bl	8004478 <__sflush_r>
 80045c6:	6e63      	ldr	r3, [r4, #100]	; 0x64
 80045c8:	07da      	lsls	r2, r3, #31
 80045ca:	4605      	mov	r5, r0
 80045cc:	d4e0      	bmi.n	8004590 <_fflush_r+0xc>
 80045ce:	89a3      	ldrh	r3, [r4, #12]
 80045d0:	059b      	lsls	r3, r3, #22
 80045d2:	d4dd      	bmi.n	8004590 <_fflush_r+0xc>
 80045d4:	6da0      	ldr	r0, [r4, #88]	; 0x58
 80045d6:	f000 f90d 	bl	80047f4 <__retarget_lock_release_recursive>
 80045da:	e7d9      	b.n	8004590 <_fflush_r+0xc>
 80045dc:	4b05      	ldr	r3, [pc, #20]	; (80045f4 <_fflush_r+0x70>)
 80045de:	429c      	cmp	r4, r3
 80045e0:	d101      	bne.n	80045e6 <_fflush_r+0x62>
 80045e2:	68ac      	ldr	r4, [r5, #8]
 80045e4:	e7df      	b.n	80045a6 <_fflush_r+0x22>
 80045e6:	4b04      	ldr	r3, [pc, #16]	; (80045f8 <_fflush_r+0x74>)
 80045e8:	429c      	cmp	r4, r3
 80045ea:	bf08      	it	eq
 80045ec:	68ec      	ldreq	r4, [r5, #12]
 80045ee:	e7da      	b.n	80045a6 <_fflush_r+0x22>
 80045f0:	08006028 	.word	0x08006028
 80045f4:	08006048 	.word	0x08006048
 80045f8:	08006008 	.word	0x08006008

080045fc <std>:
 80045fc:	2300      	movs	r3, #0
 80045fe:	b510      	push	{r4, lr}
 8004600:	4604      	mov	r4, r0
 8004602:	e9c0 3300 	strd	r3, r3, [r0]
 8004606:	e9c0 3304 	strd	r3, r3, [r0, #16]
 800460a:	6083      	str	r3, [r0, #8]
 800460c:	8181      	strh	r1, [r0, #12]
 800460e:	6643      	str	r3, [r0, #100]	; 0x64
 8004610:	81c2      	strh	r2, [r0, #14]
 8004612:	6183      	str	r3, [r0, #24]
 8004614:	4619      	mov	r1, r3
 8004616:	2208      	movs	r2, #8
 8004618:	305c      	adds	r0, #92	; 0x5c
 800461a:	f7fe fa2b 	bl	8002a74 <memset>
 800461e:	4b05      	ldr	r3, [pc, #20]	; (8004634 <std+0x38>)
 8004620:	6263      	str	r3, [r4, #36]	; 0x24
 8004622:	4b05      	ldr	r3, [pc, #20]	; (8004638 <std+0x3c>)
 8004624:	62a3      	str	r3, [r4, #40]	; 0x28
 8004626:	4b05      	ldr	r3, [pc, #20]	; (800463c <std+0x40>)
 8004628:	62e3      	str	r3, [r4, #44]	; 0x2c
 800462a:	4b05      	ldr	r3, [pc, #20]	; (8004640 <std+0x44>)
 800462c:	6224      	str	r4, [r4, #32]
 800462e:	6323      	str	r3, [r4, #48]	; 0x30
 8004630:	bd10      	pop	{r4, pc}
 8004632:	bf00      	nop
 8004634:	08005289 	.word	0x08005289
 8004638:	080052ab 	.word	0x080052ab
 800463c:	080052e3 	.word	0x080052e3
 8004640:	08005307 	.word	0x08005307

08004644 <_cleanup_r>:
 8004644:	4901      	ldr	r1, [pc, #4]	; (800464c <_cleanup_r+0x8>)
 8004646:	f000 b8af 	b.w	80047a8 <_fwalk_reent>
 800464a:	bf00      	nop
 800464c:	08004585 	.word	0x08004585

08004650 <__sfmoreglue>:
 8004650:	b570      	push	{r4, r5, r6, lr}
 8004652:	1e4a      	subs	r2, r1, #1
 8004654:	2568      	movs	r5, #104	; 0x68
 8004656:	4355      	muls	r5, r2
 8004658:	460e      	mov	r6, r1
 800465a:	f105 0174 	add.w	r1, r5, #116	; 0x74
 800465e:	f7fe fa71 	bl	8002b44 <_malloc_r>
 8004662:	4604      	mov	r4, r0
 8004664:	b140      	cbz	r0, 8004678 <__sfmoreglue+0x28>
 8004666:	2100      	movs	r1, #0
 8004668:	e9c0 1600 	strd	r1, r6, [r0]
 800466c:	300c      	adds	r0, #12
 800466e:	60a0      	str	r0, [r4, #8]
 8004670:	f105 0268 	add.w	r2, r5, #104	; 0x68
 8004674:	f7fe f9fe 	bl	8002a74 <memset>
 8004678:	4620      	mov	r0, r4
 800467a:	bd70      	pop	{r4, r5, r6, pc}

0800467c <__sfp_lock_acquire>:
 800467c:	4801      	ldr	r0, [pc, #4]	; (8004684 <__sfp_lock_acquire+0x8>)
 800467e:	f000 b8b8 	b.w	80047f2 <__retarget_lock_acquire_recursive>
 8004682:	bf00      	nop
 8004684:	20000234 	.word	0x20000234

08004688 <__sfp_lock_release>:
 8004688:	4801      	ldr	r0, [pc, #4]	; (8004690 <__sfp_lock_release+0x8>)
 800468a:	f000 b8b3 	b.w	80047f4 <__retarget_lock_release_recursive>
 800468e:	bf00      	nop
 8004690:	20000234 	.word	0x20000234

08004694 <__sinit_lock_acquire>:
 8004694:	4801      	ldr	r0, [pc, #4]	; (800469c <__sinit_lock_acquire+0x8>)
 8004696:	f000 b8ac 	b.w	80047f2 <__retarget_lock_acquire_recursive>
 800469a:	bf00      	nop
 800469c:	2000022f 	.word	0x2000022f

080046a0 <__sinit_lock_release>:
 80046a0:	4801      	ldr	r0, [pc, #4]	; (80046a8 <__sinit_lock_release+0x8>)
 80046a2:	f000 b8a7 	b.w	80047f4 <__retarget_lock_release_recursive>
 80046a6:	bf00      	nop
 80046a8:	2000022f 	.word	0x2000022f

080046ac <__sinit>:
 80046ac:	b510      	push	{r4, lr}
 80046ae:	4604      	mov	r4, r0
 80046b0:	f7ff fff0 	bl	8004694 <__sinit_lock_acquire>
 80046b4:	69a3      	ldr	r3, [r4, #24]
 80046b6:	b11b      	cbz	r3, 80046c0 <__sinit+0x14>
 80046b8:	e8bd 4010 	ldmia.w	sp!, {r4, lr}
 80046bc:	f7ff bff0 	b.w	80046a0 <__sinit_lock_release>
 80046c0:	e9c4 3312 	strd	r3, r3, [r4, #72]	; 0x48
 80046c4:	6523      	str	r3, [r4, #80]	; 0x50
 80046c6:	4b13      	ldr	r3, [pc, #76]	; (8004714 <__sinit+0x68>)
 80046c8:	4a13      	ldr	r2, [pc, #76]	; (8004718 <__sinit+0x6c>)
 80046ca:	681b      	ldr	r3, [r3, #0]
 80046cc:	62a2      	str	r2, [r4, #40]	; 0x28
 80046ce:	42a3      	cmp	r3, r4
 80046d0:	bf04      	itt	eq
 80046d2:	2301      	moveq	r3, #1
 80046d4:	61a3      	streq	r3, [r4, #24]
 80046d6:	4620      	mov	r0, r4
 80046d8:	f000 f820 	bl	800471c <__sfp>
 80046dc:	6060      	str	r0, [r4, #4]
 80046de:	4620      	mov	r0, r4
 80046e0:	f000 f81c 	bl	800471c <__sfp>
 80046e4:	60a0      	str	r0, [r4, #8]
 80046e6:	4620      	mov	r0, r4
 80046e8:	f000 f818 	bl	800471c <__sfp>
 80046ec:	2200      	movs	r2, #0
 80046ee:	60e0      	str	r0, [r4, #12]
 80046f0:	2104      	movs	r1, #4
 80046f2:	6860      	ldr	r0, [r4, #4]
 80046f4:	f7ff ff82 	bl	80045fc <std>
 80046f8:	68a0      	ldr	r0, [r4, #8]
 80046fa:	2201      	movs	r2, #1
 80046fc:	2109      	movs	r1, #9
 80046fe:	f7ff ff7d 	bl	80045fc <std>
 8004702:	68e0      	ldr	r0, [r4, #12]
 8004704:	2202      	movs	r2, #2
 8004706:	2112      	movs	r1, #18
 8004708:	f7ff ff78 	bl	80045fc <std>
 800470c:	2301      	movs	r3, #1
 800470e:	61a3      	str	r3, [r4, #24]
 8004710:	e7d2      	b.n	80046b8 <__sinit+0xc>
 8004712:	bf00      	nop
 8004714:	08005f3c 	.word	0x08005f3c
 8004718:	08004645 	.word	0x08004645

0800471c <__sfp>:
 800471c:	b5f8      	push	{r3, r4, r5, r6, r7, lr}
 800471e:	4607      	mov	r7, r0
 8004720:	f7ff ffac 	bl	800467c <__sfp_lock_acquire>
 8004724:	4b1e      	ldr	r3, [pc, #120]	; (80047a0 <__sfp+0x84>)
 8004726:	681e      	ldr	r6, [r3, #0]
 8004728:	69b3      	ldr	r3, [r6, #24]
 800472a:	b913      	cbnz	r3, 8004732 <__sfp+0x16>
 800472c:	4630      	mov	r0, r6
 800472e:	f7ff ffbd 	bl	80046ac <__sinit>
 8004732:	3648      	adds	r6, #72	; 0x48
 8004734:	e9d6 3401 	ldrd	r3, r4, [r6, #4]
 8004738:	3b01      	subs	r3, #1
 800473a:	d503      	bpl.n	8004744 <__sfp+0x28>
 800473c:	6833      	ldr	r3, [r6, #0]
 800473e:	b30b      	cbz	r3, 8004784 <__sfp+0x68>
 8004740:	6836      	ldr	r6, [r6, #0]
 8004742:	e7f7      	b.n	8004734 <__sfp+0x18>
 8004744:	f9b4 500c 	ldrsh.w	r5, [r4, #12]
 8004748:	b9d5      	cbnz	r5, 8004780 <__sfp+0x64>
 800474a:	4b16      	ldr	r3, [pc, #88]	; (80047a4 <__sfp+0x88>)
 800474c:	60e3      	str	r3, [r4, #12]
 800474e:	f104 0058 	add.w	r0, r4, #88	; 0x58
 8004752:	6665      	str	r5, [r4, #100]	; 0x64
 8004754:	f000 f84c 	bl	80047f0 <__retarget_lock_init_recursive>
 8004758:	f7ff ff96 	bl	8004688 <__sfp_lock_release>
 800475c:	e9c4 5501 	strd	r5, r5, [r4, #4]
 8004760:	e9c4 5504 	strd	r5, r5, [r4, #16]
 8004764:	6025      	str	r5, [r4, #0]
 8004766:	61a5      	str	r5, [r4, #24]
 8004768:	2208      	movs	r2, #8
 800476a:	4629      	mov	r1, r5
 800476c:	f104 005c 	add.w	r0, r4, #92	; 0x5c
 8004770:	f7fe f980 	bl	8002a74 <memset>
 8004774:	e9c4 550d 	strd	r5, r5, [r4, #52]	; 0x34
 8004778:	e9c4 5512 	strd	r5, r5, [r4, #72]	; 0x48
 800477c:	4620      	mov	r0, r4
 800477e:	bdf8      	pop	{r3, r4, r5, r6, r7, pc}
 8004780:	3468      	adds	r4, #104	; 0x68
 8004782:	e7d9      	b.n	8004738 <__sfp+0x1c>
 8004784:	2104      	movs	r1, #4
 8004786:	4638      	mov	r0, r7
 8004788:	f7ff ff62 	bl	8004650 <__sfmoreglue>
 800478c:	4604      	mov	r4, r0
 800478e:	6030      	str	r0, [r6, #0]
 8004790:	2800      	cmp	r0, #0
 8004792:	d1d5      	bne.n	8004740 <__sfp+0x24>
 8004794:	f7ff ff78 	bl	8004688 <__sfp_lock_release>
 8004798:	230c      	movs	r3, #12
 800479a:	603b      	str	r3, [r7, #0]
 800479c:	e7ee      	b.n	800477c <__sfp+0x60>
 800479e:	bf00      	nop
 80047a0:	08005f3c 	.word	0x08005f3c
 80047a4:	ffff0001 	.word	0xffff0001

080047a8 <_fwalk_reent>:
 80047a8:	e92d 43f8 	stmdb	sp!, {r3, r4, r5, r6, r7, r8, r9, lr}
 80047ac:	4606      	mov	r6, r0
 80047ae:	4688      	mov	r8, r1
 80047b0:	f100 0448 	add.w	r4, r0, #72	; 0x48
 80047b4:	2700      	movs	r7, #0
 80047b6:	e9d4 9501 	ldrd	r9, r5, [r4, #4]
 80047ba:	f1b9 0901 	subs.w	r9, r9, #1
 80047be:	d505      	bpl.n	80047cc <_fwalk_reent+0x24>
 80047c0:	6824      	ldr	r4, [r4, #0]
 80047c2:	2c00      	cmp	r4, #0
 80047c4:	d1f7      	bne.n	80047b6 <_fwalk_reent+0xe>
 80047c6:	4638      	mov	r0, r7
 80047c8:	e8bd 83f8 	ldmia.w	sp!, {r3, r4, r5, r6, r7, r8, r9, pc}
 80047cc:	89ab      	ldrh	r3, [r5, #12]
 80047ce:	2b01      	cmp	r3, #1
 80047d0:	d907      	bls.n	80047e2 <_fwalk_reent+0x3a>
 80047d2:	f9b5 300e 	ldrsh.w	r3, [r5, #14]
 80047d6:	3301      	adds	r3, #1
 80047d8:	d003      	beq.n	80047e2 <_fwalk_reent+0x3a>
 80047da:	4629      	mov	r1, r5
 80047dc:	4630      	mov	r0, r6
 80047de:	47c0      	blx	r8
 80047e0:	4307      	orrs	r7, r0
 80047e2:	3568      	adds	r5, #104	; 0x68
 80047e4:	e7e9      	b.n	80047ba <_fwalk_reent+0x12>
	...

080047e8 <_localeconv_r>:
 80047e8:	4800      	ldr	r0, [pc, #0]	; (80047ec <_localeconv_r+0x4>)
 80047ea:	4770      	bx	lr
 80047ec:	20000160 	.word	0x20000160

080047f0 <__retarget_lock_init_recursive>:
 80047f0:	4770      	bx	lr

080047f2 <__retarget_lock_acquire_recursive>:
 80047f2:	4770      	bx	lr

080047f4 <__retarget_lock_release_recursive>:
 80047f4:	4770      	bx	lr

080047f6 <__swhatbuf_r>:
 80047f6:	b570      	push	{r4, r5, r6, lr}
 80047f8:	460e      	mov	r6, r1
 80047fa:	f9b1 100e 	ldrsh.w	r1, [r1, #14]
 80047fe:	2900      	cmp	r1, #0
 8004800:	b096      	sub	sp, #88	; 0x58
 8004802:	4614      	mov	r4, r2
 8004804:	461d      	mov	r5, r3
 8004806:	da07      	bge.n	8004818 <__swhatbuf_r+0x22>
 8004808:	2300      	movs	r3, #0
 800480a:	602b      	str	r3, [r5, #0]
 800480c:	89b3      	ldrh	r3, [r6, #12]
 800480e:	061a      	lsls	r2, r3, #24
 8004810:	d410      	bmi.n	8004834 <__swhatbuf_r+0x3e>
 8004812:	f44f 6380 	mov.w	r3, #1024	; 0x400
 8004816:	e00e      	b.n	8004836 <__swhatbuf_r+0x40>
 8004818:	466a      	mov	r2, sp
 800481a:	f000 fdcb 	bl	80053b4 <_fstat_r>
 800481e:	2800      	cmp	r0, #0
 8004820:	dbf2      	blt.n	8004808 <__swhatbuf_r+0x12>
 8004822:	9a01      	ldr	r2, [sp, #4]
 8004824:	f402 4270 	and.w	r2, r2, #61440	; 0xf000
 8004828:	f5a2 5300 	sub.w	r3, r2, #8192	; 0x2000
 800482c:	425a      	negs	r2, r3
 800482e:	415a      	adcs	r2, r3
 8004830:	602a      	str	r2, [r5, #0]
 8004832:	e7ee      	b.n	8004812 <__swhatbuf_r+0x1c>
 8004834:	2340      	movs	r3, #64	; 0x40
 8004836:	2000      	movs	r0, #0
 8004838:	6023      	str	r3, [r4, #0]
 800483a:	b016      	add	sp, #88	; 0x58
 800483c:	bd70      	pop	{r4, r5, r6, pc}
	...

08004840 <__smakebuf_r>:
 8004840:	898b      	ldrh	r3, [r1, #12]
 8004842:	b573      	push	{r0, r1, r4, r5, r6, lr}
 8004844:	079d      	lsls	r5, r3, #30
 8004846:	4606      	mov	r6, r0
 8004848:	460c      	mov	r4, r1
 800484a:	d507      	bpl.n	800485c <__smakebuf_r+0x1c>
 800484c:	f104 0347 	add.w	r3, r4, #71	; 0x47
 8004850:	6023      	str	r3, [r4, #0]
 8004852:	6123      	str	r3, [r4, #16]
 8004854:	2301      	movs	r3, #1
 8004856:	6163      	str	r3, [r4, #20]
 8004858:	b002      	add	sp, #8
 800485a:	bd70      	pop	{r4, r5, r6, pc}
 800485c:	ab01      	add	r3, sp, #4
 800485e:	466a      	mov	r2, sp
 8004860:	f7ff ffc9 	bl	80047f6 <__swhatbuf_r>
 8004864:	9900      	ldr	r1, [sp, #0]
 8004866:	4605      	mov	r5, r0
 8004868:	4630      	mov	r0, r6
 800486a:	f7fe f96b 	bl	8002b44 <_malloc_r>
 800486e:	b948      	cbnz	r0, 8004884 <__smakebuf_r+0x44>
 8004870:	f9b4 300c 	ldrsh.w	r3, [r4, #12]
 8004874:	059a      	lsls	r2, r3, #22
 8004876:	d4ef      	bmi.n	8004858 <__smakebuf_r+0x18>
 8004878:	f023 0303 	bic.w	r3, r3, #3
 800487c:	f043 0302 	orr.w	r3, r3, #2
 8004880:	81a3      	strh	r3, [r4, #12]
 8004882:	e7e3      	b.n	800484c <__smakebuf_r+0xc>
 8004884:	4b0d      	ldr	r3, [pc, #52]	; (80048bc <__smakebuf_r+0x7c>)
 8004886:	62b3      	str	r3, [r6, #40]	; 0x28
 8004888:	89a3      	ldrh	r3, [r4, #12]
 800488a:	6020      	str	r0, [r4, #0]
 800488c:	f043 0380 	orr.w	r3, r3, #128	; 0x80
 8004890:	81a3      	strh	r3, [r4, #12]
 8004892:	9b00      	ldr	r3, [sp, #0]
 8004894:	6163      	str	r3, [r4, #20]
 8004896:	9b01      	ldr	r3, [sp, #4]
 8004898:	6120      	str	r0, [r4, #16]
 800489a:	b15b      	cbz	r3, 80048b4 <__smakebuf_r+0x74>
 800489c:	f9b4 100e 	ldrsh.w	r1, [r4, #14]
 80048a0:	4630      	mov	r0, r6
 80048a2:	f000 fd99 	bl	80053d8 <_isatty_r>
 80048a6:	b128      	cbz	r0, 80048b4 <__smakebuf_r+0x74>
 80048a8:	89a3      	ldrh	r3, [r4, #12]
 80048aa:	f023 0303 	bic.w	r3, r3, #3
 80048ae:	f043 0301 	orr.w	r3, r3, #1
 80048b2:	81a3      	strh	r3, [r4, #12]
 80048b4:	89a0      	ldrh	r0, [r4, #12]
 80048b6:	4305      	orrs	r5, r0
 80048b8:	81a5      	strh	r5, [r4, #12]
 80048ba:	e7cd      	b.n	8004858 <__smakebuf_r+0x18>
 80048bc:	08004645 	.word	0x08004645

080048c0 <__malloc_lock>:
 80048c0:	4801      	ldr	r0, [pc, #4]	; (80048c8 <__malloc_lock+0x8>)
 80048c2:	f7ff bf96 	b.w	80047f2 <__retarget_lock_acquire_recursive>
 80048c6:	bf00      	nop
 80048c8:	20000230 	.word	0x20000230

080048cc <__malloc_unlock>:
 80048cc:	4801      	ldr	r0, [pc, #4]	; (80048d4 <__malloc_unlock+0x8>)
 80048ce:	f7ff bf91 	b.w	80047f4 <__retarget_lock_release_recursive>
 80048d2:	bf00      	nop
 80048d4:	20000230 	.word	0x20000230

080048d8 <_Balloc>:
 80048d8:	b570      	push	{r4, r5, r6, lr}
 80048da:	6a46      	ldr	r6, [r0, #36]	; 0x24
 80048dc:	4604      	mov	r4, r0
 80048de:	460d      	mov	r5, r1
 80048e0:	b976      	cbnz	r6, 8004900 <_Balloc+0x28>
 80048e2:	2010      	movs	r0, #16
 80048e4:	f7fe f8a8 	bl	8002a38 <malloc>
 80048e8:	4602      	mov	r2, r0
 80048ea:	6260      	str	r0, [r4, #36]	; 0x24
 80048ec:	b920      	cbnz	r0, 80048f8 <_Balloc+0x20>
 80048ee:	4b18      	ldr	r3, [pc, #96]	; (8004950 <_Balloc+0x78>)
 80048f0:	4818      	ldr	r0, [pc, #96]	; (8004954 <_Balloc+0x7c>)
 80048f2:	2166      	movs	r1, #102	; 0x66
 80048f4:	f000 fd1e 	bl	8005334 <__assert_func>
 80048f8:	e9c0 6601 	strd	r6, r6, [r0, #4]
 80048fc:	6006      	str	r6, [r0, #0]
 80048fe:	60c6      	str	r6, [r0, #12]
 8004900:	6a66      	ldr	r6, [r4, #36]	; 0x24
 8004902:	68f3      	ldr	r3, [r6, #12]
 8004904:	b183      	cbz	r3, 8004928 <_Balloc+0x50>
 8004906:	6a63      	ldr	r3, [r4, #36]	; 0x24
 8004908:	68db      	ldr	r3, [r3, #12]
 800490a:	f853 0025 	ldr.w	r0, [r3, r5, lsl #2]
 800490e:	b9b8      	cbnz	r0, 8004940 <_Balloc+0x68>
 8004910:	2101      	movs	r1, #1
 8004912:	fa01 f605 	lsl.w	r6, r1, r5
 8004916:	1d72      	adds	r2, r6, #5
 8004918:	0092      	lsls	r2, r2, #2
 800491a:	4620      	mov	r0, r4
 800491c:	f7fe f8b2 	bl	8002a84 <_calloc_r>
 8004920:	b160      	cbz	r0, 800493c <_Balloc+0x64>
 8004922:	e9c0 5601 	strd	r5, r6, [r0, #4]
 8004926:	e00e      	b.n	8004946 <_Balloc+0x6e>
 8004928:	2221      	movs	r2, #33	; 0x21
 800492a:	2104      	movs	r1, #4
 800492c:	4620      	mov	r0, r4
 800492e:	f7fe f8a9 	bl	8002a84 <_calloc_r>
 8004932:	6a63      	ldr	r3, [r4, #36]	; 0x24
 8004934:	60f0      	str	r0, [r6, #12]
 8004936:	68db      	ldr	r3, [r3, #12]
 8004938:	2b00      	cmp	r3, #0
 800493a:	d1e4      	bne.n	8004906 <_Balloc+0x2e>
 800493c:	2000      	movs	r0, #0
 800493e:	bd70      	pop	{r4, r5, r6, pc}
 8004940:	6802      	ldr	r2, [r0, #0]
 8004942:	f843 2025 	str.w	r2, [r3, r5, lsl #2]
 8004946:	2300      	movs	r3, #0
 8004948:	e9c0 3303 	strd	r3, r3, [r0, #12]
 800494c:	e7f7      	b.n	800493e <_Balloc+0x66>
 800494e:	bf00      	nop
 8004950:	08005f81 	.word	0x08005f81
 8004954:	08006068 	.word	0x08006068

08004958 <_Bfree>:
 8004958:	b570      	push	{r4, r5, r6, lr}
 800495a:	6a46      	ldr	r6, [r0, #36]	; 0x24
 800495c:	4605      	mov	r5, r0
 800495e:	460c      	mov	r4, r1
 8004960:	b976      	cbnz	r6, 8004980 <_Bfree+0x28>
 8004962:	2010      	movs	r0, #16
 8004964:	f7fe f868 	bl	8002a38 <malloc>
 8004968:	4602      	mov	r2, r0
 800496a:	6268      	str	r0, [r5, #36]	; 0x24
 800496c:	b920      	cbnz	r0, 8004978 <_Bfree+0x20>
 800496e:	4b09      	ldr	r3, [pc, #36]	; (8004994 <_Bfree+0x3c>)
 8004970:	4809      	ldr	r0, [pc, #36]	; (8004998 <_Bfree+0x40>)
 8004972:	218a      	movs	r1, #138	; 0x8a
 8004974:	f000 fcde 	bl	8005334 <__assert_func>
 8004978:	e9c0 6601 	strd	r6, r6, [r0, #4]
 800497c:	6006      	str	r6, [r0, #0]
 800497e:	60c6      	str	r6, [r0, #12]
 8004980:	b13c      	cbz	r4, 8004992 <_Bfree+0x3a>
 8004982:	6a6b      	ldr	r3, [r5, #36]	; 0x24
 8004984:	6862      	ldr	r2, [r4, #4]
 8004986:	68db      	ldr	r3, [r3, #12]
 8004988:	f853 1022 	ldr.w	r1, [r3, r2, lsl #2]
 800498c:	6021      	str	r1, [r4, #0]
 800498e:	f843 4022 	str.w	r4, [r3, r2, lsl #2]
 8004992:	bd70      	pop	{r4, r5, r6, pc}
 8004994:	08005f81 	.word	0x08005f81
 8004998:	08006068 	.word	0x08006068

0800499c <__multadd>:
 800499c:	e92d 41f0 	stmdb	sp!, {r4, r5, r6, r7, r8, lr}
 80049a0:	690e      	ldr	r6, [r1, #16]
 80049a2:	4607      	mov	r7, r0
 80049a4:	4698      	mov	r8, r3
 80049a6:	460c      	mov	r4, r1
 80049a8:	f101 0014 	add.w	r0, r1, #20
 80049ac:	2300      	movs	r3, #0
 80049ae:	6805      	ldr	r5, [r0, #0]
 80049b0:	b2a9      	uxth	r1, r5
 80049b2:	fb02 8101 	mla	r1, r2, r1, r8
 80049b6:	ea4f 4c11 	mov.w	ip, r1, lsr #16
 80049ba:	0c2d      	lsrs	r5, r5, #16
 80049bc:	fb02 c505 	mla	r5, r2, r5, ip
 80049c0:	b289      	uxth	r1, r1
 80049c2:	3301      	adds	r3, #1
 80049c4:	eb01 4105 	add.w	r1, r1, r5, lsl #16
 80049c8:	429e      	cmp	r6, r3
 80049ca:	f840 1b04 	str.w	r1, [r0], #4
 80049ce:	ea4f 4815 	mov.w	r8, r5, lsr #16
 80049d2:	dcec      	bgt.n	80049ae <__multadd+0x12>
 80049d4:	f1b8 0f00 	cmp.w	r8, #0
 80049d8:	d022      	beq.n	8004a20 <__multadd+0x84>
 80049da:	68a3      	ldr	r3, [r4, #8]
 80049dc:	42b3      	cmp	r3, r6
 80049de:	dc19      	bgt.n	8004a14 <__multadd+0x78>
 80049e0:	6861      	ldr	r1, [r4, #4]
 80049e2:	4638      	mov	r0, r7
 80049e4:	3101      	adds	r1, #1
 80049e6:	f7ff ff77 	bl	80048d8 <_Balloc>
 80049ea:	4605      	mov	r5, r0
 80049ec:	b928      	cbnz	r0, 80049fa <__multadd+0x5e>
 80049ee:	4602      	mov	r2, r0
 80049f0:	4b0d      	ldr	r3, [pc, #52]	; (8004a28 <__multadd+0x8c>)
 80049f2:	480e      	ldr	r0, [pc, #56]	; (8004a2c <__multadd+0x90>)
 80049f4:	21b5      	movs	r1, #181	; 0xb5
 80049f6:	f000 fc9d 	bl	8005334 <__assert_func>
 80049fa:	6922      	ldr	r2, [r4, #16]
 80049fc:	3202      	adds	r2, #2
 80049fe:	f104 010c 	add.w	r1, r4, #12
 8004a02:	0092      	lsls	r2, r2, #2
 8004a04:	300c      	adds	r0, #12
 8004a06:	f7fe f827 	bl	8002a58 <memcpy>
 8004a0a:	4621      	mov	r1, r4
 8004a0c:	4638      	mov	r0, r7
 8004a0e:	f7ff ffa3 	bl	8004958 <_Bfree>
 8004a12:	462c      	mov	r4, r5
 8004a14:	eb04 0386 	add.w	r3, r4, r6, lsl #2
 8004a18:	3601      	adds	r6, #1
 8004a1a:	f8c3 8014 	str.w	r8, [r3, #20]
 8004a1e:	6126      	str	r6, [r4, #16]
 8004a20:	4620      	mov	r0, r4
 8004a22:	e8bd 81f0 	ldmia.w	sp!, {r4, r5, r6, r7, r8, pc}
 8004a26:	bf00      	nop
 8004a28:	08005ff7 	.word	0x08005ff7
 8004a2c:	08006068 	.word	0x08006068

08004a30 <__hi0bits>:
 8004a30:	0c03      	lsrs	r3, r0, #16
 8004a32:	041b      	lsls	r3, r3, #16
 8004a34:	b9d3      	cbnz	r3, 8004a6c <__hi0bits+0x3c>
 8004a36:	0400      	lsls	r0, r0, #16
 8004a38:	2310      	movs	r3, #16
 8004a3a:	f010 4f7f 	tst.w	r0, #4278190080	; 0xff000000
 8004a3e:	bf04      	itt	eq
 8004a40:	0200      	lsleq	r0, r0, #8
 8004a42:	3308      	addeq	r3, #8
 8004a44:	f010 4f70 	tst.w	r0, #4026531840	; 0xf0000000
 8004a48:	bf04      	itt	eq
 8004a4a:	0100      	lsleq	r0, r0, #4
 8004a4c:	3304      	addeq	r3, #4
 8004a4e:	f010 4f40 	tst.w	r0, #3221225472	; 0xc0000000
 8004a52:	bf04      	itt	eq
 8004a54:	0080      	lsleq	r0, r0, #2
 8004a56:	3302      	addeq	r3, #2
 8004a58:	2800      	cmp	r0, #0
 8004a5a:	db05      	blt.n	8004a68 <__hi0bits+0x38>
 8004a5c:	f010 4f80 	tst.w	r0, #1073741824	; 0x40000000
 8004a60:	f103 0301 	add.w	r3, r3, #1
 8004a64:	bf08      	it	eq
 8004a66:	2320      	moveq	r3, #32
 8004a68:	4618      	mov	r0, r3
 8004a6a:	4770      	bx	lr
 8004a6c:	2300      	movs	r3, #0
 8004a6e:	e7e4      	b.n	8004a3a <__hi0bits+0xa>

08004a70 <__lo0bits>:
 8004a70:	6803      	ldr	r3, [r0, #0]
 8004a72:	f013 0207 	ands.w	r2, r3, #7
 8004a76:	4601      	mov	r1, r0
 8004a78:	d00b      	beq.n	8004a92 <__lo0bits+0x22>
 8004a7a:	07da      	lsls	r2, r3, #31
 8004a7c:	d424      	bmi.n	8004ac8 <__lo0bits+0x58>
 8004a7e:	0798      	lsls	r0, r3, #30
 8004a80:	bf49      	itett	mi
 8004a82:	085b      	lsrmi	r3, r3, #1
 8004a84:	089b      	lsrpl	r3, r3, #2
 8004a86:	2001      	movmi	r0, #1
 8004a88:	600b      	strmi	r3, [r1, #0]
 8004a8a:	bf5c      	itt	pl
 8004a8c:	600b      	strpl	r3, [r1, #0]
 8004a8e:	2002      	movpl	r0, #2
 8004a90:	4770      	bx	lr
 8004a92:	b298      	uxth	r0, r3
 8004a94:	b9b0      	cbnz	r0, 8004ac4 <__lo0bits+0x54>
 8004a96:	0c1b      	lsrs	r3, r3, #16
 8004a98:	2010      	movs	r0, #16
 8004a9a:	f013 0fff 	tst.w	r3, #255	; 0xff
 8004a9e:	bf04      	itt	eq
 8004aa0:	0a1b      	lsreq	r3, r3, #8
 8004aa2:	3008      	addeq	r0, #8
 8004aa4:	071a      	lsls	r2, r3, #28
 8004aa6:	bf04      	itt	eq
 8004aa8:	091b      	lsreq	r3, r3, #4
 8004aaa:	3004      	addeq	r0, #4
 8004aac:	079a      	lsls	r2, r3, #30
 8004aae:	bf04      	itt	eq
 8004ab0:	089b      	lsreq	r3, r3, #2
 8004ab2:	3002      	addeq	r0, #2
 8004ab4:	07da      	lsls	r2, r3, #31
 8004ab6:	d403      	bmi.n	8004ac0 <__lo0bits+0x50>
 8004ab8:	085b      	lsrs	r3, r3, #1
 8004aba:	f100 0001 	add.w	r0, r0, #1
 8004abe:	d005      	beq.n	8004acc <__lo0bits+0x5c>
 8004ac0:	600b      	str	r3, [r1, #0]
 8004ac2:	4770      	bx	lr
 8004ac4:	4610      	mov	r0, r2
 8004ac6:	e7e8      	b.n	8004a9a <__lo0bits+0x2a>
 8004ac8:	2000      	movs	r0, #0
 8004aca:	4770      	bx	lr
 8004acc:	2020      	movs	r0, #32
 8004ace:	4770      	bx	lr

08004ad0 <__i2b>:
 8004ad0:	b510      	push	{r4, lr}
 8004ad2:	460c      	mov	r4, r1
 8004ad4:	2101      	movs	r1, #1
 8004ad6:	f7ff feff 	bl	80048d8 <_Balloc>
 8004ada:	4602      	mov	r2, r0
 8004adc:	b928      	cbnz	r0, 8004aea <__i2b+0x1a>
 8004ade:	4b05      	ldr	r3, [pc, #20]	; (8004af4 <__i2b+0x24>)
 8004ae0:	4805      	ldr	r0, [pc, #20]	; (8004af8 <__i2b+0x28>)
 8004ae2:	f44f 71a0 	mov.w	r1, #320	; 0x140
 8004ae6:	f000 fc25 	bl	8005334 <__assert_func>
 8004aea:	2301      	movs	r3, #1
 8004aec:	6144      	str	r4, [r0, #20]
 8004aee:	6103      	str	r3, [r0, #16]
 8004af0:	bd10      	pop	{r4, pc}
 8004af2:	bf00      	nop
 8004af4:	08005ff7 	.word	0x08005ff7
 8004af8:	08006068 	.word	0x08006068

08004afc <__multiply>:
 8004afc:	e92d 4ff0 	stmdb	sp!, {r4, r5, r6, r7, r8, r9, sl, fp, lr}
 8004b00:	4614      	mov	r4, r2
 8004b02:	690a      	ldr	r2, [r1, #16]
 8004b04:	6923      	ldr	r3, [r4, #16]
 8004b06:	429a      	cmp	r2, r3
 8004b08:	bfb8      	it	lt
 8004b0a:	460b      	movlt	r3, r1
 8004b0c:	460d      	mov	r5, r1
 8004b0e:	bfbc      	itt	lt
 8004b10:	4625      	movlt	r5, r4
 8004b12:	461c      	movlt	r4, r3
 8004b14:	f8d5 a010 	ldr.w	sl, [r5, #16]
 8004b18:	f8d4 9010 	ldr.w	r9, [r4, #16]
 8004b1c:	68ab      	ldr	r3, [r5, #8]
 8004b1e:	6869      	ldr	r1, [r5, #4]
 8004b20:	eb0a 0709 	add.w	r7, sl, r9
 8004b24:	42bb      	cmp	r3, r7
 8004b26:	b085      	sub	sp, #20
 8004b28:	bfb8      	it	lt
 8004b2a:	3101      	addlt	r1, #1
 8004b2c:	f7ff fed4 	bl	80048d8 <_Balloc>
 8004b30:	b930      	cbnz	r0, 8004b40 <__multiply+0x44>
 8004b32:	4602      	mov	r2, r0
 8004b34:	4b42      	ldr	r3, [pc, #264]	; (8004c40 <__multiply+0x144>)
 8004b36:	4843      	ldr	r0, [pc, #268]	; (8004c44 <__multiply+0x148>)
 8004b38:	f240 115d 	movw	r1, #349	; 0x15d
 8004b3c:	f000 fbfa 	bl	8005334 <__assert_func>
 8004b40:	f100 0614 	add.w	r6, r0, #20
 8004b44:	eb06 0887 	add.w	r8, r6, r7, lsl #2
 8004b48:	4633      	mov	r3, r6
 8004b4a:	2200      	movs	r2, #0
 8004b4c:	4543      	cmp	r3, r8
 8004b4e:	d31e      	bcc.n	8004b8e <__multiply+0x92>
 8004b50:	f105 0c14 	add.w	ip, r5, #20
 8004b54:	f104 0314 	add.w	r3, r4, #20
 8004b58:	eb0c 0c8a 	add.w	ip, ip, sl, lsl #2
 8004b5c:	eb03 0289 	add.w	r2, r3, r9, lsl #2
 8004b60:	9202      	str	r2, [sp, #8]
 8004b62:	ebac 0205 	sub.w	r2, ip, r5
 8004b66:	3a15      	subs	r2, #21
 8004b68:	f022 0203 	bic.w	r2, r2, #3
 8004b6c:	3204      	adds	r2, #4
 8004b6e:	f105 0115 	add.w	r1, r5, #21
 8004b72:	458c      	cmp	ip, r1
 8004b74:	bf38      	it	cc
 8004b76:	2204      	movcc	r2, #4
 8004b78:	9201      	str	r2, [sp, #4]
 8004b7a:	9a02      	ldr	r2, [sp, #8]
 8004b7c:	9303      	str	r3, [sp, #12]
 8004b7e:	429a      	cmp	r2, r3
 8004b80:	d808      	bhi.n	8004b94 <__multiply+0x98>
 8004b82:	2f00      	cmp	r7, #0
 8004b84:	dc55      	bgt.n	8004c32 <__multiply+0x136>
 8004b86:	6107      	str	r7, [r0, #16]
 8004b88:	b005      	add	sp, #20
 8004b8a:	e8bd 8ff0 	ldmia.w	sp!, {r4, r5, r6, r7, r8, r9, sl, fp, pc}
 8004b8e:	f843 2b04 	str.w	r2, [r3], #4
 8004b92:	e7db      	b.n	8004b4c <__multiply+0x50>
 8004b94:	f8b3 a000 	ldrh.w	sl, [r3]
 8004b98:	f1ba 0f00 	cmp.w	sl, #0
 8004b9c:	d020      	beq.n	8004be0 <__multiply+0xe4>
 8004b9e:	f105 0e14 	add.w	lr, r5, #20
 8004ba2:	46b1      	mov	r9, r6
 8004ba4:	2200      	movs	r2, #0
 8004ba6:	f85e 4b04 	ldr.w	r4, [lr], #4
 8004baa:	f8d9 b000 	ldr.w	fp, [r9]
 8004bae:	b2a1      	uxth	r1, r4
 8004bb0:	fa1f fb8b 	uxth.w	fp, fp
 8004bb4:	fb0a b101 	mla	r1, sl, r1, fp
 8004bb8:	4411      	add	r1, r2
 8004bba:	f8d9 2000 	ldr.w	r2, [r9]
 8004bbe:	0c24      	lsrs	r4, r4, #16
 8004bc0:	0c12      	lsrs	r2, r2, #16
 8004bc2:	fb0a 2404 	mla	r4, sl, r4, r2
 8004bc6:	eb04 4411 	add.w	r4, r4, r1, lsr #16
 8004bca:	b289      	uxth	r1, r1
 8004bcc:	ea41 4104 	orr.w	r1, r1, r4, lsl #16
 8004bd0:	45f4      	cmp	ip, lr
 8004bd2:	f849 1b04 	str.w	r1, [r9], #4
 8004bd6:	ea4f 4214 	mov.w	r2, r4, lsr #16
 8004bda:	d8e4      	bhi.n	8004ba6 <__multiply+0xaa>
 8004bdc:	9901      	ldr	r1, [sp, #4]
 8004bde:	5072      	str	r2, [r6, r1]
 8004be0:	9a03      	ldr	r2, [sp, #12]
 8004be2:	f8b2 9002 	ldrh.w	r9, [r2, #2]
 8004be6:	3304      	adds	r3, #4
 8004be8:	f1b9 0f00 	cmp.w	r9, #0
 8004bec:	d01f      	beq.n	8004c2e <__multiply+0x132>
 8004bee:	6834      	ldr	r4, [r6, #0]
 8004bf0:	f105 0114 	add.w	r1, r5, #20
 8004bf4:	46b6      	mov	lr, r6
 8004bf6:	f04f 0a00 	mov.w	sl, #0
 8004bfa:	880a      	ldrh	r2, [r1, #0]
 8004bfc:	f8be b002 	ldrh.w	fp, [lr, #2]
 8004c00:	fb09 b202 	mla	r2, r9, r2, fp
 8004c04:	4492      	add	sl, r2
 8004c06:	b2a4      	uxth	r4, r4
 8004c08:	ea44 440a 	orr.w	r4, r4, sl, lsl #16
 8004c0c:	f84e 4b04 	str.w	r4, [lr], #4
 8004c10:	f851 4b04 	ldr.w	r4, [r1], #4
 8004c14:	f8be 2000 	ldrh.w	r2, [lr]
 8004c18:	0c24      	lsrs	r4, r4, #16
 8004c1a:	fb09 2404 	mla	r4, r9, r4, r2
 8004c1e:	eb04 441a 	add.w	r4, r4, sl, lsr #16
 8004c22:	458c      	cmp	ip, r1
 8004c24:	ea4f 4a14 	mov.w	sl, r4, lsr #16
 8004c28:	d8e7      	bhi.n	8004bfa <__multiply+0xfe>
 8004c2a:	9a01      	ldr	r2, [sp, #4]
 8004c2c:	50b4      	str	r4, [r6, r2]
 8004c2e:	3604      	adds	r6, #4
 8004c30:	e7a3      	b.n	8004b7a <__multiply+0x7e>
 8004c32:	f858 3d04 	ldr.w	r3, [r8, #-4]!
 8004c36:	2b00      	cmp	r3, #0
 8004c38:	d1a5      	bne.n	8004b86 <__multiply+0x8a>
 8004c3a:	3f01      	subs	r7, #1
 8004c3c:	e7a1      	b.n	8004b82 <__multiply+0x86>
 8004c3e:	bf00      	nop
 8004c40:	08005ff7 	.word	0x08005ff7
 8004c44:	08006068 	.word	0x08006068

08004c48 <__pow5mult>:
 8004c48:	e92d 43f8 	stmdb	sp!, {r3, r4, r5, r6, r7, r8, r9, lr}
 8004c4c:	4615      	mov	r5, r2
 8004c4e:	f012 0203 	ands.w	r2, r2, #3
 8004c52:	4606      	mov	r6, r0
 8004c54:	460f      	mov	r7, r1
 8004c56:	d007      	beq.n	8004c68 <__pow5mult+0x20>
 8004c58:	4c25      	ldr	r4, [pc, #148]	; (8004cf0 <__pow5mult+0xa8>)
 8004c5a:	3a01      	subs	r2, #1
 8004c5c:	2300      	movs	r3, #0
 8004c5e:	f854 2022 	ldr.w	r2, [r4, r2, lsl #2]
 8004c62:	f7ff fe9b 	bl	800499c <__multadd>
 8004c66:	4607      	mov	r7, r0
 8004c68:	10ad      	asrs	r5, r5, #2
 8004c6a:	d03d      	beq.n	8004ce8 <__pow5mult+0xa0>
 8004c6c:	6a74      	ldr	r4, [r6, #36]	; 0x24
 8004c6e:	b97c      	cbnz	r4, 8004c90 <__pow5mult+0x48>
 8004c70:	2010      	movs	r0, #16
 8004c72:	f7fd fee1 	bl	8002a38 <malloc>
 8004c76:	4602      	mov	r2, r0
 8004c78:	6270      	str	r0, [r6, #36]	; 0x24
 8004c7a:	b928      	cbnz	r0, 8004c88 <__pow5mult+0x40>
 8004c7c:	4b1d      	ldr	r3, [pc, #116]	; (8004cf4 <__pow5mult+0xac>)
 8004c7e:	481e      	ldr	r0, [pc, #120]	; (8004cf8 <__pow5mult+0xb0>)
 8004c80:	f44f 71d7 	mov.w	r1, #430	; 0x1ae
 8004c84:	f000 fb56 	bl	8005334 <__assert_func>
 8004c88:	e9c0 4401 	strd	r4, r4, [r0, #4]
 8004c8c:	6004      	str	r4, [r0, #0]
 8004c8e:	60c4      	str	r4, [r0, #12]
 8004c90:	f8d6 8024 	ldr.w	r8, [r6, #36]	; 0x24
 8004c94:	f8d8 4008 	ldr.w	r4, [r8, #8]
 8004c98:	b94c      	cbnz	r4, 8004cae <__pow5mult+0x66>
 8004c9a:	f240 2171 	movw	r1, #625	; 0x271
 8004c9e:	4630      	mov	r0, r6
 8004ca0:	f7ff ff16 	bl	8004ad0 <__i2b>
 8004ca4:	2300      	movs	r3, #0
 8004ca6:	f8c8 0008 	str.w	r0, [r8, #8]
 8004caa:	4604      	mov	r4, r0
 8004cac:	6003      	str	r3, [r0, #0]
 8004cae:	f04f 0900 	mov.w	r9, #0
 8004cb2:	07eb      	lsls	r3, r5, #31
 8004cb4:	d50a      	bpl.n	8004ccc <__pow5mult+0x84>
 8004cb6:	4639      	mov	r1, r7
 8004cb8:	4622      	mov	r2, r4
 8004cba:	4630      	mov	r0, r6
 8004cbc:	f7ff ff1e 	bl	8004afc <__multiply>
 8004cc0:	4639      	mov	r1, r7
 8004cc2:	4680      	mov	r8, r0
 8004cc4:	4630      	mov	r0, r6
 8004cc6:	f7ff fe47 	bl	8004958 <_Bfree>
 8004cca:	4647      	mov	r7, r8
 8004ccc:	106d      	asrs	r5, r5, #1
 8004cce:	d00b      	beq.n	8004ce8 <__pow5mult+0xa0>
 8004cd0:	6820      	ldr	r0, [r4, #0]
 8004cd2:	b938      	cbnz	r0, 8004ce4 <__pow5mult+0x9c>
 8004cd4:	4622      	mov	r2, r4
 8004cd6:	4621      	mov	r1, r4
 8004cd8:	4630      	mov	r0, r6
 8004cda:	f7ff ff0f 	bl	8004afc <__multiply>
 8004cde:	6020      	str	r0, [r4, #0]
 8004ce0:	f8c0 9000 	str.w	r9, [r0]
 8004ce4:	4604      	mov	r4, r0
 8004ce6:	e7e4      	b.n	8004cb2 <__pow5mult+0x6a>
 8004ce8:	4638      	mov	r0, r7
 8004cea:	e8bd 83f8 	ldmia.w	sp!, {r3, r4, r5, r6, r7, r8, r9, pc}
 8004cee:	bf00      	nop
 8004cf0:	080061b8 	.word	0x080061b8
 8004cf4:	08005f81 	.word	0x08005f81
 8004cf8:	08006068 	.word	0x08006068

08004cfc <__lshift>:
 8004cfc:	e92d 47f0 	stmdb	sp!, {r4, r5, r6, r7, r8, r9, sl, lr}
 8004d00:	460c      	mov	r4, r1
 8004d02:	6849      	ldr	r1, [r1, #4]
 8004d04:	6923      	ldr	r3, [r4, #16]
 8004d06:	eb03 1862 	add.w	r8, r3, r2, asr #5
 8004d0a:	68a3      	ldr	r3, [r4, #8]
 8004d0c:	4607      	mov	r7, r0
 8004d0e:	4691      	mov	r9, r2
 8004d10:	ea4f 1a62 	mov.w	sl, r2, asr #5
 8004d14:	f108 0601 	add.w	r6, r8, #1
 8004d18:	42b3      	cmp	r3, r6
 8004d1a:	db0b      	blt.n	8004d34 <__lshift+0x38>
 8004d1c:	4638      	mov	r0, r7
 8004d1e:	f7ff fddb 	bl	80048d8 <_Balloc>
 8004d22:	4605      	mov	r5, r0
 8004d24:	b948      	cbnz	r0, 8004d3a <__lshift+0x3e>
 8004d26:	4602      	mov	r2, r0
 8004d28:	4b28      	ldr	r3, [pc, #160]	; (8004dcc <__lshift+0xd0>)
 8004d2a:	4829      	ldr	r0, [pc, #164]	; (8004dd0 <__lshift+0xd4>)
 8004d2c:	f240 11d9 	movw	r1, #473	; 0x1d9
 8004d30:	f000 fb00 	bl	8005334 <__assert_func>
 8004d34:	3101      	adds	r1, #1
 8004d36:	005b      	lsls	r3, r3, #1
 8004d38:	e7ee      	b.n	8004d18 <__lshift+0x1c>
 8004d3a:	2300      	movs	r3, #0
 8004d3c:	f100 0114 	add.w	r1, r0, #20
 8004d40:	f100 0210 	add.w	r2, r0, #16
 8004d44:	4618      	mov	r0, r3
 8004d46:	4553      	cmp	r3, sl
 8004d48:	db33      	blt.n	8004db2 <__lshift+0xb6>
 8004d4a:	6920      	ldr	r0, [r4, #16]
 8004d4c:	ea2a 7aea 	bic.w	sl, sl, sl, asr #31
 8004d50:	f104 0314 	add.w	r3, r4, #20
 8004d54:	f019 091f 	ands.w	r9, r9, #31
 8004d58:	eb01 018a 	add.w	r1, r1, sl, lsl #2
 8004d5c:	eb03 0c80 	add.w	ip, r3, r0, lsl #2
 8004d60:	d02b      	beq.n	8004dba <__lshift+0xbe>
 8004d62:	f1c9 0e20 	rsb	lr, r9, #32
 8004d66:	468a      	mov	sl, r1
 8004d68:	2200      	movs	r2, #0
 8004d6a:	6818      	ldr	r0, [r3, #0]
 8004d6c:	fa00 f009 	lsl.w	r0, r0, r9
 8004d70:	4302      	orrs	r2, r0
 8004d72:	f84a 2b04 	str.w	r2, [sl], #4
 8004d76:	f853 2b04 	ldr.w	r2, [r3], #4
 8004d7a:	459c      	cmp	ip, r3
 8004d7c:	fa22 f20e 	lsr.w	r2, r2, lr
 8004d80:	d8f3      	bhi.n	8004d6a <__lshift+0x6e>
 8004d82:	ebac 0304 	sub.w	r3, ip, r4
 8004d86:	3b15      	subs	r3, #21
 8004d88:	f023 0303 	bic.w	r3, r3, #3
 8004d8c:	3304      	adds	r3, #4
 8004d8e:	f104 0015 	add.w	r0, r4, #21
 8004d92:	4584      	cmp	ip, r0
 8004d94:	bf38      	it	cc
 8004d96:	2304      	movcc	r3, #4
 8004d98:	50ca      	str	r2, [r1, r3]
 8004d9a:	b10a      	cbz	r2, 8004da0 <__lshift+0xa4>
 8004d9c:	f108 0602 	add.w	r6, r8, #2
 8004da0:	3e01      	subs	r6, #1
 8004da2:	4638      	mov	r0, r7
 8004da4:	612e      	str	r6, [r5, #16]
 8004da6:	4621      	mov	r1, r4
 8004da8:	f7ff fdd6 	bl	8004958 <_Bfree>
 8004dac:	4628      	mov	r0, r5
 8004dae:	e8bd 87f0 	ldmia.w	sp!, {r4, r5, r6, r7, r8, r9, sl, pc}
 8004db2:	f842 0f04 	str.w	r0, [r2, #4]!
 8004db6:	3301      	adds	r3, #1
 8004db8:	e7c5      	b.n	8004d46 <__lshift+0x4a>
 8004dba:	3904      	subs	r1, #4
 8004dbc:	f853 2b04 	ldr.w	r2, [r3], #4
 8004dc0:	f841 2f04 	str.w	r2, [r1, #4]!
 8004dc4:	459c      	cmp	ip, r3
 8004dc6:	d8f9      	bhi.n	8004dbc <__lshift+0xc0>
 8004dc8:	e7ea      	b.n	8004da0 <__lshift+0xa4>
 8004dca:	bf00      	nop
 8004dcc:	08005ff7 	.word	0x08005ff7
 8004dd0:	08006068 	.word	0x08006068

08004dd4 <__mcmp>:
 8004dd4:	b530      	push	{r4, r5, lr}
 8004dd6:	6902      	ldr	r2, [r0, #16]
 8004dd8:	690c      	ldr	r4, [r1, #16]
 8004dda:	1b12      	subs	r2, r2, r4
 8004ddc:	d10e      	bne.n	8004dfc <__mcmp+0x28>
 8004dde:	f100 0314 	add.w	r3, r0, #20
 8004de2:	3114      	adds	r1, #20
 8004de4:	eb03 0084 	add.w	r0, r3, r4, lsl #2
 8004de8:	eb01 0184 	add.w	r1, r1, r4, lsl #2
 8004dec:	f850 5d04 	ldr.w	r5, [r0, #-4]!
 8004df0:	f851 4d04 	ldr.w	r4, [r1, #-4]!
 8004df4:	42a5      	cmp	r5, r4
 8004df6:	d003      	beq.n	8004e00 <__mcmp+0x2c>
 8004df8:	d305      	bcc.n	8004e06 <__mcmp+0x32>
 8004dfa:	2201      	movs	r2, #1
 8004dfc:	4610      	mov	r0, r2
 8004dfe:	bd30      	pop	{r4, r5, pc}
 8004e00:	4283      	cmp	r3, r0
 8004e02:	d3f3      	bcc.n	8004dec <__mcmp+0x18>
 8004e04:	e7fa      	b.n	8004dfc <__mcmp+0x28>
 8004e06:	f04f 32ff 	mov.w	r2, #4294967295	; 0xffffffff
 8004e0a:	e7f7      	b.n	8004dfc <__mcmp+0x28>

08004e0c <__mdiff>:
 8004e0c:	e92d 4ff8 	stmdb	sp!, {r3, r4, r5, r6, r7, r8, r9, sl, fp, lr}
 8004e10:	460c      	mov	r4, r1
 8004e12:	4606      	mov	r6, r0
 8004e14:	4611      	mov	r1, r2
 8004e16:	4620      	mov	r0, r4
 8004e18:	4617      	mov	r7, r2
 8004e1a:	f7ff ffdb 	bl	8004dd4 <__mcmp>
 8004e1e:	1e05      	subs	r5, r0, #0
 8004e20:	d110      	bne.n	8004e44 <__mdiff+0x38>
 8004e22:	4629      	mov	r1, r5
 8004e24:	4630      	mov	r0, r6
 8004e26:	f7ff fd57 	bl	80048d8 <_Balloc>
 8004e2a:	b930      	cbnz	r0, 8004e3a <__mdiff+0x2e>
 8004e2c:	4b39      	ldr	r3, [pc, #228]	; (8004f14 <__mdiff+0x108>)
 8004e2e:	4602      	mov	r2, r0
 8004e30:	f240 2132 	movw	r1, #562	; 0x232
 8004e34:	4838      	ldr	r0, [pc, #224]	; (8004f18 <__mdiff+0x10c>)
 8004e36:	f000 fa7d 	bl	8005334 <__assert_func>
 8004e3a:	2301      	movs	r3, #1
 8004e3c:	e9c0 3504 	strd	r3, r5, [r0, #16]
 8004e40:	e8bd 8ff8 	ldmia.w	sp!, {r3, r4, r5, r6, r7, r8, r9, sl, fp, pc}
 8004e44:	bfa4      	itt	ge
 8004e46:	463b      	movge	r3, r7
 8004e48:	4627      	movge	r7, r4
 8004e4a:	4630      	mov	r0, r6
 8004e4c:	6879      	ldr	r1, [r7, #4]
 8004e4e:	bfa6      	itte	ge
 8004e50:	461c      	movge	r4, r3
 8004e52:	2500      	movge	r5, #0
 8004e54:	2501      	movlt	r5, #1
 8004e56:	f7ff fd3f 	bl	80048d8 <_Balloc>
 8004e5a:	b920      	cbnz	r0, 8004e66 <__mdiff+0x5a>
 8004e5c:	4b2d      	ldr	r3, [pc, #180]	; (8004f14 <__mdiff+0x108>)
 8004e5e:	4602      	mov	r2, r0
 8004e60:	f44f 7110 	mov.w	r1, #576	; 0x240
 8004e64:	e7e6      	b.n	8004e34 <__mdiff+0x28>
 8004e66:	693e      	ldr	r6, [r7, #16]
 8004e68:	60c5      	str	r5, [r0, #12]
 8004e6a:	6925      	ldr	r5, [r4, #16]
 8004e6c:	f107 0114 	add.w	r1, r7, #20
 8004e70:	f104 0914 	add.w	r9, r4, #20
 8004e74:	f100 0e14 	add.w	lr, r0, #20
 8004e78:	f107 0210 	add.w	r2, r7, #16
 8004e7c:	eb01 0c86 	add.w	ip, r1, r6, lsl #2
 8004e80:	eb09 0585 	add.w	r5, r9, r5, lsl #2
 8004e84:	46f2      	mov	sl, lr
 8004e86:	2700      	movs	r7, #0
 8004e88:	f859 3b04 	ldr.w	r3, [r9], #4
 8004e8c:	f852 bf04 	ldr.w	fp, [r2, #4]!
 8004e90:	fa1f f883 	uxth.w	r8, r3
 8004e94:	fa17 f78b 	uxtah	r7, r7, fp
 8004e98:	0c1b      	lsrs	r3, r3, #16
 8004e9a:	eba7 0808 	sub.w	r8, r7, r8
 8004e9e:	ebc3 431b 	rsb	r3, r3, fp, lsr #16
 8004ea2:	eb03 4328 	add.w	r3, r3, r8, asr #16
 8004ea6:	fa1f f888 	uxth.w	r8, r8
 8004eaa:	141f      	asrs	r7, r3, #16
 8004eac:	454d      	cmp	r5, r9
 8004eae:	ea48 4303 	orr.w	r3, r8, r3, lsl #16
 8004eb2:	f84a 3b04 	str.w	r3, [sl], #4
 8004eb6:	d8e7      	bhi.n	8004e88 <__mdiff+0x7c>
 8004eb8:	1b2b      	subs	r3, r5, r4
 8004eba:	3b15      	subs	r3, #21
 8004ebc:	f023 0303 	bic.w	r3, r3, #3
 8004ec0:	3304      	adds	r3, #4
 8004ec2:	3415      	adds	r4, #21
 8004ec4:	42a5      	cmp	r5, r4
 8004ec6:	bf38      	it	cc
 8004ec8:	2304      	movcc	r3, #4
 8004eca:	4419      	add	r1, r3
 8004ecc:	4473      	add	r3, lr
 8004ece:	469e      	mov	lr, r3
 8004ed0:	460d      	mov	r5, r1
 8004ed2:	4565      	cmp	r5, ip
 8004ed4:	d30e      	bcc.n	8004ef4 <__mdiff+0xe8>
 8004ed6:	f10c 0203 	add.w	r2, ip, #3
 8004eda:	1a52      	subs	r2, r2, r1
 8004edc:	f022 0203 	bic.w	r2, r2, #3
 8004ee0:	3903      	subs	r1, #3
 8004ee2:	458c      	cmp	ip, r1
 8004ee4:	bf38      	it	cc
 8004ee6:	2200      	movcc	r2, #0
 8004ee8:	441a      	add	r2, r3
 8004eea:	f852 3d04 	ldr.w	r3, [r2, #-4]!
 8004eee:	b17b      	cbz	r3, 8004f10 <__mdiff+0x104>
 8004ef0:	6106      	str	r6, [r0, #16]
 8004ef2:	e7a5      	b.n	8004e40 <__mdiff+0x34>
 8004ef4:	f855 8b04 	ldr.w	r8, [r5], #4
 8004ef8:	fa17 f488 	uxtah	r4, r7, r8
 8004efc:	1422      	asrs	r2, r4, #16
 8004efe:	eb02 4218 	add.w	r2, r2, r8, lsr #16
 8004f02:	b2a4      	uxth	r4, r4
 8004f04:	ea44 4402 	orr.w	r4, r4, r2, lsl #16
 8004f08:	f84e 4b04 	str.w	r4, [lr], #4
 8004f0c:	1417      	asrs	r7, r2, #16
 8004f0e:	e7e0      	b.n	8004ed2 <__mdiff+0xc6>
 8004f10:	3e01      	subs	r6, #1
 8004f12:	e7ea      	b.n	8004eea <__mdiff+0xde>
 8004f14:	08005ff7 	.word	0x08005ff7
 8004f18:	08006068 	.word	0x08006068

08004f1c <__d2b>:
 8004f1c:	e92d 43f7 	stmdb	sp!, {r0, r1, r2, r4, r5, r6, r7, r8, r9, lr}
 8004f20:	4689      	mov	r9, r1
 8004f22:	2101      	movs	r1, #1
 8004f24:	ec57 6b10 	vmov	r6, r7, d0
 8004f28:	4690      	mov	r8, r2
 8004f2a:	f7ff fcd5 	bl	80048d8 <_Balloc>
 8004f2e:	4604      	mov	r4, r0
 8004f30:	b930      	cbnz	r0, 8004f40 <__d2b+0x24>
 8004f32:	4602      	mov	r2, r0
 8004f34:	4b25      	ldr	r3, [pc, #148]	; (8004fcc <__d2b+0xb0>)
 8004f36:	4826      	ldr	r0, [pc, #152]	; (8004fd0 <__d2b+0xb4>)
 8004f38:	f240 310a 	movw	r1, #778	; 0x30a
 8004f3c:	f000 f9fa 	bl	8005334 <__assert_func>
 8004f40:	f3c7 550a 	ubfx	r5, r7, #20, #11
 8004f44:	f3c7 0313 	ubfx	r3, r7, #0, #20
 8004f48:	bb35      	cbnz	r5, 8004f98 <__d2b+0x7c>
 8004f4a:	2e00      	cmp	r6, #0
 8004f4c:	9301      	str	r3, [sp, #4]
 8004f4e:	d028      	beq.n	8004fa2 <__d2b+0x86>
 8004f50:	4668      	mov	r0, sp
 8004f52:	9600      	str	r6, [sp, #0]
 8004f54:	f7ff fd8c 	bl	8004a70 <__lo0bits>
 8004f58:	9900      	ldr	r1, [sp, #0]
 8004f5a:	b300      	cbz	r0, 8004f9e <__d2b+0x82>
 8004f5c:	9a01      	ldr	r2, [sp, #4]
 8004f5e:	f1c0 0320 	rsb	r3, r0, #32
 8004f62:	fa02 f303 	lsl.w	r3, r2, r3
 8004f66:	430b      	orrs	r3, r1
 8004f68:	40c2      	lsrs	r2, r0
 8004f6a:	6163      	str	r3, [r4, #20]
 8004f6c:	9201      	str	r2, [sp, #4]
 8004f6e:	9b01      	ldr	r3, [sp, #4]
 8004f70:	61a3      	str	r3, [r4, #24]
 8004f72:	2b00      	cmp	r3, #0
 8004f74:	bf14      	ite	ne
 8004f76:	2202      	movne	r2, #2
 8004f78:	2201      	moveq	r2, #1
 8004f7a:	6122      	str	r2, [r4, #16]
 8004f7c:	b1d5      	cbz	r5, 8004fb4 <__d2b+0x98>
 8004f7e:	f2a5 4533 	subw	r5, r5, #1075	; 0x433
 8004f82:	4405      	add	r5, r0
 8004f84:	f8c9 5000 	str.w	r5, [r9]
 8004f88:	f1c0 0035 	rsb	r0, r0, #53	; 0x35
 8004f8c:	f8c8 0000 	str.w	r0, [r8]
 8004f90:	4620      	mov	r0, r4
 8004f92:	b003      	add	sp, #12
 8004f94:	e8bd 83f0 	ldmia.w	sp!, {r4, r5, r6, r7, r8, r9, pc}
 8004f98:	f443 1380 	orr.w	r3, r3, #1048576	; 0x100000
 8004f9c:	e7d5      	b.n	8004f4a <__d2b+0x2e>
 8004f9e:	6161      	str	r1, [r4, #20]
 8004fa0:	e7e5      	b.n	8004f6e <__d2b+0x52>
 8004fa2:	a801      	add	r0, sp, #4
 8004fa4:	f7ff fd64 	bl	8004a70 <__lo0bits>
 8004fa8:	9b01      	ldr	r3, [sp, #4]
 8004faa:	6163      	str	r3, [r4, #20]
 8004fac:	2201      	movs	r2, #1
 8004fae:	6122      	str	r2, [r4, #16]
 8004fb0:	3020      	adds	r0, #32
 8004fb2:	e7e3      	b.n	8004f7c <__d2b+0x60>
 8004fb4:	eb04 0382 	add.w	r3, r4, r2, lsl #2
 8004fb8:	f2a0 4032 	subw	r0, r0, #1074	; 0x432
 8004fbc:	f8c9 0000 	str.w	r0, [r9]
 8004fc0:	6918      	ldr	r0, [r3, #16]
 8004fc2:	f7ff fd35 	bl	8004a30 <__hi0bits>
 8004fc6:	ebc0 1042 	rsb	r0, r0, r2, lsl #5
 8004fca:	e7df      	b.n	8004f8c <__d2b+0x70>
 8004fcc:	08005ff7 	.word	0x08005ff7
 8004fd0:	08006068 	.word	0x08006068

08004fd4 <__sfputc_r>:
 8004fd4:	6893      	ldr	r3, [r2, #8]
 8004fd6:	3b01      	subs	r3, #1
 8004fd8:	2b00      	cmp	r3, #0
 8004fda:	b410      	push	{r4}
 8004fdc:	6093      	str	r3, [r2, #8]
 8004fde:	da08      	bge.n	8004ff2 <__sfputc_r+0x1e>
 8004fe0:	6994      	ldr	r4, [r2, #24]
 8004fe2:	42a3      	cmp	r3, r4
 8004fe4:	db01      	blt.n	8004fea <__sfputc_r+0x16>
 8004fe6:	290a      	cmp	r1, #10
 8004fe8:	d103      	bne.n	8004ff2 <__sfputc_r+0x1e>
 8004fea:	f85d 4b04 	ldr.w	r4, [sp], #4
 8004fee:	f7fe bb0b 	b.w	8003608 <__swbuf_r>
 8004ff2:	6813      	ldr	r3, [r2, #0]
 8004ff4:	1c58      	adds	r0, r3, #1
 8004ff6:	6010      	str	r0, [r2, #0]
 8004ff8:	7019      	strb	r1, [r3, #0]
 8004ffa:	4608      	mov	r0, r1
 8004ffc:	f85d 4b04 	ldr.w	r4, [sp], #4
 8005000:	4770      	bx	lr

08005002 <__sfputs_r>:
 8005002:	b5f8      	push	{r3, r4, r5, r6, r7, lr}
 8005004:	4606      	mov	r6, r0
 8005006:	460f      	mov	r7, r1
 8005008:	4614      	mov	r4, r2
 800500a:	18d5      	adds	r5, r2, r3
 800500c:	42ac      	cmp	r4, r5
 800500e:	d101      	bne.n	8005014 <__sfputs_r+0x12>
 8005010:	2000      	movs	r0, #0
 8005012:	e007      	b.n	8005024 <__sfputs_r+0x22>
 8005014:	f814 1b01 	ldrb.w	r1, [r4], #1
 8005018:	463a      	mov	r2, r7
 800501a:	4630      	mov	r0, r6
 800501c:	f7ff ffda 	bl	8004fd4 <__sfputc_r>
 8005020:	1c43      	adds	r3, r0, #1
 8005022:	d1f3      	bne.n	800500c <__sfputs_r+0xa>
 8005024:	bdf8      	pop	{r3, r4, r5, r6, r7, pc}
	...

08005028 <_vfiprintf_r>:
 8005028:	e92d 4ff0 	stmdb	sp!, {r4, r5, r6, r7, r8, r9, sl, fp, lr}
 800502c:	460d      	mov	r5, r1
 800502e:	b09d      	sub	sp, #116	; 0x74
 8005030:	4614      	mov	r4, r2
 8005032:	4698      	mov	r8, r3
 8005034:	4606      	mov	r6, r0
 8005036:	b118      	cbz	r0, 8005040 <_vfiprintf_r+0x18>
 8005038:	6983      	ldr	r3, [r0, #24]
 800503a:	b90b      	cbnz	r3, 8005040 <_vfiprintf_r+0x18>
 800503c:	f7ff fb36 	bl	80046ac <__sinit>
 8005040:	4b89      	ldr	r3, [pc, #548]	; (8005268 <_vfiprintf_r+0x240>)
 8005042:	429d      	cmp	r5, r3
 8005044:	d11b      	bne.n	800507e <_vfiprintf_r+0x56>
 8005046:	6875      	ldr	r5, [r6, #4]
 8005048:	6e6b      	ldr	r3, [r5, #100]	; 0x64
 800504a:	07d9      	lsls	r1, r3, #31
 800504c:	d405      	bmi.n	800505a <_vfiprintf_r+0x32>
 800504e:	89ab      	ldrh	r3, [r5, #12]
 8005050:	059a      	lsls	r2, r3, #22
 8005052:	d402      	bmi.n	800505a <_vfiprintf_r+0x32>
 8005054:	6da8      	ldr	r0, [r5, #88]	; 0x58
 8005056:	f7ff fbcc 	bl	80047f2 <__retarget_lock_acquire_recursive>
 800505a:	89ab      	ldrh	r3, [r5, #12]
 800505c:	071b      	lsls	r3, r3, #28
 800505e:	d501      	bpl.n	8005064 <_vfiprintf_r+0x3c>
 8005060:	692b      	ldr	r3, [r5, #16]
 8005062:	b9eb      	cbnz	r3, 80050a0 <_vfiprintf_r+0x78>
 8005064:	4629      	mov	r1, r5
 8005066:	4630      	mov	r0, r6
 8005068:	f7fe fb20 	bl	80036ac <__swsetup_r>
 800506c:	b1c0      	cbz	r0, 80050a0 <_vfiprintf_r+0x78>
 800506e:	6e6b      	ldr	r3, [r5, #100]	; 0x64
 8005070:	07dc      	lsls	r4, r3, #31
 8005072:	d50e      	bpl.n	8005092 <_vfiprintf_r+0x6a>
 8005074:	f04f 30ff 	mov.w	r0, #4294967295	; 0xffffffff
 8005078:	b01d      	add	sp, #116	; 0x74
 800507a:	e8bd 8ff0 	ldmia.w	sp!, {r4, r5, r6, r7, r8, r9, sl, fp, pc}
 800507e:	4b7b      	ldr	r3, [pc, #492]	; (800526c <_vfiprintf_r+0x244>)
 8005080:	429d      	cmp	r5, r3
 8005082:	d101      	bne.n	8005088 <_vfiprintf_r+0x60>
 8005084:	68b5      	ldr	r5, [r6, #8]
 8005086:	e7df      	b.n	8005048 <_vfiprintf_r+0x20>
 8005088:	4b79      	ldr	r3, [pc, #484]	; (8005270 <_vfiprintf_r+0x248>)
 800508a:	429d      	cmp	r5, r3
 800508c:	bf08      	it	eq
 800508e:	68f5      	ldreq	r5, [r6, #12]
 8005090:	e7da      	b.n	8005048 <_vfiprintf_r+0x20>
 8005092:	89ab      	ldrh	r3, [r5, #12]
 8005094:	0598      	lsls	r0, r3, #22
 8005096:	d4ed      	bmi.n	8005074 <_vfiprintf_r+0x4c>
 8005098:	6da8      	ldr	r0, [r5, #88]	; 0x58
 800509a:	f7ff fbab 	bl	80047f4 <__retarget_lock_release_recursive>
 800509e:	e7e9      	b.n	8005074 <_vfiprintf_r+0x4c>
 80050a0:	2300      	movs	r3, #0
 80050a2:	9309      	str	r3, [sp, #36]	; 0x24
 80050a4:	2320      	movs	r3, #32
 80050a6:	f88d 3029 	strb.w	r3, [sp, #41]	; 0x29
 80050aa:	f8cd 800c 	str.w	r8, [sp, #12]
 80050ae:	2330      	movs	r3, #48	; 0x30
 80050b0:	f8df 81c0 	ldr.w	r8, [pc, #448]	; 8005274 <_vfiprintf_r+0x24c>
 80050b4:	f88d 302a 	strb.w	r3, [sp, #42]	; 0x2a
 80050b8:	f04f 0901 	mov.w	r9, #1
 80050bc:	4623      	mov	r3, r4
 80050be:	469a      	mov	sl, r3
 80050c0:	f813 2b01 	ldrb.w	r2, [r3], #1
 80050c4:	b10a      	cbz	r2, 80050ca <_vfiprintf_r+0xa2>
 80050c6:	2a25      	cmp	r2, #37	; 0x25
 80050c8:	d1f9      	bne.n	80050be <_vfiprintf_r+0x96>
 80050ca:	ebba 0b04 	subs.w	fp, sl, r4
 80050ce:	d00b      	beq.n	80050e8 <_vfiprintf_r+0xc0>
 80050d0:	465b      	mov	r3, fp
 80050d2:	4622      	mov	r2, r4
 80050d4:	4629      	mov	r1, r5
 80050d6:	4630      	mov	r0, r6
 80050d8:	f7ff ff93 	bl	8005002 <__sfputs_r>
 80050dc:	3001      	adds	r0, #1
 80050de:	f000 80aa 	beq.w	8005236 <_vfiprintf_r+0x20e>
 80050e2:	9a09      	ldr	r2, [sp, #36]	; 0x24
 80050e4:	445a      	add	r2, fp
 80050e6:	9209      	str	r2, [sp, #36]	; 0x24
 80050e8:	f89a 3000 	ldrb.w	r3, [sl]
 80050ec:	2b00      	cmp	r3, #0
 80050ee:	f000 80a2 	beq.w	8005236 <_vfiprintf_r+0x20e>
 80050f2:	2300      	movs	r3, #0
 80050f4:	f04f 32ff 	mov.w	r2, #4294967295	; 0xffffffff
 80050f8:	e9cd 2305 	strd	r2, r3, [sp, #20]
 80050fc:	f10a 0a01 	add.w	sl, sl, #1
 8005100:	9304      	str	r3, [sp, #16]
 8005102:	9307      	str	r3, [sp, #28]
 8005104:	f88d 3053 	strb.w	r3, [sp, #83]	; 0x53
 8005108:	931a      	str	r3, [sp, #104]	; 0x68
 800510a:	4654      	mov	r4, sl
 800510c:	2205      	movs	r2, #5
 800510e:	f814 1b01 	ldrb.w	r1, [r4], #1
 8005112:	4858      	ldr	r0, [pc, #352]	; (8005274 <_vfiprintf_r+0x24c>)
 8005114:	f7fb f884 	bl	8000220 <memchr>
 8005118:	9a04      	ldr	r2, [sp, #16]
 800511a:	b9d8      	cbnz	r0, 8005154 <_vfiprintf_r+0x12c>
 800511c:	06d1      	lsls	r1, r2, #27
 800511e:	bf44      	itt	mi
 8005120:	2320      	movmi	r3, #32
 8005122:	f88d 3053 	strbmi.w	r3, [sp, #83]	; 0x53
 8005126:	0713      	lsls	r3, r2, #28
 8005128:	bf44      	itt	mi
 800512a:	232b      	movmi	r3, #43	; 0x2b
 800512c:	f88d 3053 	strbmi.w	r3, [sp, #83]	; 0x53
 8005130:	f89a 3000 	ldrb.w	r3, [sl]
 8005134:	2b2a      	cmp	r3, #42	; 0x2a
 8005136:	d015      	beq.n	8005164 <_vfiprintf_r+0x13c>
 8005138:	9a07      	ldr	r2, [sp, #28]
 800513a:	4654      	mov	r4, sl
 800513c:	2000      	movs	r0, #0
 800513e:	f04f 0c0a 	mov.w	ip, #10
 8005142:	4621      	mov	r1, r4
 8005144:	f811 3b01 	ldrb.w	r3, [r1], #1
 8005148:	3b30      	subs	r3, #48	; 0x30
 800514a:	2b09      	cmp	r3, #9
 800514c:	d94e      	bls.n	80051ec <_vfiprintf_r+0x1c4>
 800514e:	b1b0      	cbz	r0, 800517e <_vfiprintf_r+0x156>
 8005150:	9207      	str	r2, [sp, #28]
 8005152:	e014      	b.n	800517e <_vfiprintf_r+0x156>
 8005154:	eba0 0308 	sub.w	r3, r0, r8
 8005158:	fa09 f303 	lsl.w	r3, r9, r3
 800515c:	4313      	orrs	r3, r2
 800515e:	9304      	str	r3, [sp, #16]
 8005160:	46a2      	mov	sl, r4
 8005162:	e7d2      	b.n	800510a <_vfiprintf_r+0xe2>
 8005164:	9b03      	ldr	r3, [sp, #12]
 8005166:	1d19      	adds	r1, r3, #4
 8005168:	681b      	ldr	r3, [r3, #0]
 800516a:	9103      	str	r1, [sp, #12]
 800516c:	2b00      	cmp	r3, #0
 800516e:	bfbb      	ittet	lt
 8005170:	425b      	neglt	r3, r3
 8005172:	f042 0202 	orrlt.w	r2, r2, #2
 8005176:	9307      	strge	r3, [sp, #28]
 8005178:	9307      	strlt	r3, [sp, #28]
 800517a:	bfb8      	it	lt
 800517c:	9204      	strlt	r2, [sp, #16]
 800517e:	7823      	ldrb	r3, [r4, #0]
 8005180:	2b2e      	cmp	r3, #46	; 0x2e
 8005182:	d10c      	bne.n	800519e <_vfiprintf_r+0x176>
 8005184:	7863      	ldrb	r3, [r4, #1]
 8005186:	2b2a      	cmp	r3, #42	; 0x2a
 8005188:	d135      	bne.n	80051f6 <_vfiprintf_r+0x1ce>
 800518a:	9b03      	ldr	r3, [sp, #12]
 800518c:	1d1a      	adds	r2, r3, #4
 800518e:	681b      	ldr	r3, [r3, #0]
 8005190:	9203      	str	r2, [sp, #12]
 8005192:	2b00      	cmp	r3, #0
 8005194:	bfb8      	it	lt
 8005196:	f04f 33ff 	movlt.w	r3, #4294967295	; 0xffffffff
 800519a:	3402      	adds	r4, #2
 800519c:	9305      	str	r3, [sp, #20]
 800519e:	f8df a0e4 	ldr.w	sl, [pc, #228]	; 8005284 <_vfiprintf_r+0x25c>
 80051a2:	7821      	ldrb	r1, [r4, #0]
 80051a4:	2203      	movs	r2, #3
 80051a6:	4650      	mov	r0, sl
 80051a8:	f7fb f83a 	bl	8000220 <memchr>
 80051ac:	b140      	cbz	r0, 80051c0 <_vfiprintf_r+0x198>
 80051ae:	2340      	movs	r3, #64	; 0x40
 80051b0:	eba0 000a 	sub.w	r0, r0, sl
 80051b4:	fa03 f000 	lsl.w	r0, r3, r0
 80051b8:	9b04      	ldr	r3, [sp, #16]
 80051ba:	4303      	orrs	r3, r0
 80051bc:	3401      	adds	r4, #1
 80051be:	9304      	str	r3, [sp, #16]
 80051c0:	f814 1b01 	ldrb.w	r1, [r4], #1
 80051c4:	482c      	ldr	r0, [pc, #176]	; (8005278 <_vfiprintf_r+0x250>)
 80051c6:	f88d 1028 	strb.w	r1, [sp, #40]	; 0x28
 80051ca:	2206      	movs	r2, #6
 80051cc:	f7fb f828 	bl	8000220 <memchr>
 80051d0:	2800      	cmp	r0, #0
 80051d2:	d03f      	beq.n	8005254 <_vfiprintf_r+0x22c>
 80051d4:	4b29      	ldr	r3, [pc, #164]	; (800527c <_vfiprintf_r+0x254>)
 80051d6:	bb1b      	cbnz	r3, 8005220 <_vfiprintf_r+0x1f8>
 80051d8:	9b03      	ldr	r3, [sp, #12]
 80051da:	3307      	adds	r3, #7
 80051dc:	f023 0307 	bic.w	r3, r3, #7
 80051e0:	3308      	adds	r3, #8
 80051e2:	9303      	str	r3, [sp, #12]
 80051e4:	9b09      	ldr	r3, [sp, #36]	; 0x24
 80051e6:	443b      	add	r3, r7
 80051e8:	9309      	str	r3, [sp, #36]	; 0x24
 80051ea:	e767      	b.n	80050bc <_vfiprintf_r+0x94>
 80051ec:	fb0c 3202 	mla	r2, ip, r2, r3
 80051f0:	460c      	mov	r4, r1
 80051f2:	2001      	movs	r0, #1
 80051f4:	e7a5      	b.n	8005142 <_vfiprintf_r+0x11a>
 80051f6:	2300      	movs	r3, #0
 80051f8:	3401      	adds	r4, #1
 80051fa:	9305      	str	r3, [sp, #20]
 80051fc:	4619      	mov	r1, r3
 80051fe:	f04f 0c0a 	mov.w	ip, #10
 8005202:	4620      	mov	r0, r4
 8005204:	f810 2b01 	ldrb.w	r2, [r0], #1
 8005208:	3a30      	subs	r2, #48	; 0x30
 800520a:	2a09      	cmp	r2, #9
 800520c:	d903      	bls.n	8005216 <_vfiprintf_r+0x1ee>
 800520e:	2b00      	cmp	r3, #0
 8005210:	d0c5      	beq.n	800519e <_vfiprintf_r+0x176>
 8005212:	9105      	str	r1, [sp, #20]
 8005214:	e7c3      	b.n	800519e <_vfiprintf_r+0x176>
 8005216:	fb0c 2101 	mla	r1, ip, r1, r2
 800521a:	4604      	mov	r4, r0
 800521c:	2301      	movs	r3, #1
 800521e:	e7f0      	b.n	8005202 <_vfiprintf_r+0x1da>
 8005220:	ab03      	add	r3, sp, #12
 8005222:	9300      	str	r3, [sp, #0]
 8005224:	462a      	mov	r2, r5
 8005226:	4b16      	ldr	r3, [pc, #88]	; (8005280 <_vfiprintf_r+0x258>)
 8005228:	a904      	add	r1, sp, #16
 800522a:	4630      	mov	r0, r6
 800522c:	f7fd fd84 	bl	8002d38 <_printf_float>
 8005230:	4607      	mov	r7, r0
 8005232:	1c78      	adds	r0, r7, #1
 8005234:	d1d6      	bne.n	80051e4 <_vfiprintf_r+0x1bc>
 8005236:	6e6b      	ldr	r3, [r5, #100]	; 0x64
 8005238:	07d9      	lsls	r1, r3, #31
 800523a:	d405      	bmi.n	8005248 <_vfiprintf_r+0x220>
 800523c:	89ab      	ldrh	r3, [r5, #12]
 800523e:	059a      	lsls	r2, r3, #22
 8005240:	d402      	bmi.n	8005248 <_vfiprintf_r+0x220>
 8005242:	6da8      	ldr	r0, [r5, #88]	; 0x58
 8005244:	f7ff fad6 	bl	80047f4 <__retarget_lock_release_recursive>
 8005248:	89ab      	ldrh	r3, [r5, #12]
 800524a:	065b      	lsls	r3, r3, #25
 800524c:	f53f af12 	bmi.w	8005074 <_vfiprintf_r+0x4c>
 8005250:	9809      	ldr	r0, [sp, #36]	; 0x24
 8005252:	e711      	b.n	8005078 <_vfiprintf_r+0x50>
 8005254:	ab03      	add	r3, sp, #12
 8005256:	9300      	str	r3, [sp, #0]
 8005258:	462a      	mov	r2, r5
 800525a:	4b09      	ldr	r3, [pc, #36]	; (8005280 <_vfiprintf_r+0x258>)
 800525c:	a904      	add	r1, sp, #16
 800525e:	4630      	mov	r0, r6
 8005260:	f7fe f80e 	bl	8003280 <_printf_i>
 8005264:	e7e4      	b.n	8005230 <_vfiprintf_r+0x208>
 8005266:	bf00      	nop
 8005268:	08006028 	.word	0x08006028
 800526c:	08006048 	.word	0x08006048
 8005270:	08006008 	.word	0x08006008
 8005274:	080061c4 	.word	0x080061c4
 8005278:	080061ce 	.word	0x080061ce
 800527c:	08002d39 	.word	0x08002d39
 8005280:	08005003 	.word	0x08005003
 8005284:	080061ca 	.word	0x080061ca

08005288 <__sread>:
 8005288:	b510      	push	{r4, lr}
 800528a:	460c      	mov	r4, r1
 800528c:	f9b1 100e 	ldrsh.w	r1, [r1, #14]
 8005290:	f000 f8d6 	bl	8005440 <_read_r>
 8005294:	2800      	cmp	r0, #0
 8005296:	bfab      	itete	ge
 8005298:	6d63      	ldrge	r3, [r4, #84]	; 0x54
 800529a:	89a3      	ldrhlt	r3, [r4, #12]
 800529c:	181b      	addge	r3, r3, r0
 800529e:	f423 5380 	biclt.w	r3, r3, #4096	; 0x1000
 80052a2:	bfac      	ite	ge
 80052a4:	6563      	strge	r3, [r4, #84]	; 0x54
 80052a6:	81a3      	strhlt	r3, [r4, #12]
 80052a8:	bd10      	pop	{r4, pc}

080052aa <__swrite>:
 80052aa:	e92d 41f0 	stmdb	sp!, {r4, r5, r6, r7, r8, lr}
 80052ae:	461f      	mov	r7, r3
 80052b0:	898b      	ldrh	r3, [r1, #12]
 80052b2:	05db      	lsls	r3, r3, #23
 80052b4:	4605      	mov	r5, r0
 80052b6:	460c      	mov	r4, r1
 80052b8:	4616      	mov	r6, r2
 80052ba:	d505      	bpl.n	80052c8 <__swrite+0x1e>
 80052bc:	f9b1 100e 	ldrsh.w	r1, [r1, #14]
 80052c0:	2302      	movs	r3, #2
 80052c2:	2200      	movs	r2, #0
 80052c4:	f000 f898 	bl	80053f8 <_lseek_r>
 80052c8:	89a3      	ldrh	r3, [r4, #12]
 80052ca:	f9b4 100e 	ldrsh.w	r1, [r4, #14]
 80052ce:	f423 5380 	bic.w	r3, r3, #4096	; 0x1000
 80052d2:	81a3      	strh	r3, [r4, #12]
 80052d4:	4632      	mov	r2, r6
 80052d6:	463b      	mov	r3, r7
 80052d8:	4628      	mov	r0, r5
 80052da:	e8bd 41f0 	ldmia.w	sp!, {r4, r5, r6, r7, r8, lr}
 80052de:	f000 b817 	b.w	8005310 <_write_r>

080052e2 <__sseek>:
 80052e2:	b510      	push	{r4, lr}
 80052e4:	460c      	mov	r4, r1
 80052e6:	f9b1 100e 	ldrsh.w	r1, [r1, #14]
 80052ea:	f000 f885 	bl	80053f8 <_lseek_r>
 80052ee:	1c43      	adds	r3, r0, #1
 80052f0:	89a3      	ldrh	r3, [r4, #12]
 80052f2:	bf15      	itete	ne
 80052f4:	6560      	strne	r0, [r4, #84]	; 0x54
 80052f6:	f423 5380 	biceq.w	r3, r3, #4096	; 0x1000
 80052fa:	f443 5380 	orrne.w	r3, r3, #4096	; 0x1000
 80052fe:	81a3      	strheq	r3, [r4, #12]
 8005300:	bf18      	it	ne
 8005302:	81a3      	strhne	r3, [r4, #12]
 8005304:	bd10      	pop	{r4, pc}

08005306 <__sclose>:
 8005306:	f9b1 100e 	ldrsh.w	r1, [r1, #14]
 800530a:	f000 b831 	b.w	8005370 <_close_r>
	...

08005310 <_write_r>:
 8005310:	b538      	push	{r3, r4, r5, lr}
 8005312:	4d07      	ldr	r5, [pc, #28]	; (8005330 <_write_r+0x20>)
 8005314:	4604      	mov	r4, r0
 8005316:	4608      	mov	r0, r1
 8005318:	4611      	mov	r1, r2
 800531a:	2200      	movs	r2, #0
 800531c:	602a      	str	r2, [r5, #0]
 800531e:	461a      	mov	r2, r3
 8005320:	f7fc f82e 	bl	8001380 <_write>
 8005324:	1c43      	adds	r3, r0, #1
 8005326:	d102      	bne.n	800532e <_write_r+0x1e>
 8005328:	682b      	ldr	r3, [r5, #0]
 800532a:	b103      	cbz	r3, 800532e <_write_r+0x1e>
 800532c:	6023      	str	r3, [r4, #0]
 800532e:	bd38      	pop	{r3, r4, r5, pc}
 8005330:	20000238 	.word	0x20000238

08005334 <__assert_func>:
 8005334:	b51f      	push	{r0, r1, r2, r3, r4, lr}
 8005336:	4614      	mov	r4, r2
 8005338:	461a      	mov	r2, r3
 800533a:	4b09      	ldr	r3, [pc, #36]	; (8005360 <__assert_func+0x2c>)
 800533c:	681b      	ldr	r3, [r3, #0]
 800533e:	4605      	mov	r5, r0
 8005340:	68d8      	ldr	r0, [r3, #12]
 8005342:	b14c      	cbz	r4, 8005358 <__assert_func+0x24>
 8005344:	4b07      	ldr	r3, [pc, #28]	; (8005364 <__assert_func+0x30>)
 8005346:	9100      	str	r1, [sp, #0]
 8005348:	e9cd 3401 	strd	r3, r4, [sp, #4]
 800534c:	4906      	ldr	r1, [pc, #24]	; (8005368 <__assert_func+0x34>)
 800534e:	462b      	mov	r3, r5
 8005350:	f000 f81e 	bl	8005390 <fiprintf>
 8005354:	f000 f893 	bl	800547e <abort>
 8005358:	4b04      	ldr	r3, [pc, #16]	; (800536c <__assert_func+0x38>)
 800535a:	461c      	mov	r4, r3
 800535c:	e7f3      	b.n	8005346 <__assert_func+0x12>
 800535e:	bf00      	nop
 8005360:	2000000c 	.word	0x2000000c
 8005364:	080061d5 	.word	0x080061d5
 8005368:	080061e2 	.word	0x080061e2
 800536c:	08006210 	.word	0x08006210

08005370 <_close_r>:
 8005370:	b538      	push	{r3, r4, r5, lr}
 8005372:	4d06      	ldr	r5, [pc, #24]	; (800538c <_close_r+0x1c>)
 8005374:	2300      	movs	r3, #0
 8005376:	4604      	mov	r4, r0
 8005378:	4608      	mov	r0, r1
 800537a:	602b      	str	r3, [r5, #0]
 800537c:	f7fc faa0 	bl	80018c0 <_close>
 8005380:	1c43      	adds	r3, r0, #1
 8005382:	d102      	bne.n	800538a <_close_r+0x1a>
 8005384:	682b      	ldr	r3, [r5, #0]
 8005386:	b103      	cbz	r3, 800538a <_close_r+0x1a>
 8005388:	6023      	str	r3, [r4, #0]
 800538a:	bd38      	pop	{r3, r4, r5, pc}
 800538c:	20000238 	.word	0x20000238

08005390 <fiprintf>:
 8005390:	b40e      	push	{r1, r2, r3}
 8005392:	b503      	push	{r0, r1, lr}
 8005394:	4601      	mov	r1, r0
 8005396:	ab03      	add	r3, sp, #12
 8005398:	4805      	ldr	r0, [pc, #20]	; (80053b0 <fiprintf+0x20>)
 800539a:	f853 2b04 	ldr.w	r2, [r3], #4
 800539e:	6800      	ldr	r0, [r0, #0]
 80053a0:	9301      	str	r3, [sp, #4]
 80053a2:	f7ff fe41 	bl	8005028 <_vfiprintf_r>
 80053a6:	b002      	add	sp, #8
 80053a8:	f85d eb04 	ldr.w	lr, [sp], #4
 80053ac:	b003      	add	sp, #12
 80053ae:	4770      	bx	lr
 80053b0:	2000000c 	.word	0x2000000c

080053b4 <_fstat_r>:
 80053b4:	b538      	push	{r3, r4, r5, lr}
 80053b6:	4d07      	ldr	r5, [pc, #28]	; (80053d4 <_fstat_r+0x20>)
 80053b8:	2300      	movs	r3, #0
 80053ba:	4604      	mov	r4, r0
 80053bc:	4608      	mov	r0, r1
 80053be:	4611      	mov	r1, r2
 80053c0:	602b      	str	r3, [r5, #0]
 80053c2:	f7fc fa81 	bl	80018c8 <_fstat>
 80053c6:	1c43      	adds	r3, r0, #1
 80053c8:	d102      	bne.n	80053d0 <_fstat_r+0x1c>
 80053ca:	682b      	ldr	r3, [r5, #0]
 80053cc:	b103      	cbz	r3, 80053d0 <_fstat_r+0x1c>
 80053ce:	6023      	str	r3, [r4, #0]
 80053d0:	bd38      	pop	{r3, r4, r5, pc}
 80053d2:	bf00      	nop
 80053d4:	20000238 	.word	0x20000238

080053d8 <_isatty_r>:
 80053d8:	b538      	push	{r3, r4, r5, lr}
 80053da:	4d06      	ldr	r5, [pc, #24]	; (80053f4 <_isatty_r+0x1c>)
 80053dc:	2300      	movs	r3, #0
 80053de:	4604      	mov	r4, r0
 80053e0:	4608      	mov	r0, r1
 80053e2:	602b      	str	r3, [r5, #0]
 80053e4:	f7fc fa76 	bl	80018d4 <_isatty>
 80053e8:	1c43      	adds	r3, r0, #1
 80053ea:	d102      	bne.n	80053f2 <_isatty_r+0x1a>
 80053ec:	682b      	ldr	r3, [r5, #0]
 80053ee:	b103      	cbz	r3, 80053f2 <_isatty_r+0x1a>
 80053f0:	6023      	str	r3, [r4, #0]
 80053f2:	bd38      	pop	{r3, r4, r5, pc}
 80053f4:	20000238 	.word	0x20000238

080053f8 <_lseek_r>:
 80053f8:	b538      	push	{r3, r4, r5, lr}
 80053fa:	4d07      	ldr	r5, [pc, #28]	; (8005418 <_lseek_r+0x20>)
 80053fc:	4604      	mov	r4, r0
 80053fe:	4608      	mov	r0, r1
 8005400:	4611      	mov	r1, r2
 8005402:	2200      	movs	r2, #0
 8005404:	602a      	str	r2, [r5, #0]
 8005406:	461a      	mov	r2, r3
 8005408:	f7fc fa66 	bl	80018d8 <_lseek>
 800540c:	1c43      	adds	r3, r0, #1
 800540e:	d102      	bne.n	8005416 <_lseek_r+0x1e>
 8005410:	682b      	ldr	r3, [r5, #0]
 8005412:	b103      	cbz	r3, 8005416 <_lseek_r+0x1e>
 8005414:	6023      	str	r3, [r4, #0]
 8005416:	bd38      	pop	{r3, r4, r5, pc}
 8005418:	20000238 	.word	0x20000238

0800541c <__ascii_mbtowc>:
 800541c:	b082      	sub	sp, #8
 800541e:	b901      	cbnz	r1, 8005422 <__ascii_mbtowc+0x6>
 8005420:	a901      	add	r1, sp, #4
 8005422:	b142      	cbz	r2, 8005436 <__ascii_mbtowc+0x1a>
 8005424:	b14b      	cbz	r3, 800543a <__ascii_mbtowc+0x1e>
 8005426:	7813      	ldrb	r3, [r2, #0]
 8005428:	600b      	str	r3, [r1, #0]
 800542a:	7812      	ldrb	r2, [r2, #0]
 800542c:	1e10      	subs	r0, r2, #0
 800542e:	bf18      	it	ne
 8005430:	2001      	movne	r0, #1
 8005432:	b002      	add	sp, #8
 8005434:	4770      	bx	lr
 8005436:	4610      	mov	r0, r2
 8005438:	e7fb      	b.n	8005432 <__ascii_mbtowc+0x16>
 800543a:	f06f 0001 	mvn.w	r0, #1
 800543e:	e7f8      	b.n	8005432 <__ascii_mbtowc+0x16>

08005440 <_read_r>:
 8005440:	b538      	push	{r3, r4, r5, lr}
 8005442:	4d07      	ldr	r5, [pc, #28]	; (8005460 <_read_r+0x20>)
 8005444:	4604      	mov	r4, r0
 8005446:	4608      	mov	r0, r1
 8005448:	4611      	mov	r1, r2
 800544a:	2200      	movs	r2, #0
 800544c:	602a      	str	r2, [r5, #0]
 800544e:	461a      	mov	r2, r3
 8005450:	f7fc fa28 	bl	80018a4 <_read>
 8005454:	1c43      	adds	r3, r0, #1
 8005456:	d102      	bne.n	800545e <_read_r+0x1e>
 8005458:	682b      	ldr	r3, [r5, #0]
 800545a:	b103      	cbz	r3, 800545e <_read_r+0x1e>
 800545c:	6023      	str	r3, [r4, #0]
 800545e:	bd38      	pop	{r3, r4, r5, pc}
 8005460:	20000238 	.word	0x20000238

08005464 <__ascii_wctomb>:
 8005464:	b149      	cbz	r1, 800547a <__ascii_wctomb+0x16>
 8005466:	2aff      	cmp	r2, #255	; 0xff
 8005468:	bf85      	ittet	hi
 800546a:	238a      	movhi	r3, #138	; 0x8a
 800546c:	6003      	strhi	r3, [r0, #0]
 800546e:	700a      	strbls	r2, [r1, #0]
 8005470:	f04f 30ff 	movhi.w	r0, #4294967295	; 0xffffffff
 8005474:	bf98      	it	ls
 8005476:	2001      	movls	r0, #1
 8005478:	4770      	bx	lr
 800547a:	4608      	mov	r0, r1
 800547c:	4770      	bx	lr

0800547e <abort>:
 800547e:	b508      	push	{r3, lr}
 8005480:	2006      	movs	r0, #6
 8005482:	f000 f82b 	bl	80054dc <raise>
 8005486:	2001      	movs	r0, #1
 8005488:	f7fc fa06 	bl	8001898 <_exit>

0800548c <_raise_r>:
 800548c:	291f      	cmp	r1, #31
 800548e:	b538      	push	{r3, r4, r5, lr}
 8005490:	4604      	mov	r4, r0
 8005492:	460d      	mov	r5, r1
 8005494:	d904      	bls.n	80054a0 <_raise_r+0x14>
 8005496:	2316      	movs	r3, #22
 8005498:	6003      	str	r3, [r0, #0]
 800549a:	f04f 30ff 	mov.w	r0, #4294967295	; 0xffffffff
 800549e:	bd38      	pop	{r3, r4, r5, pc}
 80054a0:	6c42      	ldr	r2, [r0, #68]	; 0x44
 80054a2:	b112      	cbz	r2, 80054aa <_raise_r+0x1e>
 80054a4:	f852 3021 	ldr.w	r3, [r2, r1, lsl #2]
 80054a8:	b94b      	cbnz	r3, 80054be <_raise_r+0x32>
 80054aa:	4620      	mov	r0, r4
 80054ac:	f000 f830 	bl	8005510 <_getpid_r>
 80054b0:	462a      	mov	r2, r5
 80054b2:	4601      	mov	r1, r0
 80054b4:	4620      	mov	r0, r4
 80054b6:	e8bd 4038 	ldmia.w	sp!, {r3, r4, r5, lr}
 80054ba:	f000 b817 	b.w	80054ec <_kill_r>
 80054be:	2b01      	cmp	r3, #1
 80054c0:	d00a      	beq.n	80054d8 <_raise_r+0x4c>
 80054c2:	1c59      	adds	r1, r3, #1
 80054c4:	d103      	bne.n	80054ce <_raise_r+0x42>
 80054c6:	2316      	movs	r3, #22
 80054c8:	6003      	str	r3, [r0, #0]
 80054ca:	2001      	movs	r0, #1
 80054cc:	e7e7      	b.n	800549e <_raise_r+0x12>
 80054ce:	2400      	movs	r4, #0
 80054d0:	f842 4025 	str.w	r4, [r2, r5, lsl #2]
 80054d4:	4628      	mov	r0, r5
 80054d6:	4798      	blx	r3
 80054d8:	2000      	movs	r0, #0
 80054da:	e7e0      	b.n	800549e <_raise_r+0x12>

080054dc <raise>:
 80054dc:	4b02      	ldr	r3, [pc, #8]	; (80054e8 <raise+0xc>)
 80054de:	4601      	mov	r1, r0
 80054e0:	6818      	ldr	r0, [r3, #0]
 80054e2:	f7ff bfd3 	b.w	800548c <_raise_r>
 80054e6:	bf00      	nop
 80054e8:	2000000c 	.word	0x2000000c

080054ec <_kill_r>:
 80054ec:	b538      	push	{r3, r4, r5, lr}
 80054ee:	4d07      	ldr	r5, [pc, #28]	; (800550c <_kill_r+0x20>)
 80054f0:	2300      	movs	r3, #0
 80054f2:	4604      	mov	r4, r0
 80054f4:	4608      	mov	r0, r1
 80054f6:	4611      	mov	r1, r2
 80054f8:	602b      	str	r3, [r5, #0]
 80054fa:	f7fc f9c5 	bl	8001888 <_kill>
 80054fe:	1c43      	adds	r3, r0, #1
 8005500:	d102      	bne.n	8005508 <_kill_r+0x1c>
 8005502:	682b      	ldr	r3, [r5, #0]
 8005504:	b103      	cbz	r3, 8005508 <_kill_r+0x1c>
 8005506:	6023      	str	r3, [r4, #0]
 8005508:	bd38      	pop	{r3, r4, r5, pc}
 800550a:	bf00      	nop
 800550c:	20000238 	.word	0x20000238

08005510 <_getpid_r>:
 8005510:	f7fc b9b8 	b.w	8001884 <_getpid>
 8005514:	0000      	movs	r0, r0
	...

08005518 <log>:
 8005518:	b538      	push	{r3, r4, r5, lr}
 800551a:	ed2d 8b02 	vpush	{d8}
 800551e:	ec55 4b10 	vmov	r4, r5, d0
 8005522:	f000 f841 	bl	80055a8 <__ieee754_log>
 8005526:	4b1e      	ldr	r3, [pc, #120]	; (80055a0 <log+0x88>)
 8005528:	eeb0 8a40 	vmov.f32	s16, s0
 800552c:	eef0 8a60 	vmov.f32	s17, s1
 8005530:	f993 3000 	ldrsb.w	r3, [r3]
 8005534:	3301      	adds	r3, #1
 8005536:	d01a      	beq.n	800556e <log+0x56>
 8005538:	4622      	mov	r2, r4
 800553a:	462b      	mov	r3, r5
 800553c:	4620      	mov	r0, r4
 800553e:	4629      	mov	r1, r5
 8005540:	f7fb fb14 	bl	8000b6c <__aeabi_dcmpun>
 8005544:	b998      	cbnz	r0, 800556e <log+0x56>
 8005546:	2200      	movs	r2, #0
 8005548:	2300      	movs	r3, #0
 800554a:	4620      	mov	r0, r4
 800554c:	4629      	mov	r1, r5
 800554e:	f7fb fb03 	bl	8000b58 <__aeabi_dcmpgt>
 8005552:	b960      	cbnz	r0, 800556e <log+0x56>
 8005554:	2200      	movs	r2, #0
 8005556:	2300      	movs	r3, #0
 8005558:	4620      	mov	r0, r4
 800555a:	4629      	mov	r1, r5
 800555c:	f7fb fad4 	bl	8000b08 <__aeabi_dcmpeq>
 8005560:	b160      	cbz	r0, 800557c <log+0x64>
 8005562:	f7fd fa2b 	bl	80029bc <__errno>
 8005566:	ed9f 8b0c 	vldr	d8, [pc, #48]	; 8005598 <log+0x80>
 800556a:	2322      	movs	r3, #34	; 0x22
 800556c:	6003      	str	r3, [r0, #0]
 800556e:	eeb0 0a48 	vmov.f32	s0, s16
 8005572:	eef0 0a68 	vmov.f32	s1, s17
 8005576:	ecbd 8b02 	vpop	{d8}
 800557a:	bd38      	pop	{r3, r4, r5, pc}
 800557c:	f7fd fa1e 	bl	80029bc <__errno>
 8005580:	ecbd 8b02 	vpop	{d8}
 8005584:	2321      	movs	r3, #33	; 0x21
 8005586:	6003      	str	r3, [r0, #0]
 8005588:	e8bd 4038 	ldmia.w	sp!, {r3, r4, r5, lr}
 800558c:	4805      	ldr	r0, [pc, #20]	; (80055a4 <log+0x8c>)
 800558e:	f000 b9c7 	b.w	8005920 <nan>
 8005592:	bf00      	nop
 8005594:	f3af 8000 	nop.w
 8005598:	00000000 	.word	0x00000000
 800559c:	fff00000 	.word	0xfff00000
 80055a0:	200001dc 	.word	0x200001dc
 80055a4:	08006210 	.word	0x08006210

080055a8 <__ieee754_log>:
 80055a8:	e92d 4ff0 	stmdb	sp!, {r4, r5, r6, r7, r8, r9, sl, fp, lr}
 80055ac:	ec51 0b10 	vmov	r0, r1, d0
 80055b0:	ed2d 8b04 	vpush	{d8-d9}
 80055b4:	f5b1 1f80 	cmp.w	r1, #1048576	; 0x100000
 80055b8:	b083      	sub	sp, #12
 80055ba:	460d      	mov	r5, r1
 80055bc:	da29      	bge.n	8005612 <__ieee754_log+0x6a>
 80055be:	f021 4300 	bic.w	r3, r1, #2147483648	; 0x80000000
 80055c2:	4303      	orrs	r3, r0
 80055c4:	ee10 2a10 	vmov	r2, s0
 80055c8:	d10c      	bne.n	80055e4 <__ieee754_log+0x3c>
 80055ca:	49cf      	ldr	r1, [pc, #828]	; (8005908 <__ieee754_log+0x360>)
 80055cc:	2200      	movs	r2, #0
 80055ce:	2300      	movs	r3, #0
 80055d0:	2000      	movs	r0, #0
 80055d2:	f7fb f95b 	bl	800088c <__aeabi_ddiv>
 80055d6:	ec41 0b10 	vmov	d0, r0, r1
 80055da:	b003      	add	sp, #12
 80055dc:	ecbd 8b04 	vpop	{d8-d9}
 80055e0:	e8bd 8ff0 	ldmia.w	sp!, {r4, r5, r6, r7, r8, r9, sl, fp, pc}
 80055e4:	2900      	cmp	r1, #0
 80055e6:	da05      	bge.n	80055f4 <__ieee754_log+0x4c>
 80055e8:	460b      	mov	r3, r1
 80055ea:	f7fa fe6d 	bl	80002c8 <__aeabi_dsub>
 80055ee:	2200      	movs	r2, #0
 80055f0:	2300      	movs	r3, #0
 80055f2:	e7ee      	b.n	80055d2 <__ieee754_log+0x2a>
 80055f4:	4bc5      	ldr	r3, [pc, #788]	; (800590c <__ieee754_log+0x364>)
 80055f6:	2200      	movs	r2, #0
 80055f8:	f7fb f81e 	bl	8000638 <__aeabi_dmul>
 80055fc:	f06f 0335 	mvn.w	r3, #53	; 0x35
 8005600:	460d      	mov	r5, r1
 8005602:	4ac3      	ldr	r2, [pc, #780]	; (8005910 <__ieee754_log+0x368>)
 8005604:	4295      	cmp	r5, r2
 8005606:	dd06      	ble.n	8005616 <__ieee754_log+0x6e>
 8005608:	4602      	mov	r2, r0
 800560a:	460b      	mov	r3, r1
 800560c:	f7fa fe5e 	bl	80002cc <__adddf3>
 8005610:	e7e1      	b.n	80055d6 <__ieee754_log+0x2e>
 8005612:	2300      	movs	r3, #0
 8005614:	e7f5      	b.n	8005602 <__ieee754_log+0x5a>
 8005616:	152c      	asrs	r4, r5, #20
 8005618:	f2a4 34ff 	subw	r4, r4, #1023	; 0x3ff
 800561c:	f3c5 0513 	ubfx	r5, r5, #0, #20
 8005620:	441c      	add	r4, r3
 8005622:	f505 2315 	add.w	r3, r5, #610304	; 0x95000
 8005626:	f603 7364 	addw	r3, r3, #3940	; 0xf64
 800562a:	f403 1380 	and.w	r3, r3, #1048576	; 0x100000
 800562e:	f083 527f 	eor.w	r2, r3, #1069547520	; 0x3fc00000
 8005632:	f482 1240 	eor.w	r2, r2, #3145728	; 0x300000
 8005636:	ea42 0105 	orr.w	r1, r2, r5
 800563a:	eb04 5413 	add.w	r4, r4, r3, lsr #20
 800563e:	2200      	movs	r2, #0
 8005640:	4bb4      	ldr	r3, [pc, #720]	; (8005914 <__ieee754_log+0x36c>)
 8005642:	f7fa fe41 	bl	80002c8 <__aeabi_dsub>
 8005646:	1cab      	adds	r3, r5, #2
 8005648:	f3c3 0313 	ubfx	r3, r3, #0, #20
 800564c:	2b02      	cmp	r3, #2
 800564e:	4682      	mov	sl, r0
 8005650:	468b      	mov	fp, r1
 8005652:	f04f 0200 	mov.w	r2, #0
 8005656:	dc53      	bgt.n	8005700 <__ieee754_log+0x158>
 8005658:	2300      	movs	r3, #0
 800565a:	f7fb fa55 	bl	8000b08 <__aeabi_dcmpeq>
 800565e:	b1d0      	cbz	r0, 8005696 <__ieee754_log+0xee>
 8005660:	2c00      	cmp	r4, #0
 8005662:	f000 8122 	beq.w	80058aa <__ieee754_log+0x302>
 8005666:	4620      	mov	r0, r4
 8005668:	f7fa ff7c 	bl	8000564 <__aeabi_i2d>
 800566c:	a390      	add	r3, pc, #576	; (adr r3, 80058b0 <__ieee754_log+0x308>)
 800566e:	e9d3 2300 	ldrd	r2, r3, [r3]
 8005672:	4606      	mov	r6, r0
 8005674:	460f      	mov	r7, r1
 8005676:	f7fa ffdf 	bl	8000638 <__aeabi_dmul>
 800567a:	a38f      	add	r3, pc, #572	; (adr r3, 80058b8 <__ieee754_log+0x310>)
 800567c:	e9d3 2300 	ldrd	r2, r3, [r3]
 8005680:	4604      	mov	r4, r0
 8005682:	460d      	mov	r5, r1
 8005684:	4630      	mov	r0, r6
 8005686:	4639      	mov	r1, r7
 8005688:	f7fa ffd6 	bl	8000638 <__aeabi_dmul>
 800568c:	4602      	mov	r2, r0
 800568e:	460b      	mov	r3, r1
 8005690:	4620      	mov	r0, r4
 8005692:	4629      	mov	r1, r5
 8005694:	e7ba      	b.n	800560c <__ieee754_log+0x64>
 8005696:	a38a      	add	r3, pc, #552	; (adr r3, 80058c0 <__ieee754_log+0x318>)
 8005698:	e9d3 2300 	ldrd	r2, r3, [r3]
 800569c:	4650      	mov	r0, sl
 800569e:	4659      	mov	r1, fp
 80056a0:	f7fa ffca 	bl	8000638 <__aeabi_dmul>
 80056a4:	4602      	mov	r2, r0
 80056a6:	460b      	mov	r3, r1
 80056a8:	2000      	movs	r0, #0
 80056aa:	499b      	ldr	r1, [pc, #620]	; (8005918 <__ieee754_log+0x370>)
 80056ac:	f7fa fe0c 	bl	80002c8 <__aeabi_dsub>
 80056b0:	4652      	mov	r2, sl
 80056b2:	4606      	mov	r6, r0
 80056b4:	460f      	mov	r7, r1
 80056b6:	465b      	mov	r3, fp
 80056b8:	4650      	mov	r0, sl
 80056ba:	4659      	mov	r1, fp
 80056bc:	f7fa ffbc 	bl	8000638 <__aeabi_dmul>
 80056c0:	4602      	mov	r2, r0
 80056c2:	460b      	mov	r3, r1
 80056c4:	4630      	mov	r0, r6
 80056c6:	4639      	mov	r1, r7
 80056c8:	f7fa ffb6 	bl	8000638 <__aeabi_dmul>
 80056cc:	4606      	mov	r6, r0
 80056ce:	460f      	mov	r7, r1
 80056d0:	b914      	cbnz	r4, 80056d8 <__ieee754_log+0x130>
 80056d2:	4632      	mov	r2, r6
 80056d4:	463b      	mov	r3, r7
 80056d6:	e0a2      	b.n	800581e <__ieee754_log+0x276>
 80056d8:	4620      	mov	r0, r4
 80056da:	f7fa ff43 	bl	8000564 <__aeabi_i2d>
 80056de:	a374      	add	r3, pc, #464	; (adr r3, 80058b0 <__ieee754_log+0x308>)
 80056e0:	e9d3 2300 	ldrd	r2, r3, [r3]
 80056e4:	4680      	mov	r8, r0
 80056e6:	4689      	mov	r9, r1
 80056e8:	f7fa ffa6 	bl	8000638 <__aeabi_dmul>
 80056ec:	a372      	add	r3, pc, #456	; (adr r3, 80058b8 <__ieee754_log+0x310>)
 80056ee:	e9d3 2300 	ldrd	r2, r3, [r3]
 80056f2:	4604      	mov	r4, r0
 80056f4:	460d      	mov	r5, r1
 80056f6:	4640      	mov	r0, r8
 80056f8:	4649      	mov	r1, r9
 80056fa:	f7fa ff9d 	bl	8000638 <__aeabi_dmul>
 80056fe:	e0a7      	b.n	8005850 <__ieee754_log+0x2a8>
 8005700:	f04f 4380 	mov.w	r3, #1073741824	; 0x40000000
 8005704:	f7fa fde2 	bl	80002cc <__adddf3>
 8005708:	4602      	mov	r2, r0
 800570a:	460b      	mov	r3, r1
 800570c:	4650      	mov	r0, sl
 800570e:	4659      	mov	r1, fp
 8005710:	f7fb f8bc 	bl	800088c <__aeabi_ddiv>
 8005714:	ec41 0b18 	vmov	d8, r0, r1
 8005718:	4620      	mov	r0, r4
 800571a:	f7fa ff23 	bl	8000564 <__aeabi_i2d>
 800571e:	ec53 2b18 	vmov	r2, r3, d8
 8005722:	ec41 0b19 	vmov	d9, r0, r1
 8005726:	ec51 0b18 	vmov	r0, r1, d8
 800572a:	f7fa ff85 	bl	8000638 <__aeabi_dmul>
 800572e:	f5a5 23c2 	sub.w	r3, r5, #397312	; 0x61000
 8005732:	f2a3 437a 	subw	r3, r3, #1146	; 0x47a
 8005736:	9301      	str	r3, [sp, #4]
 8005738:	4602      	mov	r2, r0
 800573a:	460b      	mov	r3, r1
 800573c:	4680      	mov	r8, r0
 800573e:	4689      	mov	r9, r1
 8005740:	f7fa ff7a 	bl	8000638 <__aeabi_dmul>
 8005744:	a360      	add	r3, pc, #384	; (adr r3, 80058c8 <__ieee754_log+0x320>)
 8005746:	e9d3 2300 	ldrd	r2, r3, [r3]
 800574a:	4606      	mov	r6, r0
 800574c:	460f      	mov	r7, r1
 800574e:	f7fa ff73 	bl	8000638 <__aeabi_dmul>
 8005752:	a35f      	add	r3, pc, #380	; (adr r3, 80058d0 <__ieee754_log+0x328>)
 8005754:	e9d3 2300 	ldrd	r2, r3, [r3]
 8005758:	f7fa fdb8 	bl	80002cc <__adddf3>
 800575c:	4632      	mov	r2, r6
 800575e:	463b      	mov	r3, r7
 8005760:	f7fa ff6a 	bl	8000638 <__aeabi_dmul>
 8005764:	a35c      	add	r3, pc, #368	; (adr r3, 80058d8 <__ieee754_log+0x330>)
 8005766:	e9d3 2300 	ldrd	r2, r3, [r3]
 800576a:	f7fa fdaf 	bl	80002cc <__adddf3>
 800576e:	4632      	mov	r2, r6
 8005770:	463b      	mov	r3, r7
 8005772:	f7fa ff61 	bl	8000638 <__aeabi_dmul>
 8005776:	a35a      	add	r3, pc, #360	; (adr r3, 80058e0 <__ieee754_log+0x338>)
 8005778:	e9d3 2300 	ldrd	r2, r3, [r3]
 800577c:	f7fa fda6 	bl	80002cc <__adddf3>
 8005780:	4642      	mov	r2, r8
 8005782:	464b      	mov	r3, r9
 8005784:	f7fa ff58 	bl	8000638 <__aeabi_dmul>
 8005788:	a357      	add	r3, pc, #348	; (adr r3, 80058e8 <__ieee754_log+0x340>)
 800578a:	e9d3 2300 	ldrd	r2, r3, [r3]
 800578e:	4680      	mov	r8, r0
 8005790:	4689      	mov	r9, r1
 8005792:	4630      	mov	r0, r6
 8005794:	4639      	mov	r1, r7
 8005796:	f7fa ff4f 	bl	8000638 <__aeabi_dmul>
 800579a:	a355      	add	r3, pc, #340	; (adr r3, 80058f0 <__ieee754_log+0x348>)
 800579c:	e9d3 2300 	ldrd	r2, r3, [r3]
 80057a0:	f7fa fd94 	bl	80002cc <__adddf3>
 80057a4:	4632      	mov	r2, r6
 80057a6:	463b      	mov	r3, r7
 80057a8:	f7fa ff46 	bl	8000638 <__aeabi_dmul>
 80057ac:	a352      	add	r3, pc, #328	; (adr r3, 80058f8 <__ieee754_log+0x350>)
 80057ae:	e9d3 2300 	ldrd	r2, r3, [r3]
 80057b2:	f7fa fd8b 	bl	80002cc <__adddf3>
 80057b6:	4632      	mov	r2, r6
 80057b8:	463b      	mov	r3, r7
 80057ba:	f7fa ff3d 	bl	8000638 <__aeabi_dmul>
 80057be:	460b      	mov	r3, r1
 80057c0:	4602      	mov	r2, r0
 80057c2:	4649      	mov	r1, r9
 80057c4:	4640      	mov	r0, r8
 80057c6:	f7fa fd81 	bl	80002cc <__adddf3>
 80057ca:	f5c5 25d7 	rsb	r5, r5, #440320	; 0x6b800
 80057ce:	9b01      	ldr	r3, [sp, #4]
 80057d0:	3551      	adds	r5, #81	; 0x51
 80057d2:	431d      	orrs	r5, r3
 80057d4:	2d00      	cmp	r5, #0
 80057d6:	4680      	mov	r8, r0
 80057d8:	4689      	mov	r9, r1
 80057da:	dd48      	ble.n	800586e <__ieee754_log+0x2c6>
 80057dc:	4b4e      	ldr	r3, [pc, #312]	; (8005918 <__ieee754_log+0x370>)
 80057de:	2200      	movs	r2, #0
 80057e0:	4650      	mov	r0, sl
 80057e2:	4659      	mov	r1, fp
 80057e4:	f7fa ff28 	bl	8000638 <__aeabi_dmul>
 80057e8:	4652      	mov	r2, sl
 80057ea:	465b      	mov	r3, fp
 80057ec:	f7fa ff24 	bl	8000638 <__aeabi_dmul>
 80057f0:	4602      	mov	r2, r0
 80057f2:	460b      	mov	r3, r1
 80057f4:	4606      	mov	r6, r0
 80057f6:	460f      	mov	r7, r1
 80057f8:	4640      	mov	r0, r8
 80057fa:	4649      	mov	r1, r9
 80057fc:	f7fa fd66 	bl	80002cc <__adddf3>
 8005800:	ec53 2b18 	vmov	r2, r3, d8
 8005804:	f7fa ff18 	bl	8000638 <__aeabi_dmul>
 8005808:	4680      	mov	r8, r0
 800580a:	4689      	mov	r9, r1
 800580c:	b964      	cbnz	r4, 8005828 <__ieee754_log+0x280>
 800580e:	4602      	mov	r2, r0
 8005810:	460b      	mov	r3, r1
 8005812:	4630      	mov	r0, r6
 8005814:	4639      	mov	r1, r7
 8005816:	f7fa fd57 	bl	80002c8 <__aeabi_dsub>
 800581a:	4602      	mov	r2, r0
 800581c:	460b      	mov	r3, r1
 800581e:	4650      	mov	r0, sl
 8005820:	4659      	mov	r1, fp
 8005822:	f7fa fd51 	bl	80002c8 <__aeabi_dsub>
 8005826:	e6d6      	b.n	80055d6 <__ieee754_log+0x2e>
 8005828:	a321      	add	r3, pc, #132	; (adr r3, 80058b0 <__ieee754_log+0x308>)
 800582a:	e9d3 2300 	ldrd	r2, r3, [r3]
 800582e:	ec51 0b19 	vmov	r0, r1, d9
 8005832:	f7fa ff01 	bl	8000638 <__aeabi_dmul>
 8005836:	a320      	add	r3, pc, #128	; (adr r3, 80058b8 <__ieee754_log+0x310>)
 8005838:	e9d3 2300 	ldrd	r2, r3, [r3]
 800583c:	4604      	mov	r4, r0
 800583e:	460d      	mov	r5, r1
 8005840:	ec51 0b19 	vmov	r0, r1, d9
 8005844:	f7fa fef8 	bl	8000638 <__aeabi_dmul>
 8005848:	4642      	mov	r2, r8
 800584a:	464b      	mov	r3, r9
 800584c:	f7fa fd3e 	bl	80002cc <__adddf3>
 8005850:	4602      	mov	r2, r0
 8005852:	460b      	mov	r3, r1
 8005854:	4630      	mov	r0, r6
 8005856:	4639      	mov	r1, r7
 8005858:	f7fa fd36 	bl	80002c8 <__aeabi_dsub>
 800585c:	4652      	mov	r2, sl
 800585e:	465b      	mov	r3, fp
 8005860:	f7fa fd32 	bl	80002c8 <__aeabi_dsub>
 8005864:	4602      	mov	r2, r0
 8005866:	460b      	mov	r3, r1
 8005868:	4620      	mov	r0, r4
 800586a:	4629      	mov	r1, r5
 800586c:	e7d9      	b.n	8005822 <__ieee754_log+0x27a>
 800586e:	4602      	mov	r2, r0
 8005870:	460b      	mov	r3, r1
 8005872:	4650      	mov	r0, sl
 8005874:	4659      	mov	r1, fp
 8005876:	f7fa fd27 	bl	80002c8 <__aeabi_dsub>
 800587a:	ec53 2b18 	vmov	r2, r3, d8
 800587e:	f7fa fedb 	bl	8000638 <__aeabi_dmul>
 8005882:	4606      	mov	r6, r0
 8005884:	460f      	mov	r7, r1
 8005886:	2c00      	cmp	r4, #0
 8005888:	f43f af23 	beq.w	80056d2 <__ieee754_log+0x12a>
 800588c:	a308      	add	r3, pc, #32	; (adr r3, 80058b0 <__ieee754_log+0x308>)
 800588e:	e9d3 2300 	ldrd	r2, r3, [r3]
 8005892:	ec51 0b19 	vmov	r0, r1, d9
 8005896:	f7fa fecf 	bl	8000638 <__aeabi_dmul>
 800589a:	a307      	add	r3, pc, #28	; (adr r3, 80058b8 <__ieee754_log+0x310>)
 800589c:	e9d3 2300 	ldrd	r2, r3, [r3]
 80058a0:	4604      	mov	r4, r0
 80058a2:	460d      	mov	r5, r1
 80058a4:	ec51 0b19 	vmov	r0, r1, d9
 80058a8:	e727      	b.n	80056fa <__ieee754_log+0x152>
 80058aa:	ed9f 0b15 	vldr	d0, [pc, #84]	; 8005900 <__ieee754_log+0x358>
 80058ae:	e694      	b.n	80055da <__ieee754_log+0x32>
 80058b0:	fee00000 	.word	0xfee00000
 80058b4:	3fe62e42 	.word	0x3fe62e42
 80058b8:	35793c76 	.word	0x35793c76
 80058bc:	3dea39ef 	.word	0x3dea39ef
 80058c0:	55555555 	.word	0x55555555
 80058c4:	3fd55555 	.word	0x3fd55555
 80058c8:	df3e5244 	.word	0xdf3e5244
 80058cc:	3fc2f112 	.word	0x3fc2f112
 80058d0:	96cb03de 	.word	0x96cb03de
 80058d4:	3fc74664 	.word	0x3fc74664
 80058d8:	94229359 	.word	0x94229359
 80058dc:	3fd24924 	.word	0x3fd24924
 80058e0:	55555593 	.word	0x55555593
 80058e4:	3fe55555 	.word	0x3fe55555
 80058e8:	d078c69f 	.word	0xd078c69f
 80058ec:	3fc39a09 	.word	0x3fc39a09
 80058f0:	1d8e78af 	.word	0x1d8e78af
 80058f4:	3fcc71c5 	.word	0x3fcc71c5
 80058f8:	9997fa04 	.word	0x9997fa04
 80058fc:	3fd99999 	.word	0x3fd99999
	...
 8005908:	c3500000 	.word	0xc3500000
 800590c:	43500000 	.word	0x43500000
 8005910:	7fefffff 	.word	0x7fefffff
 8005914:	3ff00000 	.word	0x3ff00000
 8005918:	3fe00000 	.word	0x3fe00000
 800591c:	00000000 	.word	0x00000000

08005920 <nan>:
 8005920:	ed9f 0b01 	vldr	d0, [pc, #4]	; 8005928 <nan+0x8>
 8005924:	4770      	bx	lr
 8005926:	bf00      	nop
 8005928:	00000000 	.word	0x00000000
 800592c:	7ff80000 	.word	0x7ff80000

08005930 <_init>:
 8005930:	b5f8      	push	{r3, r4, r5, r6, r7, lr}
 8005932:	bf00      	nop
 8005934:	bcf8      	pop	{r3, r4, r5, r6, r7}
 8005936:	bc08      	pop	{r3}
 8005938:	469e      	mov	lr, r3
 800593a:	4770      	bx	lr

0800593c <_fini>:
 800593c:	b5f8      	push	{r3, r4, r5, r6, r7, lr}
 800593e:	bf00      	nop
 8005940:	bcf8      	pop	{r3, r4, r5, r6, r7}
 8005942:	bc08      	pop	{r3}
 8005944:	469e      	mov	lr, r3
 8005946:	4770      	bx	lr
